    1 00:0000 -  -  -  -  #include	"vx3D.inc"
Listing for file "C:\Users\Zeromus\Documents\GitHub\Virtual3D\vx3D.inc"
    1 00:0000 -  -  -  -  #define dbgbreak   scf \ sbc hl, hl \ ld (hl), 2
    2 00:0000 -  -  -  -  #define dbgstart0 	push hl \ ld hl,$F20030 \ set 0,(hl) \ pop hl
    3 00:0000 -  -  -  -  #define dbgstop0	push hl \ ld hl,$F20030 \ res 0,(hl) \ pop hl
    4 00:0000 -  -  -  -  
    5 00:0000 -  -  -  -   ; Virtual-3D library, version 1.0
    6 00:0000 -  -  -  -   ;
    7 00:0000 -  -  -  -   ; Copyright (c) 2016-2017, 'TheMachine02'
    8 00:0000 -  -  -  -   ; All rights reserved.
    9 00:0000 -  -  -  -   ;
   10 00:0000 -  -  -  -   ; Redistribution and use in source and binary forms, with or without
   11 00:0000 -  -  -  -   ; modification, are permitted provided that the following conditions are met:
   12 00:0000 -  -  -  -   ;
   13 00:0000 -  -  -  -   ; ; Redistributions of source code must retain the above copyright notice, this
   14 00:0000 -  -  -  -   ; list of conditions and the following disclaimer.
   15 00:0000 -  -  -  -   ;
   16 00:0000 -  -  -  -   ; ; Redistributions in binary form must reproduce the above copyright notice,
   17 00:0000 -  -  -  -   ; this list of conditions and the following disclaimer in the documentation
   18 00:0000 -  -  -  -   ; and/or other materials provided with the distribution.
   19 00:0000 -  -  -  -   ;
   20 00:0000 -  -  -  -   ; THIS SOFTWARE IS PROVIDED BY THE COPYRIGHT HOLDERS AND CONTRIBUTORS "AS IS"
   21 00:0000 -  -  -  -   ; AND ANY EXPRESS OR IMPLIED WARRANTIES, INCLUDING, BUT NOT LIMITED TO, THE
   22 00:0000 -  -  -  -   ; IMPLIED WARRANTIES OF MERCHANTABILITY AND FITNESS FOR A PARTICULAR PURPOSE ARE
   23 00:0000 -  -  -  -   ; DISCLAIMED. IN NO EVENT SHALL THE COPYRIGHT HOLDER OR CONTRIBUTORS BE LIABLE
   24 00:0000 -  -  -  -   ; FOR ANY DIRECT, INDIRECT, INCIDENTAL, SPECIAL, EXEMPLARY, OR CONSEQUENTIAL
   25 00:0000 -  -  -  -   ; DAMAGES (INCLUDING, BUT NOT LIMITED TO, PROCUREMENT OF SUBSTITUTE GOODS OR
   26 00:0000 -  -  -  -   ; SERVICES; LOSS OF USE, DATA, OR PROFITS; OR BUSINESS INTERRUPTION) HOWEVER
   27 00:0000 -  -  -  -   ; CAUSED AND ON ANY THEORY OF LIABILITY, WHETHER IN CONTRACT, STRICT LIABILITY,
   28 00:0000 -  -  -  -   ; OR TORT (INCLUDING NEGLIGENCE OR OTHERWISE) ARISING IN ANY WAY OUT OF THE USE
   29 00:0000 -  -  -  -   ; OF THIS SOFTWARE, EVEN IF ADVISED OF THE POSSIBILITY OF SUCH DAMAGE.
   30 00:0000 -  -  -  -   ; ;
   31 00:0000 -  -  -  -  
   32 00:0000 -  -  -  -  #ifndef VX_3D_GUARD
   33 00:0000 -  -  -  -  #define VX_3D_GUARD
   34 00:0000 -  -  -  -  
Listing for file "C:\Users\Zeromus\Documents\GitHub\Virtual3D\vx3D.inc"
   39 00:0000 -  -  -  -  #include "relocate.inc"
Listing for file "include\\relocate.inc"
    1 00:0000 -  -  -  -  #macro relocate(new_location)
    2 00:0000              #ifdef old_location
    3 00:0000                .echo "Error: You cannot nest relocate blocks."
    4 00:0000              #else
    5 00:0000                #define old_location eval($)
    6 00:0000                .org new_location
    7 00:0000                #define g_location eval(new_location)
    8 00:0000              #endif
    9 00:0000             #endmacro
   10 00:0000 -  -  -  -  #define .relocate relocate(
   11 00:0000 -  -  -  -  
   12 00:0000 -  -  -  -  #macro endrelocate()
   13 00:0000              #ifdef g_location
   14 00:0000                .org $-g_location + old_location
   15 00:0000                #undefine g_location
   16 00:0000                #undefine old_location
   17 00:0000              #else
   18 00:0000                .echo "Error : No relocate statements corresponds to this endrelocate."
   19 00:0000              #endif
   20 00:0000             #endmacro
   21 00:0000 -  -  -  -  #define .endrelocate endrelocate(
Listing for file "C:\Users\Zeromus\Documents\GitHub\Virtual3D\vx3D.inc"
  178 00:0000 -  -  -  -  
  179 00:0000 -  -  -  -  ; global compilation variable ;
  180 00:0000 -  -  -  -  
  181 00:0000 -  -  -  -  #define	VX_PS_1.0
  182 00:0000 -  -  -  -  #define	VX_VS_1.x
  183 00:0000 -  -  -  -  .echo "vxLib API version 1.0"
  184 00:0000 -  -  -  -  .echo "pixel shader version  : ps_1.0"
  185 00:0000 -  -  -  -  ; ps_1.0
  186 00:0000 -  -  -  -  .echo "vertex shader version : vs_1.x"
  187 00:0000 -  -  -  -  
  188 00:0000 -  -  -  -  .addinstr  ldi	(de),a 1312 2 NOP 0
  189 00:0000 -  -  -  -  .addinstr  xori a,(de) 13EBAEEB 4 NOP 0
  190 00:0000 -  -  -  -  .addinstr  andi a,(de) 13EBA6EB 4 NOP 0
  191 00:0000 -  -  -  -  .addinstr  ori	a,(de) 13EBB6EB 4 NOP 0
  192 00:0000 -  -  -  -  
  193 00:0000 -  -  -  -  #endif
Listing for file "example.ez80"
    2 00:0000 -  -  -  -  
    3 00:0000 -  -  -  -  .org userMem - 2
    4 D1:A87F EF 7B -  -  .db tExtTok, tAsm84CeCmp
    5 D1:A881 -  -  -  -  .assume ADL=1
    6 D1:A881 -  -  -  -  
    7 D1:A881 -  -  -  -  #define	DELTA	4096
    8 D1:A881 -  -  -  -  
    9 D1:A881 -  -  -  -  ; init the virtual 3d library
   10 D1:A881 CD 53 01 D2 	call	vxEngineInit
   11 D1:A885 D8 -  -  -  	ret	c		; quit if error at init
   12 D1:A886 -  -  -  -  
   13 D1:A886 21 EA 09 D2 	ld	hl, VertexName
   14 D1:A88A CD 4B C4 D1 	call	vxFindFile
   15 D1:A88E D8 -  -  -  	ret	c
   16 D1:A88F 22 F1 09 D2 	ld	(Vertex), hl
   17 D1:A893 -  -  -  -  
   18 D1:A893 21 F4 09 D2 	ld	hl, TriangleName
   19 D1:A897 CD 4B C4 D1 	call	vxFindFile
   20 D1:A89B D8 -  -  -  	ret	c
   21 D1:A89C 22 FB 09 D2 	ld	(Triangle), hl
   22 D1:A8A0 -  -  -  -  
   23 D1:A8A0 -  -  -  -  
   24 D1:A8A0 21 FE 09 D2 	ld	hl, TextName
   25 D1:A8A4 CD 4B C4 D1 	call	vxFindFile
   26 D1:A8A8 D8 -  -  -  	ret	c
   27 D1:A8A9 22 05 0A D2 	ld	(Texture), hl
   28 D1:A8AD 11 FE FF D2 	ld	de, $D30000-2
   29 D1:A8B1 CD 5C C5 D1 	call	vxZX7Uncompress		; uncompress the texture generated by convpng
   30 D1:A8B5 -  -  -  -  
   31 D1:A8B5 -  -  -  -  
   32 D1:A8B5 -  -  -  -  ; setup global variable for rendering, euler angle and the translation of WorldMatrix
   33 D1:A8B5 -  -  -  -  
   34 D1:A8B5 21 00 00 00 	ld	hl, 0
   35 D1:A8B9 22 68 0A D2 	ld	(EulerAngle), hl
   36 D1:A8BD 21 38 0A D2 	ld	hl, WorldMatrix
   37 D1:A8C1 CD 43 AC D1 	call	vxMatrixLoadIdentity
   38 D1:A8C5 -  -  -  -  
   39 D1:A8C5 -  -  -  -  MainLoop:
   40 D1:A8C5 -  -  -  -  
   41 D1:A8C5 CD BD A9 D1 	call	vxTimerStart
   42 D1:A8C9 -  -  -  -  
   43 D1:A8C9 CD 74 0A D2 	call	Camera
   44 D1:A8CD C0 -  -  -  	ret	nz
   45 D1:A8CE -  -  -  -  
   46 D1:A8CE 3A F0 BD D1 	ld	a, (vxKeyAnimation)
   47 D1:A8D2 3C -  -  -  	inc a
   48 D1:A8D3 FE 13 -  -  	cp	19
   49 D1:A8D5 20 01 -  -  	jr	nz, $+3
   50 D1:A8D7 AF -  -  -  	xor	a, a
   51 D1:A8D8 32 F0 BD D1 	ld	(vxKeyAnimation), a
   52 D1:A8DC -  -  -  -  
   53 D1:A8DC -  -  -  -  ; animate the texture
   54 D1:A8DC 3A 71 0A D2 	ld	a, (texture_frame)
   55 D1:A8E0 3C -  -  -  	inc	a
   56 D1:A8E1 FE 04 -  -  	cp	4
   57 D1:A8E3 20 01 -  -  	jr	nz, $+3
   58 D1:A8E5 AF -  -  -  	xor	a, a
   59 D1:A8E6 32 71 0A D2 	ld	(texture_frame), a
   60 D1:A8EA -  -  -  -  ; texture_frame*16
   61 D1:A8EA 6F -  -  -  	ld	l, a
   62 D1:A8EB 26 10 -  -  	ld	h, 16
   63 D1:A8ED ED 6C -  -  	mlt	hl
   64 D1:A8EF 7D -  -  -  	ld	a, l
   65 D1:A8F0 C6 B0 -  -  	add	a, 160+16
   66 D1:A8F2 67 -  -  -  	ld	h, a
   67 D1:A8F3 2E 00 -  -  	ld	l, 0
   68 D1:A8F5 -  -  -  -  
   69 D1:A8F5 11 00 A0 00 	ld	de, 160*256+0
   70 D1:A8F9 01 40 10 00 	ld	bc, 16*256+64
   71 D1:A8FD -  -  -  -  	
   72 D1:A8FD CD 75 C7 D1 	call	vxImageSubCopy
   73 D1:A901 -  -  -  -  
   74 D1:A901 3E 10 -  -  	ld	a, VX_GEOMETRY_TI9
   75 D1:A903 DD 21 38 0A 
              D2 -  -  -  	ld	ix, WorldMatrix
   76 D1:A908 FD 21 4A 0A 
              D2 -  -  -  	ld	iy, ModelMatrix
   77 D1:A90D 01 00 80 D0 	ld	bc, VX_VERTEX_BUFFER
   78 D1:A911 2A F1 09 D2 	ld	hl, (Vertex)
   79 D1:A915 ED 5B FB 09 
              D2 -  -  -  	ld	de, (Triangle)
   80 D1:A91A CD D4 BF D1 	call	vxCmdDraw
   81 D1:A91E -  -  -  -  
   82 D1:A91E 3E 10 -  -  	ld	a, VX_GEOMETRY_TI9
   83 D1:A920 DD 21 38 0A 
              D2 -  -  -  	ld	ix, WorldMatrix
   84 D1:A925 FD 21 59 0A 
              D2 -  -  -  	ld	iy, LaraMatrix
   85 D1:A92A 01 00 C0 D0 	ld	bc, VX_VERTEX_BUFFER+(1024*16)
   86 D1:A92E 21 B6 0B D2 	ld	hl, VERTEXDATA
   87 D1:A932 11 14 29 D2 	ld	de, TRIDATA
   88 D1:A936 CD D4 BF D1 	call	vxCmdDraw
   89 D1:A93A -  -  -  -  
   90 D1:A93A -  -  -  -  
   91 D1:A93A 2A A7 BD D1 	ld	hl, (vxGeometrySize)
   92 D1:A93E 22 A5 A9 D1 	ld	(triangle_count), hl
   93 D1:A942 -  -  -  -  
   94 D1:A942 CD 73 C1 D1 	call	vxCmdDepthSort
   95 D1:A946 -  -  -  -  
   96 D1:A946 0E 00 -  -  	ld	c, %00000000
   97 D1:A948 CD BF B3 D1 	call	vxClearBuffer
   98 D1:A94C CD 00 BF D1 	call	vxCmdExecute
   99 D1:A950 -  -  -  -  
  100 D1:A950 -  -  -  -  ; timer & counter
  101 D1:A950 -  -  -  -  
  102 D1:A950 01 FF 09 00 	ld	bc, 320*8-1
  103 D1:A954 ED 5B 14 00 
              E3 -  -  -  	ld	de, (vxFramebuffer)
  104 D1:A959 B7 -  -  -  	or	a, a
  105 D1:A95A ED 62 -  -  	sbc	hl, hl
  106 D1:A95C 19 -  -  -  	add	hl, de
  107 D1:A95D 13 -  -  -  	inc	de
  108 D1:A95E 36 00 -  -  	ld	(hl), 0
  109 D1:A960 ED B0 -  -  	ldir
  110 D1:A962 -  -  -  -  
  111 D1:A962 21 00 00 00 	ld	hl, 0
  112 D1:A966 22 75 02 D2 	ld	(TextXPos_SMC), hl
  113 D1:A96A 3E 00 -  -  	ld	a, 0
  114 D1:A96C 32 83 02 D2 	ld	(TextYPos_SMC), a
  115 D1:A970 -  -  -  -  
  116 D1:A970 CD DB A9 D1 	call	vxTimerRead
  117 D1:A974 -  -  -  -  ; do (ade/256)/187
  118 D1:A974 ED 53 E4 09 
              D2 -  -  -  	ld	(Temp), de
  119 D1:A979 32 E7 09 D2 	ld	(Temp+3), a
  120 D1:A97D ED 5B E5 09 
              D2 -  -  -  	ld	de, (Temp+1)
  121 D1:A982 -  -  -  -  ; divide de by 187
  122 D1:A982 EB -  -  -  	ex	de, hl
  123 D1:A983 01 BB 00 00 	ld	bc, 187
  124 D1:A987 CD 7D 04 D2 	call	__idivs_ASM
  125 D1:A98B 11 04 00 00 	ld	de, 4
  126 D1:A98F D5 -  -  -  	push	de
  127 D1:A990 E5 -  -  -  	push	hl
  128 D1:A991 CD FE 02 D2 	call	_PrintUInt
  129 D1:A995 D1 -  -  -  	pop	de
  130 D1:A996 E1 -  -  -  	pop	hl
  131 D1:A997 -  -  -  -  
  132 D1:A997 2A 75 02 D2 	ld	hl, (TextXPos_SMC)
  133 D1:A99B 11 08 00 00 	ld	de, 8
  134 D1:A99F 19 -  -  -  	add	hl, de
  135 D1:A9A0 22 75 02 D2 	ld	(TextXPos_SMC), hl
  136 D1:A9A4 -  -  -  -  
  137 D1:A9A4 -  -  -  -  triangle_count=$+1
  138 D1:A9A4 21 00 00 00 	ld	hl, 0
  139 D1:A9A8 11 04 00 00 	ld	de, 4
  140 D1:A9AC D5 -  -  -  	push	de
  141 D1:A9AD E5 -  -  -  	push	hl
  142 D1:A9AE CD FE 02 D2 	call	_PrintUInt
  143 D1:A9B2 D1 -  -  -  	pop	de
  144 D1:A9B3 E1 -  -  -  	pop	hl
  145 D1:A9B4 -  -  -  -  
  146 D1:A9B4 CD D1 B3 D1 	call	vxFlushLCD
  147 D1:A9B8 -  -  -  -  
  148 D1:A9B8 C3 C5 A8 D1 	jp	 MainLoop
  149 D1:A9BC C9 -  -  -  	ret
  150 D1:A9BD -  -  -  -  
  151 D1:A9BD -  -  -  -  #include	"vxMain.ez80"
Listing for file "C:\Users\Zeromus\Documents\GitHub\Virtual3D\vxMain.ez80"
    1 D1:A9BD -  -  -  -  #include	"vxTimer.ez80"
Listing for file "C:\Users\Zeromus\Documents\GitHub\Virtual3D\vxTimer.ez80"
    1 D1:A9BD -  -  -  -  #define	VX_TIMER_CTRL	$F20030
    2 D1:A9BD -  -  -  -  #define	VX_TIMER_COUNT	$F20000
    3 D1:A9BD -  -  -  -  
    4 D1:A9BD -  -  -  -  vxTimerStart:
    5 D1:A9BD -  -  -  -  ; now intialise and start the timer (1)
    6 D1:A9BD 21 30 00 F2 	ld	hl, VX_TIMER_CTRL
    7 D1:A9C1 7E -  -  -  	ld	a, (hl)
    8 D1:A9C2 -  -  -  -  ; CPU clock, not enable, count up
    9 D1:A9C2 E6 F8 -  -  	and	%11111000
   10 D1:A9C4 77 -  -  -  	ld	(hl), a
   11 D1:A9C5 2C -  -  -  	inc	l
   12 D1:A9C6 CB CE -  -  	set	1, (hl)
   13 D1:A9C8 -  -  -  -  ; reset the value
   14 D1:A9C8 AF -  -  -  	xor	a, a
   15 D1:A9C9 21 00 00 F2 	ld	hl, VX_TIMER_COUNT
   16 D1:A9CD 77 -  -  -  	ld	(hl), a
   17 D1:A9CE 2C -  -  -  	inc	l
   18 D1:A9CF 77 -  -  -  	ld	(hl), a
   19 D1:A9D0 2C -  -  -  	inc	l
   20 D1:A9D1 77 -  -  -  	ld	(hl), a
   21 D1:A9D2 2C -  -  -  	inc	l
   22 D1:A9D3 77 -  -  -  	ld	(hl), a
   23 D1:A9D4 21 30 00 F2 	ld	hl, VX_TIMER_CTRL
   24 D1:A9D8 -  -  -  -  ; start timer
   25 D1:A9D8 CB C6 -  -  	set	0, (hl)
   26 D1:A9DA C9 -  -  -  	ret
   27 D1:A9DB -  -  -  -  vxTimerRead:
   28 D1:A9DB 21 30 00 F2 	ld	hl, VX_TIMER_CTRL
   29 D1:A9DF -  -  -  -  ; stop the timer
   30 D1:A9DF CB 86 -  -  	res	0, (hl)
   31 D1:A9E1 -  -  -  -  ; read 24 bits value in the counter register
   32 D1:A9E1 21 00 00 F2 	ld	hl, VX_TIMER_COUNT
   33 D1:A9E5 ED 17 -  -  	ld	de, (hl)
   34 D1:A9E7 23 23 23 -  	inc	hl \ inc hl \ inc hl
   35 D1:A9EA 7E -  -  -  	ld	a, (hl)
   36 D1:A9EB -  -  -  -  ; full 32bits value is now ade
   37 D1:A9EB C9 -  -  -  	ret
Listing for file "C:\Users\Zeromus\Documents\GitHub\Virtual3D\vxMain.ez80"
    2 D1:A9EC -  -  -  -  #include	"vxRaster.ez80"
Listing for file "C:\Users\Zeromus\Documents\GitHub\Virtual3D\vxRaster.ez80"
    1 D1:A9EC -  -  -  -  
    2 D1:A9EC -  -  -  -  
    3 D1:A9EC -  -  -  -  vxRasterPixel:
    4 D1:A9EC 5E -  -  -  	ld	e, (hl)
    5 D1:A9ED 23 -  -  -  	inc	hl
    6 D1:A9EE ED 27 -  -  	ld	hl, (hl)
    7 D1:A9F0 -  -  -  -  vxRasterPixelEntry:
    8 D1:A9F0 -  -  -  -  ; input : hl :x , [d]e : y, c : color
    9 D1:A9F0 -  -  -  -  ; output : none
   10 D1:A9F0 -  -  -  -  ; destroyed : hl, de
   11 D1:A9F0 16 A0 -  -  	ld	d, 160	; [8]
   12 D1:A9F2 ED 5C -  -  	mlt	de		; [12]
   13 D1:A9F4 EB -  -  -  	ex	de, hl	; [4]
   14 D1:A9F5 29 -  -  -  	add	hl, hl	; [4]
   15 D1:A9F6 19 -  -  -  	add	hl, de	; [4]
   16 D1:A9F7 ED 5B 14 00 
              E3 -  -  -  	ld	de, (vxFramebuffer)	; [32]
   17 D1:A9FC 19 -  -  -  	add	hl, de	; [4]
   18 D1:A9FD 71 -  -  -  	ld	(hl), c	; [6]
   19 D1:A9FE C9 -  -  -  	ret			; [x]
   20 D1:A9FF -  -  -  -  
   21 D1:A9FF -  -  -  -  vxFlatPolygon:
   22 D1:A9FF D6 03 -  -  	sub	a, 3
   23 D1:AA01 D8 -  -  -  	ret	c
   24 D1:AA02 3C -  -  -  	inc	a
   25 D1:AA03 47 -  -  -  	ld	b, a
   26 D1:AA04 FD 27 00 -  	ld	hl, (iy+0)
   27 D1:AA07 -  -  -  -  vxFlatCyclicLoop:
   28 D1:AA07 C5 -  -  -  	push	bc
   29 D1:AA08 FD 07 03 -  	ld	bc, (iy+3)
   30 D1:AA0B FD 17 06 -  	ld	de, (iy+6)
   31 D1:AA0E E5 -  -  -  	push	hl
   32 D1:AA0F FD E5 -  -  	push	iy
   33 D1:AA11 0A -  -  -  	ld	a, (bc)
   34 D1:AA12 B6 -  -  -  	or	(hl)
   35 D1:AA13 EB -  -  -  	ex	de, hl
   36 D1:AA14 B6 -  -  -  	or	(hl)
   37 D1:AA15 20 73 -  -  	jr	nz, vxFlatDiscard
   38 D1:AA17 -  -  -  -  
   39 D1:AA17 E5 -  -  -  	push	hl
   40 D1:AA18 D5 -  -  -  	push	de
   41 D1:AA19 C5 -  -  -  	push	bc
   42 D1:AA1A 23 13 03 -  	inc	hl \ inc de \ inc bc
   43 D1:AA1D D5 -  -  -  	push	de
   44 D1:AA1E DD E1 -  -  	pop	ix
   45 D1:AA20 C5 -  -  -  	push	bc
   46 D1:AA21 FD E1 -  -  	pop	iy
   47 D1:AA23 E5 -  -  -  	push	hl
   48 D1:AA24 23 -  -  -  	inc	hl
   49 D1:AA25 ED 17 -  -  	ld	de, (hl)
   50 D1:AA27 FD 27 01 -  	ld	hl, (iy+1)
   51 D1:AA2A B7 -  -  -  	or	a, a
   52 D1:AA2B ED 52 -  -  	sbc	hl, de
   53 D1:AA2D 44 -  -  -  	ld	b, h
   54 D1:AA2E 4D -  -  -  	ld	c, l
   55 D1:AA2F -  -  -  -  
   56 D1:AA2F E1 -  -  -  	pop	hl
   57 D1:AA30 DD 7E 00 -  	ld	a, (ix)
   58 D1:AA33 96 -  -  -  	sub	(hl)
   59 D1:AA34 E5 -  -  -  	push	hl
   60 D1:AA35 -  -  -  -  
   61 D1:AA35 60 -  -  -  	ld	h, b
   62 D1:AA36 6F -  -  -  	ld	l, a
   63 D1:AA37 ED 6C -  -  	mlt	hl
   64 D1:AA39 30 03 -  -  	jr	nc, $+5
   65 D1:AA3B B7 -  -  -  	or	a, a
   66 D1:AA3C ED 42 -  -  	sbc	hl, bc
   67 D1:AA3E CB 78 -  -  	bit	7, b
   68 D1:AA40 47 -  -  -  	ld	b, a
   69 D1:AA41 28 03 -  -  	jr	z, $+5
   70 D1:AA43 7C -  -  -  	ld	a, h
   71 D1:AA44 90 -  -  -  	sub	a, b
   72 D1:AA45 67 -  -  -  	ld	h, a
   73 D1:AA46 29 29 29 29 
              29 29 29 29 	slhl
Listing for file "C:\Users\Zeromus\Documents\GitHub\Virtual3D\vx3D.inc"
Listing for file "C:\Users\Zeromus\Documents\GitHub\Virtual3D\vxRaster.ez80"
   74 D1:AA4E ED 4C -  -  	mlt	bc
   75 D1:AA50 09 -  -  -  	add	hl, bc
   76 D1:AA51 EB -  -  -  	ex	de, hl
   77 D1:AA52 E1 -  -  -  	pop	hl
   78 D1:AA53 -  -  -  -  
   79 D1:AA53 E5 -  -  -  	push	hl
   80 D1:AA54 23 -  -  -  	inc	hl
   81 D1:AA55 ED 07 -  -  	ld	bc, (hl)
   82 D1:AA57 DD 27 01 -  	ld	hl, (ix+1)
   83 D1:AA5A B7 -  -  -  	or	a, a
   84 D1:AA5B ED 42 -  -  	sbc	hl, bc
   85 D1:AA5D 44 -  -  -  	ld	b, h
   86 D1:AA5E 4D -  -  -  	ld	c, l
   87 D1:AA5F -  -  -  -  
   88 D1:AA5F E1 -  -  -  	pop	hl
   89 D1:AA60 FD 7E 00 -  	ld	a, (iy)
   90 D1:AA63 96 -  -  -  	sub	(hl)
   91 D1:AA64 -  -  -  -  
   92 D1:AA64 60 -  -  -  	ld	h, b
   93 D1:AA65 6F -  -  -  	ld	l, a
   94 D1:AA66 ED 6C -  -  	mlt	hl
   95 D1:AA68 30 03 -  -  	jr	nc, $+5
   96 D1:AA6A B7 -  -  -  	or	a, a
   97 D1:AA6B ED 42 -  -  	sbc	hl, bc
   98 D1:AA6D CB 78 -  -  	bit	7, b
   99 D1:AA6F 47 -  -  -  	ld	b, a
  100 D1:AA70 28 03 -  -  	jr	z, $+5
  101 D1:AA72 7C -  -  -  	ld	a, h
  102 D1:AA73 90 -  -  -  	sub	a, b
  103 D1:AA74 67 -  -  -  	ld	h, a
  104 D1:AA75 29 29 29 29 
              29 29 29 29 	slhl
Listing for file "C:\Users\Zeromus\Documents\GitHub\Virtual3D\vx3D.inc"
Listing for file "C:\Users\Zeromus\Documents\GitHub\Virtual3D\vxRaster.ez80"
  105 D1:AA7D ED 4C -  -  	mlt	bc
  106 D1:AA7F 09 -  -  -  	add	hl, bc
  107 D1:AA80 -  -  -  -  
  108 D1:AA80 B7 -  -  -  	or	a, a
  109 D1:AA81 ED 52 -  -  	sbc	hl, de
  110 D1:AA83 -  -  -  -  
  111 D1:AA83 C1 -  -  -  	pop	bc
  112 D1:AA84 D1 -  -  -  	pop	de
  113 D1:AA85 E1 -  -  -  	pop	hl
  114 D1:AA86 -  -  -  -  
  115 D1:AA86 F4 A8 AA D1 	call	p, vxFlatTrianglePC
  116 D1:AA8A -  -  -  -  vxFlatDiscard:
  117 D1:AA8A FD E1 -  -  	pop	iy
  118 D1:AA8C ED 33 03 -  	lea	iy, iy+3
  119 D1:AA8F E1 -  -  -  	pop	hl
  120 D1:AA90 C1 -  -  -  	pop	bc
  121 D1:AA91 05 -  -  -  	dec	b
  122 D1:AA92 C2 07 AA D1 	jp	nz, vxFlatCyclicLoop
  123 D1:AA96 C9 -  -  -  	ret
  124 D1:AA97 -  -  -  -  
  125 D1:AA97 -  -  -  -  
  126 D1:AA97 -  -  -  -  vxFlatTriangle:
  127 D1:AA97 32 15 AC D1     ld	(IRasterRBG8), a
  128 D1:AA9B -  -  -  -  
  129 D1:AA9B 0A -  -  -  	ld	a, (bc)
  130 D1:AA9C B6 -  -  -  	or	(hl)
  131 D1:AA9D EB -  -  -  	ex	de, hl
  132 D1:AA9E B6 -  -  -  	or	(hl)
  133 D1:AA9F FD 21 FF A9 
              D1 -  -  -  	ld	iy, vxFlatPolygon
  134 D1:AAA4 C2 E9 B5 D1 	jp	nz, vxClipTriangle
  135 D1:AAA8 -  -  -  -  vxFlatTrianglePC:
  136 D1:AAA8 23 13 03 -  	inc	hl \ inc de \ inc bc
  137 D1:AAAB -  -  -  -  	
  138 D1:AAAB 1A -  -  -      ld	a, (de)
  139 D1:AAAC 96 -  -  -      sub	a, (hl)
  140 D1:AAAD 38 01 -  -      jr	c, IRasterSwap0
  141 D1:AAAF EB -  -  -      ex	de, hl
  142 D1:AAB0 -  -  -  -  IRasterSwap0:
  143 D1:AAB0 0A -  -  -      ld	a, (bc)
  144 D1:AAB1 96 -  -  -      sub	a, (hl)
  145 D1:AAB2 30 06 -  -      jr	nc, IRasterSwap1
  146 D1:AAB4 E5 -  -  -      push	hl
  147 D1:AAB5 B7 -  -  -      or	a, a
  148 D1:AAB6 ED 62 -  -      sbc	hl, hl
  149 D1:AAB8 09 -  -  -      add	hl, bc
  150 D1:AAB9 C1 -  -  -      pop	bc
  151 D1:AABA -  -  -  -  IRasterSwap1:
  152 D1:AABA 1A -  -  -      ld	a, (de)
  153 D1:AABB 96 -  -  -      sub	a, (hl)
  154 D1:AABC 30 01 -  -      jr	nc, IRasterSwap2
  155 D1:AABE EB -  -  -      ex	de, hl
  156 D1:AABF -  -  -  -  IRasterSwap2:
  157 D1:AABF -  -  -  -  
  158 D1:AABF 0A -  -  -      ld	a, (bc)
  159 D1:AAC0 96 -  -  -      sub	(hl)
  160 D1:AAC1 C8 -  -  -      ret	z
  161 D1:AAC2 -  -  -  -  
  162 D1:AAC2 DD 21 00 00 
              FF -  -  -      ld	ix, $FF0000
  163 D1:AAC7 FD 21 00 00 
              FF -  -  -      ld	iy, $FF0000
  164 D1:AACC DD 6F -  -      ld	ixl, a
  165 D1:AACE ED 44 -  -      neg
  166 D1:AAD0 32 C5 AB D1     ld	(IDeltaY0), a
  167 D1:AAD4 -  -  -  -  ; x1-x0
  168 D1:AAD4 1A -  -  -      ld	a, (de)
  169 D1:AAD5 32 AC AB D1     ld	(IValueY1), a
  170 D1:AAD9 96 -  -  -      sub	(hl)
  171 D1:AADA F5 -  -  -      push	af
  172 D1:AADB FD 6F -  -      ld	iyl, a
  173 D1:AADD ED 44 -  -      neg
  174 D1:AADF 32 D6 AB D1     ld	(IDeltaY1), a
  175 D1:AAE3 -  -  -  -  
  176 D1:AAE3 7E -  -  -      ld	a, (hl)
  177 D1:AAE4 F5 -  -  -      push	af
  178 D1:AAE5 -  -  -  -  
  179 D1:AAE5 C5 -  -  -      push	bc
  180 D1:AAE6 23 -  -  -      inc	hl
  181 D1:AAE7 ED 07 -  -      ld	bc, (hl)
  182 D1:AAE9 EB -  -  -      ex	de, hl
  183 D1:AAEA 23 -  -  -      inc	hl
  184 D1:AAEB ED 27 -  -      ld	hl, (hl)
  185 D1:AAED 22 7D AB D1     ld	(IValueX1), hl
  186 D1:AAF1 28 29 -  -      jr	z, IRasterNoEdgeWrite
  187 D1:AAF3 3E 13 -  -      ld	a, $13
  188 D1:AAF5 B7 -  -  -      or	a, a
  189 D1:AAF6 ED 42 -  -      sbc	hl, bc
  190 D1:AAF8 30 07 -  -      jr	nc, IRasterEdge1
  191 D1:AAFA F6 08 -  -      or	a, $08
  192 D1:AAFC EB -  -  -      ex	de, hl
  193 D1:AAFD ED 62 -  -      sbc	hl, hl
  194 D1:AAFF ED 52 -  -      sbc	hl, de
  195 D1:AB01 -  -  -  -  IRasterEdge1:
  196 D1:AB01 22 CE AB D1     ld	(IDeltaX1), hl
  197 D1:AB05 32 D9 AB D1     ld	(ISMC_Code1), a
  198 D1:AB09 -  -  -  -  
  199 D1:AB09 ED 13 00 -      lea	de, iy+0
  200 D1:AB0C 19 -  -  -      add	hl, de
  201 D1:AB0D EB -  -  -      ex	de, hl
  202 D1:AB0E ED 62 -  -      sbc	hl, hl
  203 D1:AB10 3F -  -  -      ccf
  204 D1:AB11 ED 52 -  -      sbc	hl, de
  205 D1:AB13 CB 2C -  -      sra	h
  206 D1:AB15 CB 1D -  -      rr	l
  207 D1:AB17 EB -  -  -      ex	de, hl
  208 D1:AB18 FD 62 -  -      ld	iyh, d
  209 D1:AB1A FD 6B -  -      ld	iyl, e
  210 D1:AB1C -  -  -  -  
  211 D1:AB1C -  -  -  -  IRasterNoEdgeWrite:
  212 D1:AB1C E1 -  -  -      pop	hl
  213 D1:AB1D -  -  -  -  
  214 D1:AB1D -  -  -  -  ; x2-x0
  215 D1:AB1D 23 -  -  -      inc	hl
  216 D1:AB1E ED 27 -  -      ld	hl, (hl)
  217 D1:AB20 22 79 AB D1     ld	(IValueX2), hl
  218 D1:AB24 3E 23 -  -      ld	a, $23			; inc hl
  219 D1:AB26 B7 -  -  -      or	a, a
  220 D1:AB27 ED 42 -  -      sbc	hl, bc
  221 D1:AB29 -  -  -  -  ; if x0>x1, edge goes to left
  222 D1:AB29 30 07 -  -      jr	nc, IRasterEdge0
  223 D1:AB2B F6 08 -  -      or	a, $08			; dec hl
  224 D1:AB2D -  -  -  -  ; edge goes to left
  225 D1:AB2D EB -  -  -      ex	de, hl
  226 D1:AB2E ED 62 -  -      sbc	hl, hl
  227 D1:AB30 ED 52 -  -      sbc	hl, de
  228 D1:AB32 -  -  -  -  IRasterEdge0:
  229 D1:AB32 22 BD AB D1     ld	(IDeltaX0), hl
  230 D1:AB36 32 C8 AB D1     ld	(ISMC_Code0), a
  231 D1:AB3A -  -  -  -  
  232 D1:AB3A ED 12 00 -      lea	de, ix+0
  233 D1:AB3D 19 -  -  -      add	hl, de
  234 D1:AB3E EB -  -  -      ex	de, hl
  235 D1:AB3F ED 62 -  -      sbc	hl, hl
  236 D1:AB41 3F -  -  -      ccf
  237 D1:AB42 ED 52 -  -      sbc	hl, de
  238 D1:AB44 CB 2C -  -      sra	h
  239 D1:AB46 CB 1D -  -      rr	l
  240 D1:AB48 EB -  -  -      ex	de, hl
  241 D1:AB49 DD 62 -  -      ld	ixh, d
  242 D1:AB4B DD 6B -  -      ld	ixl, e
  243 D1:AB4D -  -  -  -  
  244 D1:AB4D E1 -  -  -  	pop	hl
  245 D1:AB4E 2E A0 -  -  	ld	l, 160
  246 D1:AB50 ED 6C -  -  	mlt	hl
  247 D1:AB52 29 -  -  -  	add	hl, hl
  248 D1:AB53 09 -  -  -  	add	hl, bc
  249 D1:AB54 ED 5B 14 00 
              E3 -  -  -  	ld	de, (vxFramebuffer)
  250 D1:AB59 19 -  -  -  	add	hl, de
  251 D1:AB5A EB -  -  -  	ex	de, hl
  252 D1:AB5B ED 62 -  -  	sbc	hl, hl
  253 D1:AB5D 19 -  -  -  	add	hl, de
  254 D1:AB5E -  -  -  -  
  255 D1:AB5E F1 -  -  -  	pop	af
  256 D1:AB5F C4 BC AB D1 	call	nz, IRasterTriangleInner
  257 D1:AB63 -  -  -  -  
  258 D1:AB63 3A C5 AB D1 	ld	a, (IDeltaY0) ; y2-y0
  259 D1:AB67 4F -  -  -  	ld	c, a
  260 D1:AB68 3A D6 AB D1 	ld	a, (IDeltaY1)
  261 D1:AB6C 91 -  -  -  	sub	c
  262 D1:AB6D C8 -  -  -  	ret	z
  263 D1:AB6E F5 -  -  -  	push	af
  264 D1:AB6F FD 6F -  -  	ld	iyl, a
  265 D1:AB71 ED 44 -  -  	neg
  266 D1:AB73 32 D6 AB D1 	ld	(IDeltaY1), a
  267 D1:AB77 -  -  -  -  
  268 D1:AB77 E5 -  -  -  	push	hl
  269 D1:AB78 -  -  -  -  
  270 D1:AB78 -  -  -  -  IValueX2=$+1
  271 D1:AB78 21 00 00 00 	ld	hl, $000000
  272 D1:AB7C -  -  -  -  IValueX1=$+1
  273 D1:AB7C 01 00 00 00 	ld	bc, $000000
  274 D1:AB80 B7 -  -  -  	or	a, a
  275 D1:AB81 ED 42 -  -  	sbc	hl, bc
  276 D1:AB83 3E 13 -  -  	ld	a, $13
  277 D1:AB85 -  -  -  -  ; if x0>x1, edge goes to left
  278 D1:AB85 30 07 -  -  	jr	nc, IRasterEdge2
  279 D1:AB87 F6 08 -  -  	or	a, $08
  280 D1:AB89 EB -  -  -  	ex	de, hl
  281 D1:AB8A ED 62 -  -  	sbc	hl, hl
  282 D1:AB8C ED 52 -  -  	sbc	hl, de
  283 D1:AB8E -  -  -  -  IRasterEdge2:
  284 D1:AB8E 22 CE AB D1 	ld	(IDeltaX1), hl
  285 D1:AB92 32 D9 AB D1 	ld	(ISMC_Code1), a
  286 D1:AB96 -  -  -  -  
  287 D1:AB96 ED 13 00 -  	lea	de, iy+0
  288 D1:AB99 16 00 -  -  	ld	d, $00 ;compensate due to previous looping
  289 D1:AB9B 19 -  -  -  	add	hl, de
  290 D1:AB9C EB -  -  -  	ex	de, hl
  291 D1:AB9D ED 62 -  -  	sbc	hl, hl
  292 D1:AB9F 3F -  -  -  	ccf
  293 D1:ABA0 ED 52 -  -  	sbc	hl, de
  294 D1:ABA2 CB 2C -  -  	sra	h
  295 D1:ABA4 CB 1D -  -  	rr	l
  296 D1:ABA6 EB -  -  -  	ex	de, hl
  297 D1:ABA7 FD 62 -  -  	ld	iyh, d
  298 D1:ABA9 FD 6B -  -  	ld	iyl, e
  299 D1:ABAB -  -  -  -  
  300 D1:ABAB -  -  -  -  IValueY1=$+1
  301 D1:ABAB 2E 00 -  -  	ld	l, $00
  302 D1:ABAD 26 A0 -  -  	ld	h, 160
  303 D1:ABAF ED 6C -  -  	mlt	hl
  304 D1:ABB1 29 -  -  -  	add	hl, hl
  305 D1:ABB2 09 -  -  -  	add	hl, bc
  306 D1:ABB3 ED 5B 14 00 
              E3 -  -  -  	ld	de, (vxFramebuffer)
  307 D1:ABB8 19 -  -  -  	add	hl, de
  308 D1:ABB9 EB -  -  -  	ex	de, hl
  309 D1:ABBA E1 -  -  -  	pop	hl
  310 D1:ABBB -  -  -  -  
  311 D1:ABBB -  -  -  -  ;	ld	a, (IDeltaY1)
  312 D1:ABBB -  -  -  -  ;	neg
  313 D1:ABBB F1 -  -  -  	pop	af
  314 D1:ABBC -  -  -  -  IRasterTriangleInner:
  315 D1:ABBC -  -  -  -  IDeltaX0=$+1
  316 D1:ABBC 01 00 00 00 	ld	bc, $000000
  317 D1:ABC0 DD 09 -  -  	add	ix, bc
  318 D1:ABC2 30 09 -  -  	jr	nc, $+11
  319 D1:ABC4 -  -  -  -  IDeltaY0=$+1
  320 D1:ABC4 01 00 FF FF 	ld	bc, $FFFF00
  321 D1:ABC8 -  -  -  -  ISMC_Code0=$
  322 D1:ABC8 00 -  -  -  	nop
  323 D1:ABC9 DD 09 -  -  	add	ix, bc
  324 D1:ABCB 38 FB -  -  	jr	c, $-3
  325 D1:ABCD -  -  -  -  
  326 D1:ABCD -  -  -  -  IDeltaX1=$+1
  327 D1:ABCD 01 00 00 00 	ld	bc, $000000
  328 D1:ABD1 FD 09 -  -  	add	iy, bc
  329 D1:ABD3 30 0B -  -  	jr	nc, $+13
  330 D1:ABD5 -  -  -  -  IDeltaY1=$+1
  331 D1:ABD5 01 00 FF FF 	ld	bc, $FFFF00
  332 D1:ABD9 -  -  -  -  ISMC_Code1=$
  333 D1:ABD9 00 -  -  -  	nop
  334 D1:ABDA FD 09 -  -  	add	iy, bc
  335 D1:ABDC 38 FB -  -  	jr	c, $-3
  336 D1:ABDE 52 03 -  -  	inc.s	bc ;reset bcu set by restoring ld bc,$FFxxxx
  337 D1:ABE0 -  -  -  -  
  338 D1:ABE0 -  -  -  -  ; hl = adress1, de = adress2
  339 D1:ABE0 ED 52 -  -  	sbc	hl, de
  340 D1:ABE2 38 2F -  -  	jr	c, IRasterInverted
  341 D1:ABE4 28 21 -  -  	jr	z, IRasterNoPixel
  342 D1:ABE6 44 -  -  -  	ld	b, h
  343 D1:ABE7 4D -  -  -  	ld	c, l
  344 D1:ABE8 -  -  -  -  
  345 D1:ABE8 21 15 AC D1 	ld	hl, IRasterRBG8
  346 D1:ABEC ED A0 -  -  	ldi
  347 D1:ABEE E2 04 AC D1 	jp	po, IRasterContinue
  348 D1:ABF2 37 -  -  -  	scf
  349 D1:ABF3 ED 62 -  -  	sbc	hl, hl
  350 D1:ABF5 19 -  -  -  	add	hl, de
  351 D1:ABF6 E5 -  -  -  	push	hl
  352 D1:ABF7 ED B0 -  -  	ldir
  353 D1:ABF9 E1 -  -  -  	pop	hl
  354 D1:ABFA -  -  -  -  
  355 D1:ABFA 0E 40 -  -  	ld	c, 64
  356 D1:ABFC 04 -  -  -  	inc	b
  357 D1:ABFD 09 -  -  -  	add	hl, bc
  358 D1:ABFE EB -  -  -  	ex	de, hl
  359 D1:ABFF 09 -  -  -  	add	hl, bc
  360 D1:AC00 3D -  -  -  	dec	a
  361 D1:AC01 20 B9 -  -  	jr	nz,IRasterTriangleInner
  362 D1:AC03 C9 -  -  -  	ret
  363 D1:AC04 -  -  -  -  IRasterContinue:
  364 D1:AC04 37 -  -  -  	scf
  365 D1:AC05 ED 62 -  -  	sbc	hl, hl
  366 D1:AC07 -  -  -  -  IRasterNoPixel:
  367 D1:AC07 19 -  -  -  	add	hl, de
  368 D1:AC08 01 40 01 00 	ld	bc, 320
  369 D1:AC0C 09 -  -  -  	add	hl, bc
  370 D1:AC0D EB -  -  -  	ex	de, hl
  371 D1:AC0E 09 -  -  -  	add	hl, bc
  372 D1:AC0F 3D -  -  -  	dec	a
  373 D1:AC10 20 AA -  -  	jr	nz,IRasterTriangleInner
  374 D1:AC12 C9 -  -  -  	ret
  375 D1:AC13 -  -  -  -  IRasterInverted:
  376 D1:AC13 19 -  -  -  	add	hl, de
  377 D1:AC14 -  -  -  -  ; hl --- de
  378 D1:AC14 -  -  -  -  IRasterRBG8=$+1
  379 D1:AC14 36 00 -  -  	ld	(hl), $00
  380 D1:AC16 EB -  -  -  	ex	de, hl
  381 D1:AC17 -  -  -  -  ; carry is set
  382 D1:AC17 ED 52 -  -  	sbc	hl, de
  383 D1:AC19 44 -  -  -  	ld	b, h
  384 D1:AC1A 4D -  -  -  	ld	c, l
  385 D1:AC1B 19 -  -  -  	add	hl, de
  386 D1:AC1C 28 08 -  -  	jr	z, IRasterSize1
  387 D1:AC1E D5 -  -  -  	push	de
  388 D1:AC1F ED 62 -  -  	sbc	hl, hl
  389 D1:AC21 19 -  -  -  	add	hl, de
  390 D1:AC22 13 -  -  -  	inc	de
  391 D1:AC23 ED B0 -  -  	ldir
  392 D1:AC25 D1 -  -  -  	pop	de
  393 D1:AC26 -  -  -  -  IRasterSize1:
  394 D1:AC26 23 -  -  -  	inc	hl
  395 D1:AC27 -  -  -  -  
  396 D1:AC27 0E 40 -  -  	ld	c, 64
  397 D1:AC29 04 -  -  -  	inc	b
  398 D1:AC2A 09 -  -  -  	add	hl, bc
  399 D1:AC2B EB -  -  -  	ex	de, hl
  400 D1:AC2C 09 -  -  -  	add	hl, bc
  401 D1:AC2D 3D -  -  -  	dec	a
  402 D1:AC2E 20 8C -  -  	jr	nz, IRasterTriangleInner
  403 D1:AC30 C9 -  -  -  	ret
Listing for file "C:\Users\Zeromus\Documents\GitHub\Virtual3D\vxMain.ez80"
    3 D1:AC31 -  -  -  -  #include	"vxMatrix.ez80"
Listing for file "C:\Users\Zeromus\Documents\GitHub\Virtual3D\vxMatrix.ez80"
    1 D1:AC31 -  -  -  -  #define	VX_MATRIX_SIZE	18
    2 D1:AC31 -  -  -  -  
    3 D1:AC31 -  -  -  -  vxIdentityMatrix:
    4 D1:AC31 40 00 00 -  .db	64,0,0
    5 D1:AC34 00 40 00 -  .db	0,64,0
    6 D1:AC37 00 00 40 -  .db	0,0,64
    7 D1:AC3A 00 00 00 00 
              00 00 00 00 
              00 -  -  -  .dl	0,0,0
    8 D1:AC43 -  -  -  -  
    9 D1:AC43 -  -  -  -  vxMatrixLoadIdentity:
   10 D1:AC43 -  -  -  -  ; input : hl matrix
   11 D1:AC43 EB -  -  -  	ex	de, hl
   12 D1:AC44 21 31 AC D1 	ld	hl, vxIdentityMatrix
   13 D1:AC48 01 12 00 00 	ld	bc, VX_MATRIX_SIZE
   14 D1:AC4C ED B0 -  -  	ldir
   15 D1:AC4E EB -  -  -  	ex	de, hl
   16 D1:AC4F 01 EE FF FF 	ld	bc, -VX_MATRIX_SIZE
   17 D1:AC53 09 -  -  -  	add	hl, bc
   18 D1:AC54 C9 -  -  -  	ret
   19 D1:AC55 -  -  -  -  vxMatrixRotationX:
   20 D1:AC55 -  -  -  -  #comment
   21 D1:AC55             	ld	a, l
   22 D1:AC55             	ld	hl, ISIN_TABLE
   23 D1:AC55             	ld	l, a
   24 D1:AC55             	ld	a, (hl)
   25 D1:AC55             	ld	(ix+7), a
   26 D1:AC55             	neg
   27 D1:AC55             	ld	(ix+5), a
   28 D1:AC55             	ld	a, l
   29 D1:AC55             	add	a, 64
   30 D1:AC55             	ld	l, a
   31 D1:AC55             	ld	c, (hl)
   32 D1:AC55             	ld	(ix+4), c
   33 D1:AC55             	ld	(ix+8), c
   34 D1:AC55             	ld	a, 64
   35 D1:AC55             	ld	(ix+0), a
   36 D1:AC55             	xor	a, a
   37 D1:AC55             	ld	(ix+1), a
   38 D1:AC55             	ld	(ix+2), a
   39 D1:AC55             	ld	(ix+3), a
   40 D1:AC55             	ld	(ix+6), a
   41 D1:AC55             #endcomment
   42 D1:AC55 E5 -  -  -  	push	hl
   43 D1:AC56 CD BE B1 D1 	call	vxSin
   44 D1:AC5A 7C -  -  -  	ld	a, h
   45 D1:AC5B DD 77 07 -  	ld	(ix+7), a
   46 D1:AC5E ED 44 -  -  	neg
   47 D1:AC60 DD 77 05 -  	ld	(ix+5), a
   48 D1:AC63 E1 -  -  -  	pop	hl
   49 D1:AC64 CD BD B1 D1 	call	vxCos
   50 D1:AC68 DD 74 04 -  	ld	(ix+4), h
   51 D1:AC6B DD 74 08 -  	ld	(ix+8), h
   52 D1:AC6E 3E 40 -  -  	ld	a, 64
   53 D1:AC70 DD 77 00 -  	ld	(ix+0), a
   54 D1:AC73 AF -  -  -  	xor	a, a
   55 D1:AC74 DD 77 01 -  	ld	(ix+1), a
   56 D1:AC77 DD 77 02 -  	ld	(ix+2), a
   57 D1:AC7A DD 77 03 -  	ld	(ix+3), a
   58 D1:AC7D DD 77 06 -  	ld	(ix+6), a
   59 D1:AC80 C9 -  -  -  	ret
   60 D1:AC81 -  -  -  -  vxMatrixRotationZ:
   61 D1:AC81 -  -  -  -  #comment
   62 D1:AC81             	ld	a, l
   63 D1:AC81             	ld	hl, ISIN_TABLE
   64 D1:AC81             	ld	l, a
   65 D1:AC81             	ld	a, (hl)
   66 D1:AC81             	ld	(ix+3), a
   67 D1:AC81             	neg
   68 D1:AC81             	ld	(ix+1), a
   69 D1:AC81             	ld	a, l
   70 D1:AC81             	add	a, 64
   71 D1:AC81             	ld	l, a
   72 D1:AC81             	ld	c, (hl)
   73 D1:AC81             	ld	(ix+0), c
   74 D1:AC81             	ld	(ix+4), c
   75 D1:AC81             	ld	a, 64
   76 D1:AC81             	ld	(ix+8), a
   77 D1:AC81             	xor	a, a
   78 D1:AC81             	ld	(ix+2), a
   79 D1:AC81             	ld	(ix+6), a
   80 D1:AC81             	ld	(ix+7), a
   81 D1:AC81             	ld	(ix+5), a
   82 D1:AC81             #endcomment
   83 D1:AC81 E5 -  -  -  	push	hl
   84 D1:AC82 CD BE B1 D1 	call	vxSin
   85 D1:AC86 7C -  -  -  	ld	a, h
   86 D1:AC87 DD 77 03 -  	ld	(ix+3), a
   87 D1:AC8A ED 44 -  -  	neg
   88 D1:AC8C DD 77 01 -  	ld	(ix+1), a
   89 D1:AC8F E1 -  -  -  	pop	hl
   90 D1:AC90 CD BD B1 D1 	call	vxCos
   91 D1:AC94 DD 74 00 -  	ld	(ix+0), h
   92 D1:AC97 DD 74 04 -  	ld	(ix+4), h
   93 D1:AC9A 3E 40 -  -  	ld	a, 64
   94 D1:AC9C DD 77 08 -  	ld	(ix+8), a
   95 D1:AC9F AF -  -  -  	xor	a, a
   96 D1:ACA0 DD 77 02 -  	ld	(ix+2), a
   97 D1:ACA3 DD 77 06 -  	ld	(ix+6), a
   98 D1:ACA6 DD 77 07 -  	ld	(ix+7), a
   99 D1:ACA9 DD 77 05 -  	ld	(ix+5), a
  100 D1:ACAC C9 -  -  -  	ret
  101 D1:ACAD -  -  -  -  vxMatrixRotationY:
  102 D1:ACAD E5 -  -  -  	push	hl
  103 D1:ACAE CD BE B1 D1 	call	vxSin
  104 D1:ACB2 7C -  -  -  	ld	a, h
  105 D1:ACB3 DD 77 02 -  	ld	(ix+2), a
  106 D1:ACB6 ED 44 -  -  	neg
  107 D1:ACB8 DD 77 06 -  	ld	(ix+6), a
  108 D1:ACBB E1 -  -  -  	pop	hl
  109 D1:ACBC CD BD B1 D1 	call	vxCos
  110 D1:ACC0 DD 74 00 -  	ld	(ix+0), h
  111 D1:ACC3 DD 74 08 -  	ld	(ix+8), h
  112 D1:ACC6 3E 40 -  -  	ld	a, 64
  113 D1:ACC8 DD 77 04 -  	ld	(ix+4), a
  114 D1:ACCB AF -  -  -  	xor	a, a
  115 D1:ACCC DD 77 01 -  	ld	(ix+1), a
  116 D1:ACCF DD 77 03 -  	ld	(ix+3), a
  117 D1:ACD2 DD 77 05 -  	ld	(ix+5), a
  118 D1:ACD5 DD 77 07 -  	ld	(ix+7), a
  119 D1:ACD8 C9 -  -  -  	ret
  120 D1:ACD9 -  -  -  -  vxMatrixMlt:
  121 D1:ACD9 -  -  -  -  ; (hl) = (iy) * (ix)
  122 D1:ACD9 -  -  -  -  ; 116 bytes, ~3800 TStates
  123 D1:ACD9 EB -  -  -  	ex	de, hl
  124 D1:ACDA 01 00 03 00 	ld	bc, 768
  125 D1:ACDE -  -  -  -  vxMatrixColLoop:
  126 D1:ACDE C5 -  -  -  	push	bc
  127 D1:ACDF 06 03 -  -  	ld	b, 3
  128 D1:ACE1 -  -  -  -  vxMatrixRowLoop:
  129 D1:ACE1 C5 -  -  -  	push	bc
  130 D1:ACE2 DD 66 00 -  	ld	h, (ix+0)
  131 D1:ACE5 FD 6E 00 -  	ld	l, (iy+0)
  132 D1:ACE8 AF -  -  -  	xor	a, a
  133 D1:ACE9 CB 7C 28 01 
              95 -  -  -  	bit	7, h \ jr z, $+3 \ sub a, l
  134 D1:ACEE CB 7D 28 01 
              94 -  -  -  	bit	7, l \ jr z, $+3 \ sub a, h
  135 D1:ACF3 ED 6C -  -  	mlt	hl
  136 D1:ACF5 DD 46 01 -  	ld	b, (ix+1)
  137 D1:ACF8 FD 4E 03 -  	ld	c, (iy+3)
  138 D1:ACFB CB 78 28 01 
              91 -  -  -  	bit	7, b \ jr z, $+3 \ sub a, c
  139 D1:AD00 CB 79 28 01 
              90 -  -  -  	bit	7, c \ jr z, $+3 \ sub a, b
  140 D1:AD05 ED 4C -  -  	mlt	bc
  141 D1:AD07 09 -  -  -  	add	hl, bc
  142 D1:AD08 DD 46 02 -  	ld	b, (ix+2)
  143 D1:AD0B FD 4E 06 -  	ld	c, (iy+6)
  144 D1:AD0E CB 78 28 01 
              91 -  -  -  	bit	7, b \ jr z, $+3 \ sub a, c
  145 D1:AD13 CB 79 28 01 
              90 -  -  -  	bit	7, c \ jr z, $+3 \ sub a, b
  146 D1:AD18 ED 4C -  -  	mlt	bc
  147 D1:AD1A 09 -  -  -  	add	hl, bc
  148 D1:AD1B 47 -  -  -  	ld	b, a
  149 D1:AD1C AF -  -  -  	xor	a, a
  150 D1:AD1D 4F -  -  -  	ld	c, a
  151 D1:AD1E 09 -  -  -  	add	hl, bc
  152 D1:AD1F 29 -  -  -  	add	hl, hl
  153 D1:AD20 29 -  -  -  	add	hl, hl
  154 D1:AD21 7C -  -  -  	ld	a, h
  155 D1:AD22 12 -  -  -  	ld	(de), a
  156 D1:AD23 13 -  -  -  	inc	de
  157 D1:AD24 FD 23 -  -  	inc	iy
  158 D1:AD26 C1 -  -  -  	pop	bc
  159 D1:AD27 10 B8 -  -  	djnz	vxMatrixRowLoop
  160 D1:AD29 ED 32 03 -  	lea	ix, ix+3
  161 D1:AD2C ED 33 FD -  	lea	iy, iy-3
  162 D1:AD2F C1 -  -  -  	pop	bc
  163 D1:AD30 10 AC -  -  	djnz	vxMatrixColLoop
  164 D1:AD32 ED 32 F7 -  	lea	ix, ix-9
  165 D1:AD35 EB -  -  -  	ex	de, hl
  166 D1:AD36 01 F7 FF FF 	ld	bc, -9
  167 D1:AD3A 09 -  -  -  	add	hl, bc
  168 D1:AD3B C9 -  -  -  	ret
  169 D1:AD3C -  -  -  -  vxMatrixTransform:
  170 D1:AD3C -  -  -  -  ; (hl) = (iy)*(ix) with translation
  171 D1:AD3C -  -  -  -  ; iy is a animation matrix, ix is a world matrix, hl is world matrix
  172 D1:AD3C E5 -  -  -  	push	hl
  173 D1:AD3D ED 33 09 -  	lea	iy, iy+9	; load up the translation of matrix 0
  174 D1:AD40 CD E1 AD D1 	call	vxfTransform
  175 D1:AD44 ED 33 F7 -  	lea	iy, iy-9
  176 D1:AD47 E1 -  -  -  	pop	hl
  177 D1:AD48 CD D9 AC D1 	call	vxMatrixMlt
  178 D1:AD4C -  -  -  -  ; copy translation data to result (hl)
  179 D1:AD4C 01 09 00 00 	ld	bc, 9
  180 D1:AD50 09 -  -  -  	add	hl, bc
  181 D1:AD51 11 06 34 D0 	ld	de, vxPosition
  182 D1:AD55 EB -  -  -  	ex	de, hl
  183 D1:AD56 ED B0 -  -  	ldir
  184 D1:AD58 01 EE FF FF 	ld	bc, -VX_MATRIX_SIZE
  185 D1:AD5C EB -  -  -  	ex	de, hl
  186 D1:AD5D 09 -  -  -  	add	hl, bc
  187 D1:AD5E C9 -  -  -  	ret
  188 D1:AD5F -  -  -  -  vxMatrixTranspose:
  189 D1:AD5F -  -  -  -  ; 192 TStates + translation
  190 D1:AD5F DD 4E 03 -  	ld	c, (ix+3)
  191 D1:AD62 DD 7E 01 -  	ld	a, (ix+1)
  192 D1:AD65 DD 77 03 -  	ld	(ix+3), a
  193 D1:AD68 DD 71 01 -  	ld	(ix+1), c
  194 D1:AD6B DD 4E 06 -  	ld	c, (ix+6)
  195 D1:AD6E DD 7E 02 -  	ld	a, (ix+2)
  196 D1:AD71 DD 77 06 -  	ld	(ix+6), a
  197 D1:AD74 DD 71 02 -  	ld	(ix+2), c
  198 D1:AD77 DD 4E 07 -  	ld	c, (ix+7)
  199 D1:AD7A DD 7E 05 -  	ld	a, (ix+5)
  200 D1:AD7D DD 77 07 -  	ld	(ix+7), a
  201 D1:AD80 DD 71 05 -  	ld	(ix+5), c	
  202 D1:AD83 -  -  -  -  #comment
  203 D1:AD83             	ld	de, (ix+9)
  204 D1:AD83             	or	a, a
  205 D1:AD83             	sbc	hl, hl
  206 D1:AD83             	sbc	hl, de
  207 D1:AD83             	ld	(ix+9), hl
  208 D1:AD83             	ld	de, (ix+12)
  209 D1:AD83             	or	a, a
  210 D1:AD83             	sbc	hl, hl
  211 D1:AD83             	sbc	hl, de
  212 D1:AD83             	ld	(ix+12), hl
  213 D1:AD83             	ld	de, (ix+15)
  214 D1:AD83             	or	a, a
  215 D1:AD83             	sbc	hl, hl
  216 D1:AD83             	sbc	hl, de
  217 D1:AD83             	ld	(ix+15), hl
  218 D1:AD83             #endcomment
  219 D1:AD83 C9 -  -  -  	ret
  220 D1:AD84 -  -  -  -  vxMatrixLightning:
  221 D1:AD84 EB -  -  -  	ex	de, hl
  222 D1:AD85 06 03 -  -  	ld	b, 3
  223 D1:AD87 -  -  -  -  vxMatrixLightLoop:
  224 D1:AD87 C5 -  -  -  	push	bc
  225 D1:AD88 D5 -  -  -  	push	de
  226 D1:AD89 CD F1 B2 D1 	call	vxDotProduct
  227 D1:AD8D D1 -  -  -  	pop	de
  228 D1:AD8E 29 -  -  -  	add	hl, hl
  229 D1:AD8F 29 -  -  -  	add	hl, hl
  230 D1:AD90 7C -  -  -  	ld	a, h
  231 D1:AD91 12 -  -  -  	ld	(de), a
  232 D1:AD92 13 -  -  -  	inc	de
  233 D1:AD93 ED 32 03 -  	lea	ix, ix+3
  234 D1:AD96 C1 -  -  -  	pop	bc
  235 D1:AD97 10 EE -  -  	djnz	vxMatrixLightLoop
  236 D1:AD99 ED 32 F7 -  	lea	ix, ix-9
  237 D1:AD9C D5 -  -  -  	push	de
  238 D1:AD9D FD 27 04 -  	ld	hl, (iy+VX_LIGHT_POSITION)
  239 D1:ADA0 FD 17 07 -  	ld	de, (iy+VX_LIGHT_POSITION+3)
  240 D1:ADA3 B7 -  -  -  	or	a, a
  241 D1:ADA4 ED 52 -  -  	sbc	hl, de
  242 D1:ADA6 E1 -  -  -  	pop	hl
  243 D1:ADA7 28 30 -  -  	jr	z, vxMatrixLightEarlyOut
  244 D1:ADA9 2B 2B 2B -  	dec	hl \ dec hl \ dec hl
  245 D1:ADAC E5 -  -  -  	push	hl
  246 D1:ADAD -  -  -  -  ; transform lightning position
  247 D1:ADAD CD E1 AD D1 	call	vxfTransform
  248 D1:ADB1 -  -  -  -  ; fetch value and divide them
  249 D1:ADB1 -  -  -  -  ; value should be copied to (hl)	
  250 D1:ADB1 E1 -  -  -  	pop	hl
  251 D1:ADB2 01 07 00 00 	ld	bc, VX_LIGHT_POSITION+3
  252 D1:ADB6 09 -  -  -  	add	hl, bc
  253 D1:ADB7 EB -  -  -  	ex	de, hl
  254 D1:ADB8 -  -  -  -  ; de = adress of position.
  255 D1:ADB8 2A 0C 34 D0 	ld	hl, (vxPosition+6)
  256 D1:ADBC 29 -  -  -  	add	hl, hl
  257 D1:ADBD 29 -  -  -  	add	hl, hl
  258 D1:ADBE -  -  -  -  ; copy hlu, h to (de)
  259 D1:ADBE EB -  -  -  	ex	de, hl
  260 D1:ADBF ED 1F -  -  	ld	(hl), de
  261 D1:ADC1 2B -  -  -  	dec	hl
  262 D1:ADC2 2B -  -  -  	dec	hl	
  263 D1:ADC3 EB -  -  -  	ex	de, hl
  264 D1:ADC4 2A 09 34 D0 	ld	hl, (vxPosition+3)
  265 D1:ADC8 29 -  -  -  	add	hl, hl
  266 D1:ADC9 29 -  -  -  	add	hl, hl
  267 D1:ADCA EB -  -  -  	ex	de, hl
  268 D1:ADCB ED 1F -  -  	ld	(hl), de
  269 D1:ADCD 2B -  -  -  	dec	hl
  270 D1:ADCE 2B -  -  -  	dec	hl
  271 D1:ADCF EB -  -  -  	ex	de, hl
  272 D1:ADD0 2A 06 34 D0 	ld	hl, (vxPosition)
  273 D1:ADD4 29 -  -  -  	add	hl, hl
  274 D1:ADD5 29 -  -  -  	add	hl, hl
  275 D1:ADD6 EB -  -  -  	ex	de, hl
  276 D1:ADD7 ED 1F -  -  	ld	(hl), de
  277 D1:ADD9 -  -  -  -  ; AMBIANT_VALUE was writed with bad value.
  278 D1:ADD9 -  -  -  -  vxMatrixLightEarlyOut:
  279 D1:ADD9 FD 7E 03 -  	ld	a, (iy+VX_LIGHT_AMBIANT)
  280 D1:ADDC 77 -  -  -  	ld	(hl), a
  281 D1:ADDD 2B 2B 2B -  	dec	hl \ dec hl \ dec hl
  282 D1:ADE0 C9 -  -  -  	ret
  283 D1:ADE1 -  -  -  -  vxfTransform:
  284 D1:ADE1 -  -  -  -  ; input : iy vector, ix matrix
  285 D1:ADE1 -  -  -  -  ; [ix+0]*[iy]+[ix+1]*[iy+2]+[ix+2]*[iy+4]+[ix+9]=x
  286 D1:ADE1 -  -  -  -  ; [ix+3]*[iy]+[ix+4]*[iy+2]+{ix+5]*[iy+4]+[ix+12]=y
  287 D1:ADE1 -  -  -  -  ; [ix+6]*[iy]+[ix+7]*[iy+2]+[ix+8]*[iy+4]+[ix+15]=z
  288 D1:ADE1 -  -  -  -  ; From 1566+x? TStates to 1654 TStates, 333 bytes
  289 D1:ADE1 -  -  -  -  ; X coordinate
  290 D1:ADE1 FD 07 00 -  	ld	bc, (iy+0)
  291 D1:ADE4 DD 27 09 -  	ld	hl, (ix+9)
  292 D1:ADE7 DD 7E 00 -  	ld	a, (ix+0)
  293 D1:ADEA EB 60 6F ED 
              6C FE 80 38 
              02 ED 42 CB 
              78 47 28 03 
              2F 8C 67 29 
              29 29 29 29 
              29 29 29 ED 
              4C 09 19 -  	madd
Listing for file "C:\Users\Zeromus\Documents\GitHub\Virtual3D\vx3D.inc"
Listing for file "C:\Users\Zeromus\Documents\GitHub\Virtual3D\vxMatrix.ez80"
  294 D1:AE09 DD 7E 01 -  	ld	a, (ix+1)
  295 D1:AE0C FD 07 02 -  	ld	bc, (iy+2)
  296 D1:AE0F EB 60 6F ED 
              6C FE 80 38 
              02 ED 42 CB 
              78 47 28 03 
              2F 8C 67 29 
              29 29 29 29 
              29 29 29 ED 
              4C 09 19 -  	madd
Listing for file "C:\Users\Zeromus\Documents\GitHub\Virtual3D\vx3D.inc"
Listing for file "C:\Users\Zeromus\Documents\GitHub\Virtual3D\vxMatrix.ez80"
  297 D1:AE2E DD 7E 02 -  	ld	a, (ix+2)
  298 D1:AE31 FD 07 04 -  	ld	bc, (iy+4)
  299 D1:AE34 51 5F ED 5C 
              19 EB 60 6F 
              ED 6C FE 80 
              38 02 ED 42 
              CB 78 28 03 
              2F 8C 67 29 
              29 29 29 29 
              29 29 29 19 	madd.f
Listing for file "C:\Users\Zeromus\Documents\GitHub\Virtual3D\vx3D.inc"
Listing for file "C:\Users\Zeromus\Documents\GitHub\Virtual3D\vxMatrix.ez80"
  300 D1:AE54 22 06 34 D0 	ld	(vxPosition), hl
  301 D1:AE58 -  -  -  -  ; Y coordinate
  302 D1:AE58 DD 27 0C -  	ld	hl, (ix+12)
  303 D1:AE5B DD 7E 05 -  	ld	a, (ix+5)
  304 D1:AE5E EB 60 6F ED 
              6C FE 80 38 
              02 ED 42 CB 
              78 47 28 03 
              2F 8C 67 29 
              29 29 29 29 
              29 29 29 ED 
              4C 09 19 -  	madd
Listing for file "C:\Users\Zeromus\Documents\GitHub\Virtual3D\vx3D.inc"
Listing for file "C:\Users\Zeromus\Documents\GitHub\Virtual3D\vxMatrix.ez80"
  305 D1:AE7D DD 7E 04 -  	ld	a, (ix+4)
  306 D1:AE80 FD 07 02 -  	ld	bc, (iy+2)
  307 D1:AE83 EB 60 6F ED 
              6C FE 80 38 
              02 ED 42 CB 
              78 47 28 03 
              2F 8C 67 29 
              29 29 29 29 
              29 29 29 ED 
              4C 09 19 -  	madd
Listing for file "C:\Users\Zeromus\Documents\GitHub\Virtual3D\vx3D.inc"
Listing for file "C:\Users\Zeromus\Documents\GitHub\Virtual3D\vxMatrix.ez80"
  308 D1:AEA2 DD 7E 03 -  	ld	a, (ix+3)
  309 D1:AEA5 FD 07 00 -  	ld	bc, (iy+0)
  310 D1:AEA8 51 5F ED 5C 
              19 EB 60 6F 
              ED 6C FE 80 
              38 02 ED 42 
              CB 78 28 03 
              2F 8C 67 29 
              29 29 29 29 
              29 29 29 19 	madd.f
Listing for file "C:\Users\Zeromus\Documents\GitHub\Virtual3D\vx3D.inc"
Listing for file "C:\Users\Zeromus\Documents\GitHub\Virtual3D\vxMatrix.ez80"
  311 D1:AEC8 22 09 34 D0 	ld	(vxPosition+3), hl
  312 D1:AECC -  -  -  -  ; Z coordinate
  313 D1:AECC DD 27 0F -  	ld	hl, (ix+15)
  314 D1:AECF DD 7E 06 -  	ld	a, (ix+6)
  315 D1:AED2 EB 60 6F ED 
              6C FE 80 38 
              02 ED 42 CB 
              78 47 28 03 
              2F 8C 67 29 
              29 29 29 29 
              29 29 29 ED 
              4C 09 19 -  	madd
Listing for file "C:\Users\Zeromus\Documents\GitHub\Virtual3D\vx3D.inc"
Listing for file "C:\Users\Zeromus\Documents\GitHub\Virtual3D\vxMatrix.ez80"
  316 D1:AEF1 DD 7E 07 -  	ld	a, (ix+7)
  317 D1:AEF4 FD 07 02 -  	ld	bc, (iy+2)
  318 D1:AEF7 EB 60 6F ED 
              6C FE 80 38 
              02 ED 42 CB 
              78 47 28 03 
              2F 8C 67 29 
              29 29 29 29 
              29 29 29 ED 
              4C 09 19 -  	madd
Listing for file "C:\Users\Zeromus\Documents\GitHub\Virtual3D\vx3D.inc"
Listing for file "C:\Users\Zeromus\Documents\GitHub\Virtual3D\vxMatrix.ez80"
  319 D1:AF16 DD 7E 08 -  	ld	a, (ix+8)
  320 D1:AF19 FD 07 04 -  	ld	bc, (iy+4)
  321 D1:AF1C EB 60 6F ED 
              6C FE 80 38 
              02 ED 42 CB 
              78 47 28 03 
              2F 8C 67 29 
              29 29 29 29 
              29 29 29 ED 
              4C 09 19 -  	madd
Listing for file "C:\Users\Zeromus\Documents\GitHub\Virtual3D\vx3D.inc"
Listing for file "C:\Users\Zeromus\Documents\GitHub\Virtual3D\vxMatrix.ez80"
  322 D1:AF3B 22 0C 34 D0 	ld	(vxPosition+6), hl
  323 D1:AF3F C9 -  -  -  	ret
Listing for file "C:\Users\Zeromus\Documents\GitHub\Virtual3D\vxMain.ez80"
    4 D1:AF40 -  -  -  -  #include	"vxQuaternion.ez80"
Listing for file "C:\Users\Zeromus\Documents\GitHub\Virtual3D\vxQuaternion.ez80"
    1 D1:AF40 -  -  -  -  ; Quaternions utility functions
    2 D1:AF40 -  -  -  -  
    3 D1:AF40 -  -  -  -  #define VX_QUATERNION_SIZE    $0C
    4 D1:AF40 -  -  -  -  #define VX_QW                 $0
    5 D1:AF40 -  -  -  -  #define VX_QX                 $3
    6 D1:AF40 -  -  -  -  #define VX_QY                 $6
    7 D1:AF40 -  -  -  -  #define VX_QZ                 $9
    8 D1:AF40 -  -  -  -  
    9 D1:AF40 -  -  -  -  vxIdentityQuaternion:
   10 D1:AF40 00 40 00 -  .dl	$004000
   11 D1:AF43 00 00 00 -  .dl	$000000
   12 D1:AF46 00 00 00 -  .dl	$000000
   13 D1:AF49 00 00 00 -  .dl	$000000
   14 D1:AF4C -  -  -  -  
   15 D1:AF4C -  -  -  -  vxQuaternionLoadIdentity:
   16 D1:AF4C EB -  -  -  	ex	de, hl
   17 D1:AF4D 21 40 AF D1 	ld	hl, vxIdentityQuaternion
   18 D1:AF51 01 0C 00 00 	ld	bc, VX_QUATERNION_SIZE
   19 D1:AF55 ED B0 -  -  	ldir
   20 D1:AF57 EB -  -  -  	ex	de, hl
   21 D1:AF58 01 F4 FF FF 	ld	bc, -VX_QUATERNION_SIZE
   22 D1:AF5C 09 -  -  -  	add	hl, bc
   23 D1:AF5D C9 -  -  -  	ret
   24 D1:AF5E -  -  -  -  vxQuaternionLoadRotation:
   25 D1:AF5E C9 -  -  -  	ret
   26 D1:AF5F -  -  -  -  vxQuaternionMlt:
   27 D1:AF5F -  -  -  -  ; untested
   28 D1:AF5F DD 27 09 -  	ld	hl, (ix+VX_QZ)
   29 D1:AF62 FD 17 09 -  	ld	de, (iy+VX_QZ)
   30 D1:AF65 CD 9A B1 D1 	call	vxQuatMlt
   31 D1:AF69 E5 -  -  -  	push	hl
   32 D1:AF6A DD 27 03 -  	ld	hl, (ix+VX_QX)
   33 D1:AF6D FD 17 03 -  	ld	de, (iy+VX_QX)
   34 D1:AF70 CD 9A B1 D1 	call	vxQuatMlt
   35 D1:AF74 E5 -  -  -  	push	hl
   36 D1:AF75 DD 27 06 -  	ld	hl, (ix+VX_QY)
   37 D1:AF78 FD 17 06 -  	ld	de, (iy+VX_QY)
   38 D1:AF7B CD 9A B1 D1 	call	vxQuatMlt
   39 D1:AF7F E5 -  -  -  	push	hl
   40 D1:AF80 DD 27 00 -  	ld	hl, (ix+VX_QW)
   41 D1:AF83 FD 17 00 -  	ld	de, (iy+VX_QW)
   42 D1:AF86 CD 9A B1 D1 	call	vxQuatMlt
   43 D1:AF8A D1 -  -  -  	pop	de
   44 D1:AF8B B7 -  -  -  	or	a, a
   45 D1:AF8C ED 52 -  -  	sbc	hl, de
   46 D1:AF8E D1 -  -  -  	pop	de
   47 D1:AF8F B7 -  -  -  	or	a, a
   48 D1:AF90 ED 52 -  -  	sbc	hl, de
   49 D1:AF92 D1 -  -  -  	pop	de
   50 D1:AF93 B7 -  -  -  	or	a, a
   51 D1:AF94 ED 52 -  -  	sbc	hl, de
   52 D1:AF96 -  -  -  -  ; got VX_QW
   53 D1:AF96 E5 -  -  -  	push	hl
   54 D1:AF97 DD 27 00 -  	ld	hl, (ix+VX_QW)
   55 D1:AF9A FD 17 03 -  	ld	de, (iy+VX_QX)
   56 D1:AF9D CD 9A B1 D1 	call	vxQuatMlt
   57 D1:AFA1 E5 -  -  -  	push	hl
   58 D1:AFA2 DD 27 03 -  	ld	hl, (ix+VX_QX)
   59 D1:AFA5 FD 17 00 -  	ld	de, (iy+VX_QW)
   60 D1:AFA8 CD 9A B1 D1 	call	vxQuatMlt
   61 D1:AFAC E5 -  -  -  	push	hl
   62 D1:AFAD DD 27 09 -  	ld	hl, (ix+VX_QZ)
   63 D1:AFB0 FD 17 06 -  	ld	de, (iy+VX_QY)
   64 D1:AFB3 CD 9A B1 D1 	call	vxQuatMlt
   65 D1:AFB7 E5 -  -  -  	push	hl
   66 D1:AFB8 DD 27 06 -  	ld	hl, (ix+VX_QY)
   67 D1:AFBB FD 17 09 -  	ld	de, (iy+VX_QZ)
   68 D1:AFBE CD 9A B1 D1 	call	vxQuatMlt
   69 D1:AFC2 D1 -  -  -  	pop	de
   70 D1:AFC3 B7 -  -  -  	or	a, a
   71 D1:AFC4 ED 52 -  -  	sbc	hl, de
   72 D1:AFC6 D1 -  -  -  	pop	de
   73 D1:AFC7 19 -  -  -  	add	hl, de
   74 D1:AFC8 D1 -  -  -  	pop	de
   75 D1:AFC9 19 -  -  -  	add	hl, de
   76 D1:AFCA -  -  -  -  ; got VX_QX
   77 D1:AFCA E5 -  -  -  	push	hl
   78 D1:AFCB DD 27 00 -  	ld	hl, (ix+VX_QW)
   79 D1:AFCE FD 17 06 -  	ld	de, (iy+VX_QY)
   80 D1:AFD1 CD 9A B1 D1 	call	vxQuatMlt
   81 D1:AFD5 E5 -  -  -  	push	hl
   82 D1:AFD6 DD 27 03 -  	ld	hl, (ix+VX_QX)
   83 D1:AFD9 FD 17 09 -  	ld	de, (iy+VX_QZ)
   84 D1:AFDC CD 9A B1 D1 	call	vxQuatMlt
   85 D1:AFE0 E5 -  -  -  	push	hl
   86 D1:AFE1 DD 27 06 -  	ld	hl, (ix+VX_QY)
   87 D1:AFE4 FD 17 00 -  	ld	de, (iy+VX_QW)
   88 D1:AFE7 CD 9A B1 D1 	call	vxQuatMlt
   89 D1:AFEB E5 -  -  -  	push	hl
   90 D1:AFEC DD 27 09 -  	ld	hl, (ix+VX_QZ)
   91 D1:AFEF FD 17 03 -  	ld	de, (iy+VX_QX)
   92 D1:AFF2 CD 9A B1 D1 	call	vxQuatMlt
   93 D1:AFF6 D1 -  -  -  	pop	de
   94 D1:AFF7 19 -  -  -  	add	hl, de
   95 D1:AFF8 D1 -  -  -  	pop	de
   96 D1:AFF9 B7 -  -  -  	or	a, a
   97 D1:AFFA ED 52 -  -  	sbc	hl, de
   98 D1:AFFC D1 -  -  -  	pop	de
   99 D1:AFFD 19 -  -  -  	add	hl, de
  100 D1:AFFE -  -  -  -  ; got VX_QY
  101 D1:AFFE E5 -  -  -  	push	hl
  102 D1:AFFF DD 27 00 -  	ld	hl, (ix+VX_QW)
  103 D1:B002 FD 17 09 -  	ld	de, (iy+VX_QZ)
  104 D1:B005 CD 9A B1 D1 	call	vxQuatMlt
  105 D1:B009 E5 -  -  -  	push	hl
  106 D1:B00A DD 27 03 -  	ld	hl, (ix+VX_QX)
  107 D1:B00D FD 17 06 -  	ld	de, (iy+VX_QY)
  108 D1:B010 CD 9A B1 D1 	call	vxQuatMlt
  109 D1:B014 E5 -  -  -  	push	hl
  110 D1:B015 DD 27 06 -  	ld	hl, (ix+VX_QY)
  111 D1:B018 FD 17 03 -  	ld	de, (iy+VX_QX)
  112 D1:B01B CD 9A B1 D1 	call	vxQuatMlt
  113 D1:B01F E5 -  -  -  	push	hl
  114 D1:B020 DD 27 09 -  	ld	hl, (ix+VX_QZ)
  115 D1:B023 FD 17 00 -  	ld	de, (iy+VX_QW)
  116 D1:B026 CD 9A B1 D1 	call	vxQuatMlt
  117 D1:B02A D1 -  -  -  	pop	de
  118 D1:B02B B7 -  -  -  	or	a, a
  119 D1:B02C ED 52 -  -  	sbc	hl, de
  120 D1:B02E D1 -  -  -  	pop	de
  121 D1:B02F 19 -  -  -  	add	hl, de
  122 D1:B030 D1 -  -  -  	pop	de
  123 D1:B031 19 -  -  -  	add	hl, de
  124 D1:B032 -  -  -  -  ; got VX_QZ
  125 D1:B032 DD 2F 09 -  	ld	(ix+VX_QZ), hl
  126 D1:B035 E1 -  -  -  	pop	hl
  127 D1:B036 DD 2F 06 -  	ld	(ix+VX_QY), hl
  128 D1:B039 E1 -  -  -  	pop	hl
  129 D1:B03A DD 2F 03 -  	ld	(ix+VX_QX), hl
  130 D1:B03D E1 -  -  -  	pop	hl
  131 D1:B03E DD 2F 00 -  	ld	(ix+VX_QW), hl
  132 D1:B041 C9 -  -  -  	ret
  133 D1:B042 -  -  -  -  
  134 D1:B042 -  -  -  -  vxQuaternionMagnitude:
  135 D1:B042 DD 27 00 -  	ld	hl, (ix+VX_QW)
  136 D1:B045 CD AB B1 D1 	call	vxQuatSquare
  137 D1:B049 E5 -  -  -  	push	hl
  138 D1:B04A DD 27 03 -  	ld	hl, (ix+VX_QX)
  139 D1:B04D CD AB B1 D1 	call	vxQuatSquare
  140 D1:B051 E5 -  -  -  	push	hl
  141 D1:B052 DD 27 06 -  	ld	hl, (ix+VX_QY)
  142 D1:B055 CD AB B1 D1 	call	vxQuatSquare
  143 D1:B059 E5 -  -  -  	push	hl
  144 D1:B05A DD 27 09 -  	ld	hl, (ix+VX_QZ)
  145 D1:B05D CD AB B1 D1 	call	vxQuatSquare
  146 D1:B061 D1 -  -  -  	pop	de
  147 D1:B062 19 -  -  -  	add	hl, de
  148 D1:B063 D1 -  -  -  	pop	de
  149 D1:B064 19 -  -  -  	add	hl, de
  150 D1:B065 D1 -  -  -  	pop	de
  151 D1:B066 19 -  -  -  	add	hl, de
  152 D1:B067 C9 -  -  -  	ret
  153 D1:B068 -  -  -  -  vxQuaternionConjugate:
  154 D1:B068 DD 17 03 -  	ld	de, (ix+3)
  155 D1:B06B B7 -  -  -  	or	a, a
  156 D1:B06C ED 62 -  -  	sbc	hl, hl
  157 D1:B06E ED 52 -  -  	sbc	hl, de
  158 D1:B070 DD 2F 03 -  	ld	(ix+3), hl
  159 D1:B073 DD 17 06 -  	ld	de, (ix+6)
  160 D1:B076 B7 -  -  -  	or	a, a
  161 D1:B077 ED 62 -  -  	sbc	hl, hl
  162 D1:B079 ED 52 -  -  	sbc	hl, de
  163 D1:B07B DD 2F 06 -  	ld	(ix+6), hl
  164 D1:B07E DD 17 09 -  	ld	de, (ix+9)
  165 D1:B081 B7 -  -  -  	or	a, a
  166 D1:B082 ED 62 -  -  	sbc	hl, hl
  167 D1:B084 ED 52 -  -  	sbc	hl, de
  168 D1:B086 DD 2F 09 -  	ld	(ix+9), hl
  169 D1:B089 C9 -  -  -  	ret
  170 D1:B08A -  -  -  -  vxQuaternionNormalize:
  171 D1:B08A C9 -  -  -  	ret
  172 D1:B08B -  -  -  -  vxQuatDivide:
  173 D1:B08B -  -  -  -  ; do HL*16384/DE
  174 D1:B08B C9 -  -  -  	ret
  175 D1:B08C -  -  -  -  vxQuaternionGetMatrix:
  176 D1:B08C -  -  -  -  ; iy quaternion, ix matrix
  177 D1:B08C -  -  -  -  ; (qw, qx, qy, qz)
  178 D1:B08C -  -  -  -  ; 1 - 2*qy - 2*qz 	2*qx*qy - 2*qz*qw 	2*qx*qz + 2*qy*qw
  179 D1:B08C -  -  -  -  ; 2*qx*qy + 2*qz*qw 	1 - 2*qx - 2*qz 	2*qy*qz - 2*qx*qw
  180 D1:B08C -  -  -  -  ; 2*qx*qz - 2*qy*qw 	2*qy*qz + 2*qx*qw 	1 - 2*qx - 2*qy
  181 D1:B08C FD 27 09 -  	ld	hl, (iy+VX_QZ)
  182 D1:B08F FD 17 00 -  	ld	de, (iy+VX_QW)
  183 D1:B092 CD 9A B1 D1 	call	vxQuatMlt
  184 D1:B096 29 -  -  -  	add	hl, hl
  185 D1:B097 -  -  -  -  ; 2*qz*qw
  186 D1:B097 E5 -  -  -  	push	hl
  187 D1:B098 FD 27 03 -  	ld	hl, (iy+VX_QX)
  188 D1:B09B FD 17 06 -  	ld	de, (iy+VX_QY)
  189 D1:B09E CD 9A B1 D1 	call	vxQuatMlt
  190 D1:B0A2 29 -  -  -  	add	hl, hl
  191 D1:B0A3 -  -  -  -  ; 2*qx*qy
  192 D1:B0A3 D1 -  -  -  	pop	de
  193 D1:B0A4 B7 -  -  -  	or	a, a
  194 D1:B0A5 ED 52 -  -  	sbc	hl, de
  195 D1:B0A7 DD 74 01 -  	ld	(ix+1), h
  196 D1:B0AA 19 -  -  -  	add	hl, de
  197 D1:B0AB 19 -  -  -  	add	hl, de
  198 D1:B0AC DD 74 03 -  	ld	(ix+3), h
  199 D1:B0AF -  -  -  -  ; next
  200 D1:B0AF FD 27 06 -  	ld	hl, (iy+VX_QY)
  201 D1:B0B2 FD 17 00 -  	ld	de, (iy+VX_QW)
  202 D1:B0B5 CD 9A B1 D1 	call	vxQuatMlt
  203 D1:B0B9 29 -  -  -  	add	hl, hl
  204 D1:B0BA -  -  -  -  ; 2*qw*qy
  205 D1:B0BA E5 -  -  -  	push	hl
  206 D1:B0BB FD 27 03 -  	ld	hl, (iy+VX_QX)
  207 D1:B0BE FD 17 09 -  	ld	de, (iy+VX_QZ)
  208 D1:B0C1 CD 9A B1 D1 	call	vxQuatMlt
  209 D1:B0C5 29 -  -  -  	add	hl, hl
  210 D1:B0C6 -  -  -  -  ; 2*qx*qz
  211 D1:B0C6 D1 -  -  -  	pop	de
  212 D1:B0C7 B7 -  -  -  	or	a, a
  213 D1:B0C8 ED 52 -  -  	sbc	hl, de
  214 D1:B0CA DD 74 06 -  	ld	(ix+6), h
  215 D1:B0CD 19 -  -  -  	add	hl, de
  216 D1:B0CE 19 -  -  -  	add	hl, de
  217 D1:B0CF DD 74 02 -  	ld	(ix+2), h
  218 D1:B0D2 -  -  -  -  ; next
  219 D1:B0D2 FD 27 03 -  	ld	hl, (iy+VX_QX)
  220 D1:B0D5 FD 17 00 -  	ld	de, (iy+VX_QW)
  221 D1:B0D8 CD 9A B1 D1 	call	vxQuatMlt
  222 D1:B0DC 29 -  -  -  	add	hl, hl
  223 D1:B0DD -  -  -  -  ; 2*qx*qw
  224 D1:B0DD E5 -  -  -  	push	hl
  225 D1:B0DE FD 27 06 -  	ld	hl, (iy+VX_QY)
  226 D1:B0E1 FD 17 09 -  	ld	de, (iy+VX_QZ)
  227 D1:B0E4 CD 9A B1 D1 	call	vxQuatMlt
  228 D1:B0E8 29 -  -  -  	add	hl, hl
  229 D1:B0E9 -  -  -  -  ; 2*qy*qz
  230 D1:B0E9 D1 -  -  -  	pop	de
  231 D1:B0EA B7 -  -  -  	or	a, a
  232 D1:B0EB ED 52 -  -  	sbc	hl, de
  233 D1:B0ED DD 74 05 -  	ld	(ix+5), h
  234 D1:B0F0 19 -  -  -  	add	hl, de
  235 D1:B0F1 19 -  -  -  	add	hl, de
  236 D1:B0F2 DD 74 07 -  	ld	(ix+7), h
  237 D1:B0F5 -  -  -  -  ; 1-2*qy-2qz
  238 D1:B0F5 FD 27 06 -  	ld	hl, (iy+VX_QY)
  239 D1:B0F8 CD AB B1 D1 	call	vxQuatSquare
  240 D1:B0FC E5 -  -  -  	push	hl
  241 D1:B0FD E5 -  -  -  	push	hl
  242 D1:B0FE FD 27 09 -  	ld	hl, (iy+VX_QZ)
  243 D1:B101 CD AB B1 D1 	call	vxQuatSquare
  244 D1:B105 EB -  -  -  	ex	de, hl
  245 D1:B106 C1 -  -  -  	pop	bc
  246 D1:B107 21 00 40 00 	ld	hl, $004000
  247 D1:B10B B7 -  -  -  	or	a, a
  248 D1:B10C ED 42 -  -  	sbc	hl, bc
  249 D1:B10E B7 -  -  -  	or	a, a
  250 D1:B10F ED 52 -  -  	sbc	hl, de
  251 D1:B111 DD 74 00 -  	ld	(ix+0), h
  252 D1:B114 -  -  -  -  ; 1-2*qz-2qx	
  253 D1:B114 D5 -  -  -  	push	de
  254 D1:B115 FD 27 03 -  	ld	hl, (iy+VX_QX)
  255 D1:B118 CD AB B1 D1 	call	vxQuatSquare
  256 D1:B11C EB -  -  -  	ex	de, hl
  257 D1:B11D C1 -  -  -  	pop	bc
  258 D1:B11E 21 00 40 00 	ld	hl, $004000
  259 D1:B122 B7 -  -  -  	or	a, a
  260 D1:B123 ED 42 -  -  	sbc	hl, bc
  261 D1:B125 B7 -  -  -  	or	a, a
  262 D1:B126 ED 52 -  -  	sbc	hl, de
  263 D1:B128 DD 74 04 -  	ld	(ix+4), h
  264 D1:B12B -  -  -  -  ; 1-2qx-2qy
  265 D1:B12B C1 -  -  -  	pop	bc
  266 D1:B12C 21 00 40 00 	ld	hl, $004000
  267 D1:B130 B7 -  -  -  	or	a, a
  268 D1:B131 ED 42 -  -  	sbc	hl, bc
  269 D1:B133 B7 -  -  -  	or	a, a
  270 D1:B134 ED 52 -  -  	sbc	hl, de
  271 D1:B136 DD 74 08 -  	ld	(ix+8), h
  272 D1:B139 C9 -  -  -  	ret
  273 D1:B13A -  -  -  -  vxQuaternionRotationAxis:
  274 D1:B13A -  -  -  -  ; iy adress of quaternion to write
  275 D1:B13A -  -  -  -  ; ix unit vector
  276 D1:B13A -  -  -  -  ; a angle
  277 D1:B13A -  -  -  -  ; qw = cos(angle/2)
  278 D1:B13A -  -  -  -  ; qx = axis.x*sin(angle/2)
  279 D1:B13A -  -  -  -  ; qy = axis.y*sin(angle/2)
  280 D1:B13A -  -  -  -  ; qz = axis.z*sin(angle/2)
  281 D1:B13A E5 -  -  -  	push	hl
  282 D1:B13B CD BE B1 D1 	call	vxSin
  283 D1:B13F -  -  -  -  ; hl = sin
  284 D1:B13F EB -  -  -  	ex	de, hl
  285 D1:B140 -  -  -  -  ; DE is never destroyed by the macro's
  286 D1:B140 DD 27 00 -  	ld	hl, (ix+0)
  287 D1:B143 CD 9A B1 D1 	call	vxQuatMlt
  288 D1:B147 FD 2F 03 -  	ld	(iy+VX_QX), hl
  289 D1:B14A DD 27 03 -  	ld	hl, (ix+3)
  290 D1:B14D CD 9A B1 D1 	call	vxQuatMlt
  291 D1:B151 FD 2F 06 -  	ld	(iy+VX_QY), hl
  292 D1:B154 DD 27 06 -  	ld	hl, (ix+6)
  293 D1:B157 CD 9A B1 D1 	call	vxQuatMlt
  294 D1:B15B FD 2F 09 -  	ld	(iy+VX_QZ), hl
  295 D1:B15E E1 -  -  -  	pop	hl
  296 D1:B15F CD BD B1 D1 	call	vxCos
  297 D1:B163 FD 2F 00 -  	ld	(iy+VX_QW), hl
  298 D1:B166 C9 -  -  -  	ret
  299 D1:B167 -  -  -  -  IQuaternionDot:
  300 D1:B167 DD 27 00 -  	ld	hl, (ix+VX_QW)
  301 D1:B16A FD 17 00 -  	ld	de, (iy+VX_QW)
  302 D1:B16D CD 9A B1 D1 	call	vxQuatMlt
  303 D1:B171 E5 -  -  -  	push	hl
  304 D1:B172 DD 27 03 -  	ld	hl, (ix+VX_QX)
  305 D1:B175 FD 17 03 -  	ld	de, (iy+VX_QX)
  306 D1:B178 CD 9A B1 D1 	call	vxQuatMlt
  307 D1:B17C E5 -  -  -  	push	hl
  308 D1:B17D DD 27 06 -  	ld	hl, (ix+VX_QY)
  309 D1:B180 FD 17 06 -  	ld	de, (iy+VX_QY)
  310 D1:B183 CD 9A B1 D1 	call	vxQuatMlt
  311 D1:B187 E5 -  -  -  	push	hl
  312 D1:B188 DD 27 09 -  	ld	hl, (ix+VX_QZ)
  313 D1:B18B FD 17 09 -  	ld	de, (iy+VX_QZ)
  314 D1:B18E CD 9A B1 D1 	call	vxQuatMlt
  315 D1:B192 D1 -  -  -  	pop	de
  316 D1:B193 19 -  -  -  	add	hl, de
  317 D1:B194 D1 -  -  -  	pop	de
  318 D1:B195 19 -  -  -  	add	hl, de
  319 D1:B196 D1 -  -  -  	pop	de
  320 D1:B197 19 -  -  -  	add	hl, de
  321 D1:B198 C9 -  -  -  	ret
  322 D1:B199 -  -  -  -  vxQuaternionSlerp:
  323 D1:B199 C9 -  -  -  	ret
  324 D1:B19A -  -  -  -  
  325 D1:B19A -  -  -  -  ; always included functions to works with quaternions, called by the majority of the routines.
  326 D1:B19A -  -  -  -  
  327 D1:B19A -  -  -  -  vxQuatMlt:
  328 D1:B19A -  -  -  -  ; hl *de, de is not destroyed
  329 D1:B19A CD 18 B2 D1 	call	vxMltFP8
  330 D1:B19E -  -  -  -  ; and now divide by 64
  331 D1:B19E 29 -  -  -  	add	hl, hl
  332 D1:B19F 29 -  -  -  	add	hl, hl
  333 D1:B1A0 E5 33 F1 3B 	ld	a, hlu
  334 D1:B1A4 4C -  -  -  	ld	c, h
  335 D1:B1A5 29 -  -  -  	add	hl, hl
  336 D1:B1A6 ED 62 -  -  	sbc	hl, hl
  337 D1:B1A8 67 -  -  -  	ld	h, a
  338 D1:B1A9 69 -  -  -  	ld	l, c	
  339 D1:B1AA C9 -  -  -  	ret
  340 D1:B1AB -  -  -  -  vxQuatSquare:
  341 D1:B1AB -  -  -  -  ; bc is kept intact
  342 D1:B1AB CD F3 B1 D1 	call	vxSquareFP8
  343 D1:B1AF -  -  -  -  ; divide by 32
  344 D1:B1AF 29 -  -  -  	add	hl, hl
  345 D1:B1B0 29 -  -  -  	add	hl, hl
  346 D1:B1B1 29 -  -  -  	add	hl, hl
  347 D1:B1B2 E5 33 F1 3B 	ld	a, hlu
  348 D1:B1B6 5C -  -  -  	ld	e, h
  349 D1:B1B7 B7 -  -  -  	or	a, a
  350 D1:B1B8 ED 62 -  -  	sbc	hl, hl
  351 D1:B1BA 67 -  -  -  	ld	h, a
  352 D1:B1BB 6B -  -  -  	ld	l, e
  353 D1:B1BC C9 -  -  -  	ret
  354 D1:B1BD -  -  -  -  vxCos:
  355 D1:B1BD 24 -  -  -  	inc	h
  356 D1:B1BE -  -  -  -  vxSin:
  357 D1:B1BE CB 44 -  -  	bit	0, h
  358 D1:B1C0 7D -  -  -  	ld	a, l
  359 D1:B1C1 28 04 -  -  	jr	z, vxSinSkp1
  360 D1:B1C3 ED 44 -  -  	neg
  361 D1:B1C5 28 1E -  -  	jr	z, vxQuatIndexZero
  362 D1:B1C7 -  -  -  -  vxSinSkp1:
  363 D1:B1C7 CB 4C -  -  	bit	1, h
  364 D1:B1C9 21 00 20 D0 	ld	hl, VX_SIN_TABLE
  365 D1:B1CD 20 0A -  -  	jr	nz, vxSinNegate
  366 D1:B1CF 6F -  -  -  	ld	l, a
  367 D1:B1D0 4E -  -  -  	ld	c, (hl)
  368 D1:B1D1 24 -  -  -  	inc	h
  369 D1:B1D2 46 -  -  -  	ld	b, (hl)
  370 D1:B1D3 B7 -  -  -  	or	a, a
  371 D1:B1D4 ED 62 -  -  	sbc	hl, hl
  372 D1:B1D6 60 -  -  -  	ld	h, b
  373 D1:B1D7 69 -  -  -  	ld	l, c
  374 D1:B1D8 C9 -  -  -  	ret
  375 D1:B1D9 -  -  -  -  vxSinNegate:
  376 D1:B1D9 52 03 -  -  	inc.s	bc
  377 D1:B1DB 6F -  -  -  	ld	l, a
  378 D1:B1DC 4E -  -  -  	ld	c, (hl)
  379 D1:B1DD 24 -  -  -  	inc	h
  380 D1:B1DE 46 -  -  -  	ld	b, (hl)
  381 D1:B1DF B7 -  -  -  	or	a, a
  382 D1:B1E0 ED 62 -  -  	sbc	hl, hl
  383 D1:B1E2 ED 42 -  -  	sbc	hl, bc
  384 D1:B1E4 C9 -  -  -  	ret
  385 D1:B1E5 -  -  -  -  vxQuatIndexZero:
  386 D1:B1E5 CB 4C -  -  	bit	1, h
  387 D1:B1E7 20 05 -  -  	jr	nz, vxQuatNegResultCst
  388 D1:B1E9 21 00 40 00 	ld	hl, $004000
  389 D1:B1ED C9 -  -  -  	ret
  390 D1:B1EE -  -  -  -  vxQuatNegResultCst:
  391 D1:B1EE 21 00 C0 FF 	ld	hl, $FFC000
  392 D1:B1F2 C9 -  -  -  	ret
  393 D1:B1F3 -  -  -  -  
  394 D1:B1F3 -  -  -  -  vxSquareFP8:
  395 D1:B1F3 -  -  -  -  ; HL/256
  396 D1:B1F3 -  -  -  -  ; Destroy DE,A [16bits]
  397 D1:B1F3 -  -  -  -  ; (HxH*256+LxH*2+LxL/256)
  398 D1:B1F3 CB 7C -  -  	bit	7, h
  399 D1:B1F5 28 06 -  -  	jr	z, vxSqAbsSkp
  400 D1:B1F7 EB -  -  -  	ex	de, hl
  401 D1:B1F8 B7 -  -  -  	or	a, a
  402 D1:B1F9 ED 62 -  -  	sbc	hl, hl
  403 D1:B1FB ED 52 -  -  	sbc	hl, de
  404 D1:B1FD -  -  -  -  vxSqAbsSkp:
  405 D1:B1FD 54 -  -  -  	ld	d, h
  406 D1:B1FE 5D -  -  -  	ld	e, l
  407 D1:B1FF 6C -  -  -  	ld	l, h
  408 D1:B200 ED 6C -  -  	mlt	hl
  409 D1:B202 29 29 29 29 
              29 29 29 29 	slhl
Listing for file "C:\Users\Zeromus\Documents\GitHub\Virtual3D\vx3D.inc"
Listing for file "C:\Users\Zeromus\Documents\GitHub\Virtual3D\vxQuaternion.ez80"
  410 D1:B20A 7B -  -  -  	ld	a, e
  411 D1:B20B ED 5C -  -  	mlt	de
  412 D1:B20D 19 -  -  -  	add	hl, de
  413 D1:B20E 19 -  -  -  	add	hl, de
  414 D1:B20F 5F -  -  -  	ld	e, a
  415 D1:B210 57 -  -  -  	ld	d, a
  416 D1:B211 ED 5C -  -  	mlt	de
  417 D1:B213 5A -  -  -  	ld	e, d
  418 D1:B214 16 00 -  -  	ld	d, 0
  419 D1:B216 19 -  -  -  	add	hl, de
  420 D1:B217 C9 -  -  -  	ret
  421 D1:B218 -  -  -  -  vxMltFP8:
  422 D1:B218 -  -  -  -  ; HLxDE/256 [16bits]
  423 D1:B218 -  -  -  -  ; (HxD*256+LxD+ExH+LxE/256)
  424 D1:B218 44 -  -  -  	ld	b, h
  425 D1:B219 4D -  -  -  	ld	c, l
  426 D1:B21A 6A -  -  -  	ld	l, d
  427 D1:B21B ED 6C -  -  	mlt	hl
  428 D1:B21D CB 78 -  -  	bit	7, b
  429 D1:B21F 28 03 -  -  	jr	z, $+5
  430 D1:B221 B7 -  -  -  	or	a, a
  431 D1:B222 ED 52 -  -  	sbc	hl, de
  432 D1:B224 CB 7A -  -  	bit	7, d
  433 D1:B226 28 03 -  -  	jr	z, $+5
  434 D1:B228 B7 -  -  -  	or	a, a
  435 D1:B229 ED 42 -  -  	sbc	hl, bc
  436 D1:B22B 29 29 29 29 
              29 29 29 29 	slhl
Listing for file "C:\Users\Zeromus\Documents\GitHub\Virtual3D\vx3D.inc"
Listing for file "C:\Users\Zeromus\Documents\GitHub\Virtual3D\vxQuaternion.ez80"
  437 D1:B233 -  -  -  -  ; now need to do (CxD+BxE+ExC/256)
  438 D1:B233 79 -  -  -  	ld	a, c
  439 D1:B234 4B -  -  -  	ld	c, e
  440 D1:B235 ED 4C -  -  	mlt	bc
  441 D1:B237 09 -  -  -  	add	hl, bc
  442 D1:B238 4F -  -  -  	ld	c, a
  443 D1:B239 42 -  -  -  	ld	b, d
  444 D1:B23A ED 4C -  -  	mlt	bc
  445 D1:B23C 09 -  -  -  	add	hl, bc
  446 D1:B23D 4F -  -  -  	ld	c, a
  447 D1:B23E 43 -  -  -  	ld	b, e
  448 D1:B23F ED 4C -  -  	mlt	bc
  449 D1:B241 48 -  -  -  	ld	c, b
  450 D1:B242 06 00 -  -  	ld	b, 0
  451 D1:B244 09 -  -  -  	add	hl, bc
  452 D1:B245 C9 -  -  -  	ret
  453 D1:B246 -  -  -  -  
Listing for file "C:\Users\Zeromus\Documents\GitHub\Virtual3D\vxMain.ez80"
    5 D1:B246 -  -  -  -  #include	"vxVector.ez80"
Listing for file "C:\Users\Zeromus\Documents\GitHub\Virtual3D\vxVector.ez80"
    1 D1:B246 -  -  -  -  ; code start - vector utility fonctions
    2 D1:B246 -  -  -  -  
    3 D1:B246 -  -  -  -  #define	xpd	call vxCrossProduct
    4 D1:B246 -  -  -  -  vxCrossProduct:
    5 D1:B246 -  -  -  -  ; (hl) = (ix) cross (iy)
    6 D1:B246 -  -  -  -  ; 774 TStates, 177 Bytes
    7 D1:B246 -  -  -  -  ; v1.y*v2.z-v1.z*v2.y
    8 D1:B246 -  -  -  -  ; v1.z*v2.x-v1.x*v2.z
    9 D1:B246 -  -  -  -  ; v1.x*v2.y-v1.y*v2.x
   10 D1:B246 EB -  -  -  	ex	de, hl
   11 D1:B247 -  -  -  -  ; v1.y
   12 D1:B247 DD 46 01 -  	ld	b, (ix+1)
   13 D1:B24A -  -  -  -  ; v2.z
   14 D1:B24A FD 4E 02 -  	ld	c, (iy+2)
   15 D1:B24D AF -  -  -  	xor	a, a
   16 D1:B24E ED 62 -  -  	sbc	hl, hl
   17 D1:B250 CB 78 -  -  	bit	7, b
   18 D1:B252 28 01 -  -  	jr	z, $+3
   19 D1:B254 81 -  -  -  	add	a, c
   20 D1:B255 CB 79 -  -  	bit	7, c
   21 D1:B257 28 01 -  -  	jr	z, $+3
   22 D1:B259 80 -  -  -  	add	a, b
   23 D1:B25A ED 4C -  -  	mlt	bc
   24 D1:B25C 09 -  -  -  	add	hl, bc
   25 D1:B25D 47 -  -  -  	ld	b, a
   26 D1:B25E AF -  -  -  	xor	a, a
   27 D1:B25F 4F -  -  -  	ld	c, a
   28 D1:B260 ED 42 -  -  	sbc	hl, bc
   29 D1:B262 -  -  -  -  ; v1.z
   30 D1:B262 DD 46 02 -  	ld	b, (ix+2)
   31 D1:B265 -  -  -  -  ; v2.y
   32 D1:B265 FD 4E 01 -  	ld	c, (iy+1)
   33 D1:B268 AF -  -  -  	xor	a, a
   34 D1:B269 CB 78 -  -  	bit	7, b
   35 D1:B26B 28 01 -  -  	jr	z, $+3
   36 D1:B26D 81 -  -  -  	add	a, c
   37 D1:B26E CB 79 -  -  	bit	7, c
   38 D1:B270 28 01 -  -  	jr	z, $+3
   39 D1:B272 80 -  -  -  	add	a, b
   40 D1:B273 ED 4C -  -  	mlt	bc
   41 D1:B275 B7 -  -  -  	or	a, a
   42 D1:B276 ED 42 -  -  	sbc	hl, bc
   43 D1:B278 47 -  -  -  	ld	b, a
   44 D1:B279 AF -  -  -  	xor	a, a
   45 D1:B27A 4F -  -  -  	ld	c, a
   46 D1:B27B 09 -  -  -  	add	hl, bc
   47 D1:B27C 29 -  -  -  	add	hl, hl
   48 D1:B27D 29 -  -  -  	add	hl, hl
   49 D1:B27E 7C -  -  -  	ld	a, h
   50 D1:B27F 12 -  -  -  	ld	(de), a
   51 D1:B280 13 -  -  -  	inc	de
   52 D1:B281 -  -  -  -  ; v1.z
   53 D1:B281 DD 66 02 -  	ld	h, (ix+2)
   54 D1:B284 -  -  -  -  ; v2.x
   55 D1:B284 FD 6E 00 -  	ld	l, (iy+0)
   56 D1:B287 AF -  -  -  	xor	a, a
   57 D1:B288 CB 7C -  -  	bit	7, h
   58 D1:B28A 28 01 -  -  	jr	z, $+3
   59 D1:B28C 85 -  -  -  	add	a, l
   60 D1:B28D CB 7D -  -  	bit	7, l
   61 D1:B28F 28 01 -  -  	jr	z, $+3
   62 D1:B291 84 -  -  -  	add	a, h
   63 D1:B292 ED 6C -  -  	mlt	hl
   64 D1:B294 47 -  -  -  	ld	b, a
   65 D1:B295 AF -  -  -  	xor	a, a
   66 D1:B296 4F -  -  -  	ld	c, a
   67 D1:B297 ED 42 -  -  	sbc	hl, bc
   68 D1:B299 -  -  -  -  ; v1.x
   69 D1:B299 DD 46 00 -  	ld	b, (ix+0)
   70 D1:B29C -  -  -  -  ; v2.z
   71 D1:B29C FD 4E 02 -  	ld	c, (iy+2)
   72 D1:B29F AF -  -  -  	xor	a, a
   73 D1:B2A0 CB 78 -  -  	bit	7, b
   74 D1:B2A2 28 01 -  -  	jr	z, $+3
   75 D1:B2A4 81 -  -  -  	add	a, c
   76 D1:B2A5 CB 79 -  -  	bit	7, c
   77 D1:B2A7 28 01 -  -  	jr	z, $+3
   78 D1:B2A9 80 -  -  -  	add	a, b
   79 D1:B2AA ED 4C -  -  	mlt	bc
   80 D1:B2AC B7 -  -  -  	or	a, a
   81 D1:B2AD ED 42 -  -  	sbc	hl, bc
   82 D1:B2AF 47 -  -  -  	ld	b, a
   83 D1:B2B0 AF -  -  -  	xor	a, a
   84 D1:B2B1 4F -  -  -  	ld	c, a
   85 D1:B2B2 09 -  -  -  	add	hl, bc
   86 D1:B2B3 29 -  -  -  	add	hl, hl
   87 D1:B2B4 29 -  -  -  	add	hl, hl
   88 D1:B2B5 7C -  -  -  	ld	a, h
   89 D1:B2B6 12 -  -  -  	ld	(de), a
   90 D1:B2B7 13 -  -  -  	inc	de
   91 D1:B2B8 -  -  -  -  ; v1.x
   92 D1:B2B8 DD 66 00 -  	ld	h, (ix+0)
   93 D1:B2BB -  -  -  -  ; v2.y
   94 D1:B2BB FD 6E 01 -  	ld	l, (iy+1)
   95 D1:B2BE AF -  -  -  	xor	a, a
   96 D1:B2BF CB 7C -  -  	bit	7, h
   97 D1:B2C1 28 01 -  -  	jr	z, $+3
   98 D1:B2C3 85 -  -  -  	add	a, l
   99 D1:B2C4 CB 7D -  -  	bit	7, l
  100 D1:B2C6 28 01 -  -  	jr	z, $+3
  101 D1:B2C8 84 -  -  -  	add	a, h
  102 D1:B2C9 ED 6C -  -  	mlt	hl
  103 D1:B2CB 47 -  -  -  	ld	b, a
  104 D1:B2CC AF -  -  -  	xor	a, a
  105 D1:B2CD 4F -  -  -  	ld	c, a
  106 D1:B2CE ED 42 -  -  	sbc	hl, bc
  107 D1:B2D0 -  -  -  -  ; v1.y
  108 D1:B2D0 DD 46 01 -  	ld	b, (ix+1)
  109 D1:B2D3 -  -  -  -  ; v2.x
  110 D1:B2D3 FD 4E 00 -  	ld	c, (iy+0)
  111 D1:B2D6 AF -  -  -  	xor	a, a
  112 D1:B2D7 CB 78 -  -  	bit	7, b
  113 D1:B2D9 28 01 -  -  	jr	z, $+3
  114 D1:B2DB 81 -  -  -  	add	a, c
  115 D1:B2DC CB 79 -  -  	bit	7, c
  116 D1:B2DE 28 01 -  -  	jr	z, $+3
  117 D1:B2E0 80 -  -  -  	add	a, b
  118 D1:B2E1 ED 4C -  -  	mlt	bc
  119 D1:B2E3 B7 -  -  -  	or	a, a
  120 D1:B2E4 ED 42 -  -  	sbc	hl, bc
  121 D1:B2E6 47 -  -  -  	ld	b, a
  122 D1:B2E7 AF -  -  -  	xor	a, a
  123 D1:B2E8 4F -  -  -  	ld	c, a
  124 D1:B2E9 09 -  -  -  	add	hl, bc
  125 D1:B2EA 29 -  -  -  	add	hl, hl
  126 D1:B2EB 29 -  -  -  	add	hl, hl
  127 D1:B2EC EB -  -  -  	ex	de, hl
  128 D1:B2ED 72 -  -  -  	ld	(hl), d
  129 D1:B2EE 2B -  -  -  	dec	hl
  130 D1:B2EF 2B -  -  -  	dec	hl
  131 D1:B2F0 C9 -  -  -  	ret
  132 D1:B2F1 -  -  -  -  #define	dp3	call vxDotProduct
  133 D1:B2F1 -  -  -  -  vxDotProduct:
  134 D1:B2F1 -  -  -  -  ; hl = (ix) dot (iy)
  135 D1:B2F1 DD 66 00 -  	ld	h, (ix+0)
  136 D1:B2F4 FD 6E 00 -  	ld	l, (iy+0)
  137 D1:B2F7 7C -  -  -  	ld	a, h
  138 D1:B2F8 17 -  -  -  	rla
  139 D1:B2F9 9F -  -  -  	sbc	a, a
  140 D1:B2FA A5 -  -  -  	and	l
  141 D1:B2FB 5F -  -  -  	ld	e, a
  142 D1:B2FC 7D -  -  -  	ld	a, l
  143 D1:B2FD 17 -  -  -  	rla
  144 D1:B2FE 9F -  -  -  	sbc	a, a
  145 D1:B2FF A4 -  -  -  	and	h
  146 D1:B300 83 -  -  -  	add	a, e
  147 D1:B301 ED 6C -  -  	mlt	hl
  148 D1:B303 5F -  -  -  	ld	e, a
  149 D1:B304 DD 46 01 -  	ld	b, (ix+1)
  150 D1:B307 FD 4E 01 -  	ld	c, (iy+1)
  151 D1:B30A 78 -  -  -  	ld	a, b
  152 D1:B30B 17 -  -  -  	rla
  153 D1:B30C 9F -  -  -  	sbc	a, a
  154 D1:B30D A1 -  -  -  	and	c
  155 D1:B30E 57 -  -  -  	ld	d, a
  156 D1:B30F 79 -  -  -  	ld	a, c
  157 D1:B310 17 -  -  -  	rla
  158 D1:B311 9F -  -  -  	sbc	a, a
  159 D1:B312 A0 -  -  -  	and	b
  160 D1:B313 82 -  -  -  	add	a, d
  161 D1:B314 ED 4C -  -  	mlt	bc
  162 D1:B316 09 -  -  -  	add	hl, bc
  163 D1:B317 57 -  -  -  	ld	d, a
  164 D1:B318 DD 46 02 -  	ld	b, (ix+2)
  165 D1:B31B FD 4E 02 -  	ld	c, (iy+2)
  166 D1:B31E AF -  -  -  	xor	a, a
  167 D1:B31F CB 78 -  -  	bit	7, b
  168 D1:B321 28 01 -  -  	jr	z, $+3
  169 D1:B323 81 -  -  -  	add	a, c
  170 D1:B324 CB 79 -  -  	bit	7, c
  171 D1:B326 28 01 -  -  	jr	z, $+3
  172 D1:B328 80 -  -  -  	add	a, b
  173 D1:B329 ED 4C -  -  	mlt	bc
  174 D1:B32B 09 -  -  -  	add	hl, bc
  175 D1:B32C 47 -  -  -  	ld	b, a
  176 D1:B32D AF -  -  -  	xor	a, a
  177 D1:B32E 4F -  -  -  	ld	c, a
  178 D1:B32F ED 42 -  -  	sbc	hl, bc
  179 D1:B331 43 -  -  -  	ld	b, e
  180 D1:B332 ED 42 -  -  	sbc	hl, bc
  181 D1:B334 42 -  -  -  	ld	b, d
  182 D1:B335 ED 42 -  -  	sbc	hl, bc
  183 D1:B337 C9 -  -  -  	ret
  184 D1:B338 -  -  -  -  vxNormalize:
  185 D1:B338 C9 -  -  -  	ret
  186 D1:B339 -  -  -  -  vxLength:
  187 D1:B339 C9 -  -  -  	ret
  188 D1:B33A -  -  -  -  #define	rfl	call	vxReflect
  189 D1:B33A -  -  -  -  vxReflect:
  190 D1:B33A -  -  -  -  ; I = ix, N = iy, hl = result
  191 D1:B33A -  -  -  -  ; reflection direction I-2*dot(N,I)*N
  192 D1:B33A E5 -  -  -  	push	hl
  193 D1:B33B CD F1 B2 D1 	call	vxDotProduct
  194 D1:B33F 29 -  -  -  	add	hl, hl
  195 D1:B340 29 -  -  -  	add	hl, hl
  196 D1:B341 29 -  -  -  	add	hl, hl
  197 D1:B342 -  -  -  -  ; scale N vector
  198 D1:B342 44 -  -  -  	ld	b, h
  199 D1:B343 D1 -  -  -  	pop	de
  200 D1:B344 FD 6E 00 -  	ld	l, (iy+0)
  201 D1:B347 7C -  -  -  	ld	a, h
  202 D1:B348 17 -  -  -  	rla
  203 D1:B349 9F -  -  -  	sbc	a, a
  204 D1:B34A A5 -  -  -  	and	l
  205 D1:B34B 4F -  -  -  	ld	c, a
  206 D1:B34C 7D -  -  -  	ld	a, l
  207 D1:B34D 17 -  -  -  	rla
  208 D1:B34E 9F -  -  -  	sbc	a, a
  209 D1:B34F A4 -  -  -  	and	h
  210 D1:B350 81 -  -  -  	add	a, c
  211 D1:B351 4F -  -  -  	ld	c, a
  212 D1:B352 ED 6C -  -  	mlt	hl
  213 D1:B354 7C -  -  -  	ld	a, h
  214 D1:B355 91 -  -  -  	sub	c
  215 D1:B356 67 -  -  -  	ld	h, a
  216 D1:B357 29 -  -  -  	add	hl, hl
  217 D1:B358 29 -  -  -  	add	hl, hl
  218 D1:B359 4C -  -  -  	ld	c, h
  219 D1:B35A DD 7E 00 -  	ld	a, (ix+0)
  220 D1:B35D 91 -  -  -  	sub	a, c
  221 D1:B35E 12 -  -  -  	ld	(de), a
  222 D1:B35F 13 -  -  -  	inc	de
  223 D1:B360 -  -  -  -  
  224 D1:B360 60 -  -  -  	ld	h, b
  225 D1:B361 FD 6E 01 -  	ld	l, (iy+1)
  226 D1:B364 7C -  -  -  	ld	a, h
  227 D1:B365 17 -  -  -  	rla
  228 D1:B366 9F -  -  -  	sbc	a, a
  229 D1:B367 A5 -  -  -  	and	l
  230 D1:B368 4F -  -  -  	ld	c, a
  231 D1:B369 7D -  -  -  	ld	a, l
  232 D1:B36A 17 -  -  -  	rla
  233 D1:B36B 9F -  -  -  	sbc	a, a
  234 D1:B36C A4 -  -  -  	and	h
  235 D1:B36D 81 -  -  -  	add	a, c
  236 D1:B36E 4F -  -  -  	ld	c, a
  237 D1:B36F ED 6C -  -  	mlt	hl
  238 D1:B371 7C -  -  -  	ld	a, h
  239 D1:B372 91 -  -  -  	sub	c
  240 D1:B373 67 -  -  -  	ld	h, a
  241 D1:B374 29 -  -  -  	add	hl, hl
  242 D1:B375 29 -  -  -  	add	hl, hl
  243 D1:B376 4C -  -  -  	ld	c, h
  244 D1:B377 DD 7E 01 -  	ld	a, (ix+1)
  245 D1:B37A 91 -  -  -  	sub	a, c
  246 D1:B37B 12 -  -  -  	ld	(de), a
  247 D1:B37C 13 -  -  -  	inc	de
  248 D1:B37D -  -  -  -  
  249 D1:B37D 60 -  -  -  	ld	h, b
  250 D1:B37E FD 6E 02 -  	ld	l, (iy+2)
  251 D1:B381 7C -  -  -  	ld	a, h
  252 D1:B382 17 -  -  -  	rla
  253 D1:B383 9F -  -  -  	sbc	a, a
  254 D1:B384 A5 -  -  -  	and	l
  255 D1:B385 4F -  -  -  	ld	c, a
  256 D1:B386 7D -  -  -  	ld	a, l
  257 D1:B387 17 -  -  -  	rla
  258 D1:B388 9F -  -  -  	sbc	a, a
  259 D1:B389 A4 -  -  -  	and	h
  260 D1:B38A 81 -  -  -  	add	a, c
  261 D1:B38B 4F -  -  -  	ld	c, a
  262 D1:B38C ED 6C -  -  	mlt	hl
  263 D1:B38E 7C -  -  -  	ld	a, h
  264 D1:B38F 91 -  -  -  	sub	c
  265 D1:B390 67 -  -  -  	ld	h, a
  266 D1:B391 29 -  -  -  	add	hl, hl
  267 D1:B392 29 -  -  -  	add	hl, hl
  268 D1:B393 4C -  -  -  	ld	c, h
  269 D1:B394 DD 7E 02 -  	ld	a, (ix+2)
  270 D1:B397 91 -  -  -  	sub	a, c
  271 D1:B398 12 -  -  -  	ld	(de), a
  272 D1:B399 C9 -  -  -  	ret
Listing for file "C:\Users\Zeromus\Documents\GitHub\Virtual3D\vxMain.ez80"
    6 D1:B39A -  -  -  -  #include	"vxFramebuffer.ez80"
Listing for file "C:\Users\Zeromus\Documents\GitHub\Virtual3D\vxFramebuffer.ez80"
    1 D1:B39A -  -  -  -  ; code start - framebuffer functions
    2 D1:B39A -  -  -  -  
    3 D1:B39A -  -  -  -  #define VX_FRAMEBUFFER_AUX0 $D40000	; first VRAM buffer
    4 D1:B39A -  -  -  -  #define VX_FRAMEBUFFER_AUX1 $D52C00	; second VRAM buffer
    5 D1:B39A -  -  -  -  #define VX_FRAMEBUFFER_SIZE $12C00
    6 D1:B39A -  -  -  -  #define VX_VRAM             $E30800
    7 D1:B39A -  -  -  -  #define VX_BPP8             lcdBpp8   ; LCD 8 bpp mode bits
    8 D1:B39A -  -  -  -  #define VX_BPP16            lcdBpp16	; LCD 16 bpp mode bits
    9 D1:B39A -  -  -  -  #define VX_LCD_CTRL         mpLcdCtrl	; LCD control port
   10 D1:B39A -  -  -  -  #define VX_LCD_IMSC         $E3001C	; LCD Interrupt Mask Register
   11 D1:B39A -  -  -  -  #define VX_LCD_ICR          $E30028	; LCD Interrupt Clear/Set Register
   12 D1:B39A -  -  -  -  #define VX_LCD_ISR          $E30020	; LCD Interrupt Status Register
   13 D1:B39A -  -  -  -  #define VX_LCD_BUFFER       $E30010	; base adress of LCD
   14 D1:B39A -  -  -  -  #define VX_LCD_PALETTE      mpLcdPalette ; palette (r3g3b2)
   15 D1:B39A -  -  -  -  #define VX_LCD_TIMING2      $E30008
   16 D1:B39A -  -  -  -  
   17 D1:B39A -  -  -  -  #define VX_GREEN_BITS	      %00000111
   18 D1:B39A -  -  -  -  #define VX_RED_BITS         %11100000
   19 D1:B39A -  -  -  -  #define VX_BLUE_BITS        %00011000
   20 D1:B39A -  -  -  -  #define VX_COLOR_LOW_BIT    %00101001
   21 D1:B39A -  -  -  -  
   22 D1:B39A -  -  -  -  #define vxFramebuffer       $E30014
   23 D1:B39A -  -  -  -  
   24 D1:B39A -  -  -  -  vxResetPalette:
   25 D1:B39A -  -  -  -  ; load palette :
   26 D1:B39A -  -  -  -  ; color is 3-3-2 format, RGB
   27 D1:B39A -  -  -  -  ; calculate 1555 format color
   28 D1:B39A 21 00 02 E3 	ld	hl,VX_LCD_PALETTE  ; palette mem
   29 D1:B39E 06 00 -  -  	ld	b,0
   30 D1:B3A0 -  -  -  -  vxLoadPaletteLoop:      ; this loop is from wikiti
   31 D1:B3A0 50 -  -  -  	ld	d,b
   32 D1:B3A1 78 -  -  -  	ld	a,b
   33 D1:B3A2 E6 C0 -  -  	and	%11000000
   34 D1:B3A4 CB 3A -  -  	srl	d
   35 D1:B3A6 1F -  -  -  	rra
   36 D1:B3A7 5F -  -  -  	ld	e,a
   37 D1:B3A8 3E 1F -  -  	ld	a,%00011111
   38 D1:B3AA A0 -  -  -  	and	b
   39 D1:B3AB B3 -  -  -  	or	e
   40 D1:B3AC 77 -  -  -  	ld	(hl),a
   41 D1:B3AD 23 -  -  -  	inc	hl
   42 D1:B3AE 72 -  -  -  	ld	(hl),d
   43 D1:B3AF 23 -  -  -  	inc	hl
   44 D1:B3B0 04 -  -  -  	inc	b
   45 D1:B3B1 20 ED -  -  	jr nz,vxLoadPaletteLoop
   46 D1:B3B3 C9 -  -  -  	ret
   47 D1:B3B4 -  -  -  -  vxSetPalette:
   48 D1:B3B4 -  -  -  -  ; set the framebuffer palette
   49 D1:B3B4 -  -  -  -  ; input : hl
   50 D1:B3B4 11 00 02 E3 	ld	de, VX_LCD_PALETTE
   51 D1:B3B8 01 00 02 00 	ld	bc, 512
   52 D1:B3BC ED B0 -  -  	ldir
   53 D1:B3BE C9 -  -  -  	ret
   54 D1:B3BF -  -  -  -  vxClearBuffer:
   55 D1:B3BF -  -  -  -  ; reset framebuffer with color
   56 D1:B3BF -  -  -  -  ; input : c
   57 D1:B3BF -  -  -  -  ; output : none
   58 D1:B3BF -  -  -  -  ; destroyed : all except ix,iy
   59 D1:B3BF 2A 14 00 E3 	ld	hl, (vxFramebuffer)
   60 D1:B3C3 71 -  -  -  	ld	(hl), c
   61 D1:B3C4 EB -  -  -  	ex	de, hl
   62 D1:B3C5 B7 -  -  -  	or	a, a
   63 D1:B3C6 ED 62 -  -  	sbc	hl, hl
   64 D1:B3C8 19 -  -  -  	add	hl, de
   65 D1:B3C9 13 -  -  -  	inc	de
   66 D1:B3CA 01 FF 2B 01 	ld	bc, 76799
   67 D1:B3CE ED B0 -  -  	ldir
   68 D1:B3D0 C9 -  -  -  	ret
   69 D1:B3D1 -  -  -  -  vxFlushLCD:
   70 D1:B3D1 -  -  -  -  ; swap the framebuffer and synchronize with LCD
   71 D1:B3D1 2A 10 00 E3 	ld	hl, (VX_LCD_BUFFER) 
   72 D1:B3D5 ED 5B 14 00 
              E3 -  -  -  	ld	de, (vxFramebuffer)
   73 D1:B3DA 22 14 00 E3 	ld	(vxFramebuffer), hl
   74 D1:B3DE ED 53 10 00 
              E3 -  -  -  	ld	(VX_LCD_BUFFER), de
   75 D1:B3E3 -  -  -  -  vxWaitLCD:
   76 D1:B3E3 -  -  -  -  ; wait until the LCD finish displaying the frame
   77 D1:B3E3 21 28 00 E3 	ld	hl, VX_LCD_ICR
   78 D1:B3E7 CB D6 -  -  	set	2, (hl)
   79 D1:B3E9 2E 20 -  -  	ld	l, VX_LCD_ISR&$FF
   80 D1:B3EB -  -  -  -  vxWaitLoop:
   81 D1:B3EB CB 56 -  -  	bit	2, (hl)
   82 D1:B3ED 28 FC -  -  	jr	z, vxWaitLoop
   83 D1:B3EF C9 -  -  -  	ret
   84 D1:B3F0 -  -  -  -  vxSwapLCD:
   85 D1:B3F0 -  -  -  -  ; swap buffer without LCD acknowledge
   86 D1:B3F0 2A 10 00 E3 	ld	hl, (VX_LCD_BUFFER) 
   87 D1:B3F4 ED 5B 14 00 
              E3 -  -  -  	ld	de, (vxFramebuffer)
   88 D1:B3F9 22 14 00 E3 	ld	(vxFramebuffer), hl
   89 D1:B3FD ED 53 10 00 
              E3 -  -  -  	ld	(VX_LCD_BUFFER), de
   90 D1:B402 C9 -  -  -  	ret
   91 D1:B403 -  -  -  -  vxBlendRBG:
   92 D1:B403 -  -  -  -  ; blend color c and a
   93 D1:B403 -  -  -  -  ; destroy d and e
   94 D1:B403 57 -  -  -  	ld	d, a
   95 D1:B404 A1 -  -  -  	and	c
   96 D1:B405 E6 29 -  -  	and	VX_COLOR_LOW_BIT
   97 D1:B407 5F -  -  -  	ld	e, a
   98 D1:B408 7A -  -  -  	ld	a, d
   99 D1:B409 E6 D6 -  -  	and	~VX_COLOR_LOW_BIT
  100 D1:B40B 57 -  -  -  	ld	d, a
  101 D1:B40C 79 -  -  -  	ld	a, c
  102 D1:B40D E6 D6 -  -  	and	~VX_COLOR_LOW_BIT
  103 D1:B40F 82 -  -  -  	add	a, d
  104 D1:B410 1F -  -  -  	rra
  105 D1:B411 83 -  -  -  	add	a, e
  106 D1:B412 C9 -  -  -  	ret
  107 D1:B413 -  -  -  -  vxLitRBG:
  108 D1:B413 -  -  -  -  ; lit a color (c) by factor (a) (0-63::255)
  109 D1:B413 -  -  -  -  ; destroy bc, hl
  110 D1:B413 47 -  -  -  	ld	b, a
  111 D1:B414 79 -  -  -  	ld	a, c
  112 D1:B415 E6 07 -  -  	and	VX_GREEN_BITS
  113 D1:B417 6F -  -  -  	ld	l, a
  114 D1:B418 60 -  -  -  	ld	h, b
  115 D1:B419 ED 6C -  -  	mlt	hl
  116 D1:B41B 29 -  -  -  	add	hl, hl
  117 D1:B41C 29 -  -  -  	add	hl, hl
  118 D1:B41D 7C -  -  -  	ld	a, h
  119 D1:B41E ED 64 F8 -  	tst	a, %11111000
  120 D1:B421 28 02 -  -  	jr	z, $+4
  121 D1:B423 26 07 -  -  	ld	h, VX_GREEN_BITS
  122 D1:B425 79 -  -  -  	ld	a, c
  123 D1:B426 E6 18 -  -  	and	VX_BLUE_BITS
  124 D1:B428 6F -  -  -  	ld	l, a
  125 D1:B429 7C -  -  -  	ld	a, h
  126 D1:B42A 60 -  -  -  	ld	h, b
  127 D1:B42B ED 6C -  -  	mlt	hl
  128 D1:B42D 29 -  -  -  	add	hl, hl
  129 D1:B42E 29 -  -  -  	add	hl, hl
  130 D1:B42F 6F -  -  -  	ld	l, a
  131 D1:B430 7C -  -  -  	ld	a, h
  132 D1:B431 ED 64 E0 -  	tst	a, %11100000
  133 D1:B434 28 02 -  -  	jr	z, $+4
  134 D1:B436 3E 18 -  -  	ld	a, VX_BLUE_BITS
  135 D1:B438 E6 18 -  -  	and	VX_BLUE_BITS
  136 D1:B43A B5 -  -  -  	or	l
  137 D1:B43B 60 -  -  -  	ld	h, b
  138 D1:B43C 47 -  -  -  	ld	b, a
  139 D1:B43D 79 -  -  -  	ld	a, c
  140 D1:B43E E6 E0 -  -  	and	VX_RED_BITS
  141 D1:B440 6F -  -  -  	ld	l, a
  142 D1:B441 ED 6C -  -  	mlt	hl
  143 D1:B443 7C -  -  -  	ld	a, h
  144 D1:B444 ED 64 C0 -  	tst	a, %11000000
  145 D1:B447 28 02 -  -  	jr	z, $+4
  146 D1:B449 26 38 -  -  	ld	h, VX_RED_BITS>>2
  147 D1:B44B 29 -  -  -  	add	hl, hl
  148 D1:B44C 29 -  -  -  	add	hl, hl
  149 D1:B44D 7C -  -  -  	ld	a, h
  150 D1:B44E E6 E0 -  -  	and	VX_RED_BITS
  151 D1:B450 B0 -  -  -  	or	b
  152 D1:B451 C9 -  -  -  	ret
  153 D1:B452 -  -  -  -  vxLerpRBG:
  154 D1:B452 -  -  -  -  ; 452 TStates
  155 D1:B452 E5 -  -  -  	push	hl
  156 D1:B453 46 -  -  -  	ld	b, (hl)
  157 D1:B454 -  -  -  -  ; b,c,e
  158 D1:B454 5F -  -  -  	ld	e, a
  159 D1:B455 78 -  -  -  	ld	a, b
  160 D1:B456 E6 07 -  -  	and	VX_GREEN_BITS	
  161 D1:B458 67 -  -  -  	ld	h, a
  162 D1:B459 79 -  -  -  	ld	a, c
  163 D1:B45A E6 07 -  -  	and	VX_GREEN_BITS
  164 D1:B45C 94 -  -  -  	sub	h
  165 D1:B45D 30 02 -  -  	jr	nc, $+4
  166 D1:B45F 2F -  -  -  	cpl
  167 D1:B460 3C -  -  -  	inc	a
  168 D1:B461 67 -  -  -  	ld	h, a
  169 D1:B462 6B -  -  -  	ld	l, e
  170 D1:B463 -  -  -  -  ; convert flag
  171 D1:B463 9F -  -  -  	sbc	a, a
  172 D1:B464 B7 -  -  -  	or	a, a
  173 D1:B465 -  -  -  -  ; c=nz, nc=z
  174 D1:B465 ED 6C -  -  	mlt	hl
  175 D1:B467 29 -  -  -  	add	hl, hl
  176 D1:B468 29 -  -  -  	add	hl, hl
  177 D1:B469 7C -  -  -  	ld	a, h
  178 D1:B46A 28 02 -  -  	jr	z, $+4
  179 D1:B46C ED 44 -  -  	neg	
  180 D1:B46E 67 -  -  -  	ld	h, a
  181 D1:B46F 78 -  -  -  	ld	a, b
  182 D1:B470 E6 07 -  -  	and	VX_GREEN_BITS
  183 D1:B472 84 -  -  -  	add	a, h
  184 D1:B473 57 -  -  -  	ld	d, a
  185 D1:B474 -  -  -  -  ; 138
  186 D1:B474 78 -  -  -  	ld	a, b
  187 D1:B475 E6 18 -  -  	and	VX_BLUE_BITS
  188 D1:B477 67 -  -  -  	ld	h, a
  189 D1:B478 79 -  -  -  	ld	a, c
  190 D1:B479 E6 18 -  -  	and	VX_BLUE_BITS
  191 D1:B47B 94 -  -  -  	sub	h
  192 D1:B47C 30 02 -  -  	jr	nc, $+4
  193 D1:B47E 2F -  -  -  	cpl
  194 D1:B47F 3C -  -  -  	inc	a
  195 D1:B480 67 -  -  -  	ld	h, a
  196 D1:B481 6B -  -  -  	ld	l, e
  197 D1:B482 ED 6C -  -  	mlt	hl
  198 D1:B484 CB 14 -  -  	rl	h	; push down carry flag	
  199 D1:B486 29 -  -  -  	add	hl, hl
  200 D1:B487 7C -  -  -  	ld	a, h
  201 D1:B488 E6 18 -  -  	and	VX_BLUE_BITS
  202 D1:B48A CB 4C -  -  	bit	1, h
  203 D1:B48C 28 02 -  -  	jr	z, $+4
  204 D1:B48E ED 44 -  -  	neg
  205 D1:B490 67 -  -  -  	ld	h, a
  206 D1:B491 78 -  -  -  	ld	a, b
  207 D1:B492 E6 18 -  -  	and	VX_BLUE_BITS
  208 D1:B494 84 -  -  -  	add	a, h
  209 D1:B495 B2 -  -  -  	or	d
  210 D1:B496 57 -  -  -  	ld	d, a
  211 D1:B497 -  -  -  -  ; 280
  212 D1:B497 78 -  -  -  	ld	a, b
  213 D1:B498 E6 E0 -  -  	and	VX_RED_BITS
  214 D1:B49A 67 -  -  -  	ld	h, a
  215 D1:B49B 79 -  -  -  	ld	a, c
  216 D1:B49C E6 E0 -  -  	and	VX_RED_BITS
  217 D1:B49E 94 -  -  -  	sub	h
  218 D1:B49F 30 02 -  -  	jr	nc, $+4
  219 D1:B4A1 2F -  -  -  	cpl
  220 D1:B4A2 3C -  -  -  	inc	a ; neg, put different flag output
  221 D1:B4A3 67 -  -  -  	ld	h, a
  222 D1:B4A4 6B -  -  -  	ld	l, e
  223 D1:B4A5 ED 6C -  -  	mlt	hl
  224 D1:B4A7 CB 14 -  -  	rl	h ; push down carry flag
  225 D1:B4A9 7C -  -  -  	ld	a, h
  226 D1:B4AA E6 70 -  -  	and	VX_RED_BITS>>1
  227 D1:B4AC CB 44 -  -  	bit	0, h
  228 D1:B4AE 28 02 -  -  	jr	z, $+4
  229 D1:B4B0 ED 44 -  -  	neg
  230 D1:B4B2 67 -  -  -  	ld	h, a
  231 D1:B4B3 78 -  -  -  	ld	a, b
  232 D1:B4B4 1F -  -  -  	rra
  233 D1:B4B5 E6 70 -  -  	and	VX_RED_BITS>>1
  234 D1:B4B7 84 -  -  -  	add	a, h
  235 D1:B4B8 CB 27 -  -  	sla	a
  236 D1:B4BA B2 -  -  -  	or	d
  237 D1:B4BB E1 -  -  -  	pop	hl
  238 D1:B4BC C9 -  -  -  	ret
Listing for file "C:\Users\Zeromus\Documents\GitHub\Virtual3D\vxMain.ez80"
    7 D1:B4BD -  -  -  -  #include	"vxClipping.ez80"
Listing for file "C:\Users\Zeromus\Documents\GitHub\Virtual3D\vxClipping.ez80"
    1 D1:B4BD -  -  -  -  #define  vxPlaneBit0             %10000000
    2 D1:B4BD -  -  -  -  #define  vxPlaneBit1             %01000000
    3 D1:B4BD -  -  -  -  #define  vxPlaneBit2             %00100000
    4 D1:B4BD -  -  -  -  #define  vxPlaneBit3             %00010000
    5 D1:B4BD -  -  -  -  #define  vxPlaneBit4             %00001000
    6 D1:B4BD -  -  -  -  #define  vxVertexDirty           %11111111
    7 D1:B4BD -  -  -  -  ;;#define  VX_CLIP_EPSILON        	32
    8 D1:B4BD -  -  -  -  #define  VX_MAX_TMP_VERTEX       8
    9 D1:B4BD -  -  -  -  #define  VX_MAX_PATCH_SIZE       16
   10 D1:B4BD -  -  -  -  #define  VX_SCREEN_WIDTH         320
   11 D1:B4BD -  -  -  -  #define  VX_SCREEN_HEIGHT        240
   12 D1:B4BD -  -  -  -  #define  VX_SCREEN_WCENTER       160
   13 D1:B4BD -  -  -  -  #define  VX_SCREEN_HCENTER       120
   14 D1:B4BD -  -  -  -  
   15 D1:B4BD -  -  -  -  VX_PATCH_INPUT:
   16 D1:B4BD 00 00 00 00 
              00 00 00 00 
              00 00 00 00 
              00 00 00 00 
              00 00 00 00 
              00 00 00 00 
              00 00 00 00 
              00 00 00 00 
              00 00 00 00 
              00 00 00 00 
              00 00 00 00 
              00 00 00 00 
              00 00 00 00 
              00 00 00 00 
              00 00 00 00 
              00 00 00 00 	.fill	64
   17 D1:B4FD -  -  -  -  VX_PATCH_OUTPUT:
   18 D1:B4FD 00 00 00 00 
              00 00 00 00 
              00 00 00 00 
              00 00 00 00 
              00 00 00 00 
              00 00 00 00 
              00 00 00 00 
              00 00 00 00 
              00 00 00 00 
              00 00 00 00 
              00 00 00 00 
              00 00 00 00 
              00 00 00 00 
              00 00 00 00 
              00 00 00 00 
              00 00 00 00 	.fill	64
   19 D1:B53D -  -  -  -  VX_VERTEX_POOL:
   20 D1:B53D 00 00 00 00 
              00 00 00 00 
              00 00 00 00 
              00 00 00 00 
              00 00 00 00 
              00 00 00 00 
              00 00 00 00 
              00 00 00 00 
              00 00 00 00 
              00 00 00 00 
              00 00 00 00 
              00 00 00 00 
              00 00 00 00 
              00 00 00 00 
              00 00 00 00 
              00 00 00 00 
              00 00 00 00 
              00 00 00 00 
              00 00 00 00 
              00 00 00 00 
              00 00 00 00 
              00 00 00 00 
              00 00 00 00 
              00 00 00 00 
              00 00 00 00 
              00 00 00 00 
              00 00 00 00 
              00 00 00 00 
              00 00 00 00 
              00 00 00 00 
              00 00 00 00 
              00 00 00 00 	.fill	128
   21 D1:B5BD -  -  -  -  vxNewSize:
   22 D1:B5BD 00 -  -  -  	.db	0
   23 D1:B5BE -  -  -  -  vxVertexAdress:
   24 D1:B5BE 00 00 00 -  	.dl	0
   25 D1:B5C1 -  -  -  -  VX_CLIP_VERTEX0:
   26 D1:B5C1 00 00 00 00 
              00 00 00 00 
              00 00 00 00 
              00 00 00 00 
              00 00 -  -  	.dl	0,0,0,0,0,0
   27 D1:B5D3 -  -  -  -  VX_CLIP_VERTEX1:
   28 D1:B5D3 00 00 00 00 
              00 00 00 00 
              00 00 00 00 
              00 00 00 00 
              00 00 -  -  	.dl	0,0,0,0,0,0
   29 D1:B5E5 -  -  -  -  vxMixWrite:
   30 D1:B5E5 00 00 00 00 	.db	0,0,0,0
   31 D1:B5E9 -  -  -  -  
   32 D1:B5E9 -  -  -  -  vxClipTriangle:
   33 D1:B5E9 FD 22 72 B6 
              D1 -  -  -  	ld	(vxClipDraw), iy
   34 D1:B5EE FD 21 FD B4 
              D1 -  -  -  	ld	iy, VX_PATCH_OUTPUT
   35 D1:B5F3 FD 1F 00 -  	ld	(iy+0), de
   36 D1:B5F6 FD 2F 03 -  	ld	(iy+3), hl
   37 D1:B5F9 FD 0F 06 -  	ld	(iy+6), bc
   38 D1:B5FC FD 1F 09 -  	ld	(iy+9), de
   39 D1:B5FF 21 3D B5 D1 	ld	hl, VX_VERTEX_POOL
   40 D1:B603 22 BE B5 D1 	ld	(vxVertexAdress), hl
   41 D1:B607 -  -  -  -  
   42 D1:B607 06 03 -  -  	ld	b, 3
   43 D1:B609 -  -  -  -  
   44 D1:B609 ED 64 80 -  	tst	a, %10000000
   45 D1:B60C 28 0D -  -  	jr	z, vxNextPlane0
   46 D1:B60E F5 -  -  -  	push	af
   47 D1:B60F 3E 80 -  -  	ld	a, %10000000
   48 D1:B611 DD 21 F3 B7 
              D1 -  -  -  	ld	ix, vxRightDistance
   49 D1:B616 CD 79 B6 D1 	call	vxClipPlanePolygon
   50 D1:B61A F1 -  -  -  	pop	af
   51 D1:B61B -  -  -  -  vxNextPlane0:
   52 D1:B61B ED 64 40 -  	tst	a, %01000000
   53 D1:B61E 28 0D -  -  	jr	z, vxNextPlane1
   54 D1:B620 F5 -  -  -  	push	af
   55 D1:B621 3E 40 -  -  	ld	a, %01000000
   56 D1:B623 DD 21 06 B8 
              D1 -  -  -  	ld	ix, vxLeftDistance
   57 D1:B628 CD 79 B6 D1 	call	vxClipPlanePolygon
   58 D1:B62C F1 -  -  -  	pop	af
   59 D1:B62D -  -  -  -  vxNextPlane1:
   60 D1:B62D ED 64 20 -  	tst	a, %00100000
   61 D1:B630 28 0D -  -  	jr	z, vxNextPlane2
   62 D1:B632 F5 -  -  -  	push	af
   63 D1:B633 3E 20 -  -  	ld	a, %00100000
   64 D1:B635 DD 21 17 B8 
              D1 -  -  -  	ld	ix, vxDownDistance
   65 D1:B63A CD 79 B6 D1 	call	vxClipPlanePolygon
   66 D1:B63E F1 -  -  -  	pop	af
   67 D1:B63F -  -  -  -  vxNextPlane2:
   68 D1:B63F ED 64 10 -  	tst	a, %00010000
   69 D1:B642 28 0D -  -  	jr	z, vxClipEnd
   70 D1:B644 F5 -  -  -  	push	af
   71 D1:B645 3E 10 -  -  	ld	a, %00010000
   72 D1:B647 DD 21 27 B8 
              D1 -  -  -  	ld	ix, vxUpDistance
   73 D1:B64C CD 79 B6 D1 	call	vxClipPlanePolygon
   74 D1:B650 F1 -  -  -  	pop	af
   75 D1:B651 -  -  -  -  vxClipEnd:
   76 D1:B651 -  -  -  -  
   77 D1:B651 78 -  -  -  	ld	a, b
   78 D1:B652 FE 03 -  -  	cp	a, 3
   79 D1:B654 D8 -  -  -  	ret	c	; preventive quit
   80 D1:B655 F5 -  -  -  	push	af
   81 D1:B656 FD E5 -  -  	push	iy
   82 D1:B658 ED 54 00 -  	lea	ix, iy+0
   83 D1:B65B -  -  -  -  vxClipLoop:
   84 D1:B65B C5 -  -  -  	push	bc
   85 D1:B65C DD 31 00 -  	ld	iy, (ix+0)
   86 D1:B65F FD 7E 00 -  	ld	a, (iy+0)
   87 D1:B662 E6 01 -  -  	and	$01
   88 D1:B664 C4 12 B9 D1 	call	nz, vxClipDivide
   89 D1:B668 C1 -  -  -  	pop	bc
   90 D1:B669 ED 32 03 -  	lea	ix, ix+3
   91 D1:B66C 10 ED -  -  	djnz	vxClipLoop
   92 D1:B66E FD E1 -  -  	pop	iy
   93 D1:B670 F1 -  -  -  	pop	af
   94 D1:B671 -  -  -  -  vxClipDraw=$+1
   95 D1:B671 C3 00 00 00 	jp	$000000
   96 D1:B675 -  -  -  -  vxClipDistance:
   97 D1:B675 -  -  -  -  CALL=$+1
   98 D1:B675 C3 00 00 00 	jp	$000000
   99 D1:B679 -  -  -  -  vxClipPlanePolygon:
  100 D1:B679 -  -  -  -  ; don't destroy bc
  101 D1:B679 -  -  -  -  ; input : iy list, b:size,ix:dcall, a:mask
  102 D1:B679 -  -  -  -  ; ouput : iy newlist, b:newsize
  103 D1:B679 32 B5 B6 D1 	ld	(vxMM0), a
  104 D1:B67D 32 BD B6 D1 	ld	(vxMM1), a
  105 D1:B681 32 E0 B6 D1 	ld	(vxMM2), a
  106 D1:B685 AF -  -  -  	xor	a
  107 D1:B686 32 BD B5 D1 	ld	(vxNewSize), a
  108 D1:B68A 78 -  -  -  	ld	a, b
  109 D1:B68B B7 -  -  -  	or	a, a
  110 D1:B68C C8 -  -  -  	ret	z
  111 D1:B68D DD 22 76 B6 
              D1 -  -  -  	ld	(CALL), ix
  112 D1:B692 -  -  -  -  
  113 D1:B692 04 -  -  -  	inc	b
  114 D1:B693 0E 03 -  -  	ld	c, 3
  115 D1:B695 ED 4C -  -  	mlt	bc	; size of copy
  116 D1:B697 ED 23 00 -  	lea	hl, iy
  117 D1:B69A 11 BD B4 D1 	ld	de, VX_PATCH_INPUT
  118 D1:B69E ED B0 -  -  	ldir
  119 D1:B6A0 -  -  -  -  ; parse through VX_PATCH_INPUT, output is VX_PATCH_OUTPUT
  120 D1:B6A0 47 -  -  -  	ld	b, a
  121 D1:B6A1 FD 21 BD B4 
              D1 -  -  -  	ld	iy, VX_PATCH_INPUT
  122 D1:B6A6 DD 21 FD B4 
              D1 -  -  -  	ld	ix, VX_PATCH_OUTPUT
  123 D1:B6AB -  -  -  -  vxClipSutherHodgmanLoop:
  124 D1:B6AB C5 -  -  -  	push	bc
  125 D1:B6AC FD 27 00 -  	ld	hl, (iy+0)
  126 D1:B6AF FD 17 03 -  	ld	de, (iy+3)
  127 D1:B6B2 1A -  -  -  	ld	a, (de)
  128 D1:B6B3 A6 -  -  -  	and	(hl)
  129 D1:B6B4 -  -  -  -  vxMM0=$+1
  130 D1:B6B4 E6 00 -  -  	and	0
  131 D1:B6B6 C2 D0 B7 D1 	jp	nz, vxClipContinueX
  132 D1:B6BA 1A -  -  -  	ld	a, (de)
  133 D1:B6BB B6 -  -  -  	or	(hl)
  134 D1:B6BC -  -  -  -  vxMM1=$+1
  135 D1:B6BC E6 00 -  -  	and	0
  136 D1:B6BE 20 13 -  -  	jr	nz, vxClipCheck0
  137 D1:B6C0 DD 2F 00 -  	ld	(ix+0), hl		; both point out, copy v0
  138 D1:B6C3 ED 32 03 -  	lea	ix, ix+3
  139 D1:B6C6 3A BD B5 D1 	ld	a, (vxNewSize)
  140 D1:B6CA 3C -  -  -  	inc	a
  141 D1:B6CB 32 BD B5 D1 	ld	(vxNewSize), a
  142 D1:B6CF C3 D0 B7 D1 	jp	vxClipContinueX
  143 D1:B6D3 -  -  -  -  vxClipCheck0:
  144 D1:B6D3 7E -  -  -  	ld	a, (hl)
  145 D1:B6D4 DD E5 -  -  	push	ix
  146 D1:B6D6 CD 75 B6 D1 	call	vxClipDistance
  147 D1:B6DA EB -  -  -  	ex	de, hl	; distance 0
  148 D1:B6DB CD 75 B6 D1 	call	vxClipDistance
  149 D1:B6DF -  -  -  -  vxMM2=$+1
  150 D1:B6DF E6 00 -  -  	and	0
  151 D1:B6E1 F5 -  -  -  	push	af	; is edge leaving
  152 D1:B6E2 -  -  -  -  
  153 D1:B6E2 E5 -  -  -  	push	hl
  154 D1:B6E3 B7 -  -  -  	or	a, a
  155 D1:B6E4 ED 52 -  -  	sbc	hl, de	; d0/(d0-d1)
  156 D1:B6E6 D1 -  -  -  	pop	de
  157 D1:B6E7 EB -  -  -  	ex	de, hl
  158 D1:B6E8 CD 8C B8 D1 	call	vxClipFactor
  159 D1:B6EC -  -  -  -  
  160 D1:B6EC FD 31 03 -  	ld	ix, (iy+3)
  161 D1:B6EF DD 17 0D -  	ld	de, (ix+VX_VERTEX_RZ)
  162 D1:B6F2 FD 31 00 -  	ld	ix, (iy+0)
  163 D1:B6F5 DD 27 0D -  	ld	hl, (ix+VX_VERTEX_RZ)
  164 D1:B6F8 CD 45 B8 D1 	call	vxClipMixWord
  165 D1:B6FC 22 CE B5 D1 	ld	(VX_CLIP_VERTEX0+VX_VERTEX_RZ), hl
  166 D1:B700 -  -  -  -  
  167 D1:B700 FD 31 03 -  	ld	ix, (iy+3)
  168 D1:B703 DD 17 07 -  	ld	de, (ix+VX_VERTEX_RX)
  169 D1:B706 FD 31 00 -  	ld	ix, (iy+0)
  170 D1:B709 DD 27 07 -  	ld	hl, (ix+VX_VERTEX_RX)
  171 D1:B70C CD 45 B8 D1 	call	vxClipMixWord
  172 D1:B710 22 C8 B5 D1 	ld	(VX_CLIP_VERTEX0+VX_VERTEX_RX), hl
  173 D1:B714 -  -  -  -  
  174 D1:B714 FD 31 03 -  	ld	ix, (iy+3)
  175 D1:B717 DD 17 0A -  	ld	de, (ix+VX_VERTEX_RY)
  176 D1:B71A FD 31 00 -  	ld	ix, (iy+0)
  177 D1:B71D DD 27 0A -  	ld	hl, (ix+VX_VERTEX_RY)
  178 D1:B720 CD 45 B8 D1 	call	vxClipMixWord
  179 D1:B724 22 CB B5 D1 	ld	(VX_CLIP_VERTEX0+VX_VERTEX_RY), hl
  180 D1:B728 -  -  -  -  
  181 D1:B728 11 00 00 00 	ld	de, 0
  182 D1:B72C FD 31 03 -  	ld	ix, (iy+3)
  183 D1:B72F DD 5E 04 -  	ld	e, (ix+VX_VERTEX_GPR0)
  184 D1:B732 FD 31 00 -  	ld	ix, (iy+0)
  185 D1:B735 DD 56 04 -  	ld	d, (ix+VX_VERTEX_GPR0)
  186 D1:B738 -  -  -  -  	;;call	vxClipMixByte
  187 D1:B738 7A -  -  -  	ld	a, d
  188 D1:B739 93 -  -  -  	sub	e
  189 D1:B73A 6F -  -  -  	ld	l, a
  190 D1:B73B 60 -  -  -  	ld	h, b
  191 D1:B73C ED 6C -  -  	mlt	hl
  192 D1:B73E 30 03 -  -  	jr	nc, $+5
  193 D1:B740 7C -  -  -  	ld	a, h
  194 D1:B741 90 -  -  -  	sub	b
  195 D1:B742 67 -  -  -  	ld	h, a
  196 D1:B743 53 -  -  -  	ld	d, e
  197 D1:B744 1E 00 -  -  	ld	e, 0
  198 D1:B746 19 -  -  -  	add	hl, de
  199 D1:B747 7C -  -  -  	ld	a, h
  200 D1:B748 -  -  -  -  
  201 D1:B748 32 C5 B5 D1 	ld	(VX_CLIP_VERTEX0+VX_VERTEX_GPR0), a
  202 D1:B74C -  -  -  -  
  203 D1:B74C FD 31 03 -  	ld	ix, (iy+3)
  204 D1:B74F DD 5E 05 -  	ld	e, (ix+VX_VERTEX_GPR1)
  205 D1:B752 FD 31 00 -  	ld	ix, (iy+0)
  206 D1:B755 DD 56 05 -  	ld	d, (ix+VX_VERTEX_GPR1)
  207 D1:B758 -  -  -  -  	;call	vxClipMixByte
  208 D1:B758 -  -  -  -  
  209 D1:B758 7A -  -  -  	ld	a, d
  210 D1:B759 93 -  -  -  	sub	e
  211 D1:B75A 6F -  -  -  	ld	l, a
  212 D1:B75B 60 -  -  -  	ld	h, b
  213 D1:B75C ED 6C -  -  	mlt	hl
  214 D1:B75E 30 03 -  -  	jr	nc, $+5
  215 D1:B760 7C -  -  -  	ld	a, h
  216 D1:B761 90 -  -  -  	sub	b
  217 D1:B762 67 -  -  -  	ld	h, a
  218 D1:B763 53 -  -  -  	ld	d, e
  219 D1:B764 1E 00 -  -  	ld	e, 0
  220 D1:B766 19 -  -  -  	add	hl, de
  221 D1:B767 7C -  -  -  	ld	a, h
  222 D1:B768 -  -  -  -  
  223 D1:B768 32 C6 B5 D1 	ld	(VX_CLIP_VERTEX0+VX_VERTEX_GPR1), a
  224 D1:B76C -  -  -  -  
  225 D1:B76C DD 21 C1 B5 
              D1 -  -  -  	ld	ix, VX_CLIP_VERTEX0+0
  226 D1:B771 CD F2 B9 D1 	call	vxClipFrustrumCode
  227 D1:B775 F6 01 -  -  	or	a, $01
  228 D1:B777 DD 77 00 -  	ld	(ix+0), a
  229 D1:B77A -  -  -  -  
  230 D1:B77A -  -  -  -  ; do specific edge shift here
  231 D1:B77A F1 -  -  -  	pop	af
  232 D1:B77B DD E1 -  -  	pop	ix
  233 D1:B77D -  -  -  -  
  234 D1:B77D C2 AD B7 D1 	jp	nz, vxEdgeRentring
  235 D1:B781 -  -  -  -  ; edge leaving
  236 D1:B781 -  -  -  -  ; copy clip vertex, output both v0 and intersection
  237 D1:B781 FD 27 00 -  	ld	hl, (iy+0)
  238 D1:B784 DD 2F 00 -  	ld	(ix+0), hl
  239 D1:B787 21 C1 B5 D1 	ld	hl, VX_CLIP_VERTEX0
  240 D1:B78B ED 5B BE B5 
              D1 -  -  -  	ld	de, (vxVertexAdress)
  241 D1:B790 DD 1F 03 -  	ld	(ix+3), de
  242 D1:B793 01 10 00 00 	ld	bc, 16
  243 D1:B797 ED B0 -  -  	ldir
  244 D1:B799 ED 53 BE B5 
              D1 -  -  -  	ld	(vxVertexAdress), de
  245 D1:B79E ED 32 06 -  	lea	ix, ix+6
  246 D1:B7A1 3A BD B5 D1 	ld	a, (vxNewSize)
  247 D1:B7A5 C6 02 -  -  	add	a, 2
  248 D1:B7A7 32 BD B5 D1 	ld	(vxNewSize), a
  249 D1:B7AB 18 23 -  -  	jr	vxClipContinueX
  250 D1:B7AD -  -  -  -  vxEdgeRentring:
  251 D1:B7AD -  -  -  -  ; copy clip vertex, output intersection
  252 D1:B7AD 21 C1 B5 D1 	ld	hl, VX_CLIP_VERTEX0
  253 D1:B7B1 ED 5B BE B5 
              D1 -  -  -  	ld	de, (vxVertexAdress)
  254 D1:B7B6 DD 1F 00 -  	ld	(ix+0), de
  255 D1:B7B9 01 10 00 00 	ld	bc, 16
  256 D1:B7BD ED B0 -  -  	ldir
  257 D1:B7BF ED 53 BE B5 
              D1 -  -  -  	ld	(vxVertexAdress), de
  258 D1:B7C4 ED 32 03 -  	lea	ix, ix+3
  259 D1:B7C7 3A BD B5 D1 	ld	a, (vxNewSize)
  260 D1:B7CB 3C -  -  -  	inc	a
  261 D1:B7CC 32 BD B5 D1 	ld	(vxNewSize), a
  262 D1:B7D0 -  -  -  -  vxClipContinueX:
  263 D1:B7D0 ED 33 03 -  	lea	iy, iy+3
  264 D1:B7D3 C1 -  -  -  	pop	bc
  265 D1:B7D4 05 -  -  -  	dec	b
  266 D1:B7D5 C2 AB B6 D1 	jp	nz, vxClipSutherHodgmanLoop
  267 D1:B7D9 3A BD B5 D1 	ld	a, (vxNewSize)
  268 D1:B7DD 47 -  -  -  	ld	b, a
  269 D1:B7DE FD 21 FD B4 
              D1 -  -  -  	ld	iy, VX_PATCH_OUTPUT
  270 D1:B7E3 -  -  -  -  ; make output cyclic
  271 D1:B7E3 FD 27 00 -  	ld	hl, (iy+0)
  272 D1:B7E6 DD 2F 00 -  	ld	(ix+0), hl
  273 D1:B7E9 -  -  -  -  ; important is iy = new patch
  274 D1:B7E9 C9 -  -  -  	ret
  275 D1:B7EA -  -  -  -  vxZDistance:
  276 D1:B7EA 01 0D 00 00 	ld	bc, VX_VERTEX_RZ
  277 D1:B7EE 09 -  -  -  	add	hl, bc
  278 D1:B7EF ED 27 -  -  	ld	hl, (hl)
  279 D1:B7F1 2B -  -  -  	dec	hl
  280 D1:B7F2 C9 -  -  -  	ret
  281 D1:B7F3 -  -  -  -  vxRightDistance:
  282 D1:B7F3 -  -  -  -  tRT:
  283 D1:B7F3 -  -  -  -  ;1000
  284 D1:B7F3 -  -  -  -  ; input hl, test for X>Z
  285 D1:B7F3 01 07 00 00 	ld	bc, VX_VERTEX_RX
  286 D1:B7F7 09 -  -  -  	add	hl, bc
  287 D1:B7F8 ED 07 -  -  	ld	bc, (hl)
  288 D1:B7FA 23 23 23 -  	inc	hl \ inc hl \ inc hl
  289 D1:B7FD 23 23 23 -  	inc	hl \ inc hl \ inc hl
  290 D1:B800 ED 27 -  -  	ld	hl, (hl)
  291 D1:B802 B7 -  -  -  	or	a, a
  292 D1:B803 ED 42 -  -  	sbc	hl, bc	;Z-X, if > ; R<0
  293 D1:B805 C9 -  -  -  	ret
  294 D1:B806 -  -  -  -  vxLeftDistance:
  295 D1:B806 -  -  -  -  ttLT:
  296 D1:B806 -  -  -  -  ; 0100
  297 D1:B806 01 07 00 00 	ld	bc, VX_VERTEX_RX
  298 D1:B80A 09 -  -  -  	add	hl, bc
  299 D1:B80B ED 07 -  -  	ld	bc, (hl)
  300 D1:B80D 23 23 23 -  	inc	hl \ inc hl \ inc hl
  301 D1:B810 23 23 23 -  	inc	hl \ inc hl \ inc hl
  302 D1:B813 ED 27 -  -  	ld	hl, (hl)
  303 D1:B815 09 -  -  -  	add	hl, bc
  304 D1:B816 C9 -  -  -  	ret
  305 D1:B817 -  -  -  -  vxDownDistance:
  306 D1:B817 -  -  -  -  tDWP:
  307 D1:B817 01 0A 00 00 	ld	bc, VX_VERTEX_RY
  308 D1:B81B 09 -  -  -  	add	hl, bc
  309 D1:B81C ED 07 -  -  	ld	bc, (hl)
  310 D1:B81E 23 23 23 -  	inc	hl \ inc hl \ inc hl
  311 D1:B821 ED 27 -  -  	ld	hl, (hl)
  312 D1:B823 B7 -  -  -  	or	a, a
  313 D1:B824 ED 42 -  -  	sbc	hl, bc
  314 D1:B826 C9 -  -  -  	ret
  315 D1:B827 -  -  -  -  vxUpDistance:
  316 D1:B827 -  -  -  -  tUPP:
  317 D1:B827 01 0A 00 00 	ld	bc, VX_VERTEX_RY
  318 D1:B82B 09 -  -  -  	add	hl, bc
  319 D1:B82C ED 07 -  -  	ld	bc, (hl)
  320 D1:B82E 23 23 23 -  	inc	hl \ inc hl \ inc hl
  321 D1:B831 ED 27 -  -  	ld	hl, (hl)
  322 D1:B833 09 -  -  -  	add	hl, bc
  323 D1:B834 C9 -  -  -  	ret
  324 D1:B835 -  -  -  -  
  325 D1:B835 -  -  -  -  vxClipMixByte:
  326 D1:B835 -  -  -  -  ; a = (d-e)*bc/65536+e
  327 D1:B835 7A -  -  -  	ld	a, d
  328 D1:B836 93 -  -  -  	sub	e
  329 D1:B837 6F -  -  -  	ld	l, a
  330 D1:B838 60 -  -  -  	ld	h, b
  331 D1:B839 ED 6C -  -  	mlt	hl
  332 D1:B83B 30 03 -  -  	jr	nc, $+5
  333 D1:B83D B7 -  -  -  	or	a, a
  334 D1:B83E ED 42 -  -  	sbc	hl, bc
  335 D1:B840 53 -  -  -  	ld	d, e
  336 D1:B841 1E 00 -  -  	ld	e, 0
  337 D1:B843 19 -  -  -  	add	hl, de
  338 D1:B844 C9 -  -  -  	ret
  339 D1:B845 -  -  -  -  
  340 D1:B845 -  -  -  -  vxClipMixWord:
  341 D1:B845 -  -  -  -  ; (hl-de)*bc/65536+de
  342 D1:B845 D5 -  -  -  	push	de
  343 D1:B846 B7 -  -  -  	or	a, a
  344 D1:B847 ED 52 -  -  	sbc	hl, de
  345 D1:B849 22 E5 B5 D1 	ld	(vxMixWrite), hl
  346 D1:B84D DD 21 E5 B5 
              D1 -  -  -  	ld	ix, vxMixWrite
  347 D1:B852 -  -  -  -  
  348 D1:B852 DD 66 02 -  	ld	h, (ix+2)
  349 D1:B855 CB 7C -  -  	bit	7, h
  350 D1:B857 68 -  -  -  	ld	l, b
  351 D1:B858 ED 6C -  -  	mlt	hl
  352 D1:B85A 28 03 -  -  	jr	z, $+5
  353 D1:B85C B7 -  -  -  	or	a, a
  354 D1:B85D ED 42 -  -  	sbc	hl, bc
  355 D1:B85F -  -  -  -  
  356 D1:B85F 29 29 29 29 
              29 29 29 29 	slhl
Listing for file "C:\Users\Zeromus\Documents\GitHub\Virtual3D\vx3D.inc"
Listing for file "C:\Users\Zeromus\Documents\GitHub\Virtual3D\vxClipping.ez80"
  357 D1:B867 -  -  -  -  
  358 D1:B867 DD 56 01 -  	ld	d, (ix+1)
  359 D1:B86A 58 -  -  -  	ld	e, b
  360 D1:B86B ED 5C -  -  	mlt	de
  361 D1:B86D 19 -  -  -  	add	hl, de
  362 D1:B86E -  -  -  -  
  363 D1:B86E DD 56 00 -  	ld	d, (ix+0)
  364 D1:B871 58 -  -  -  	ld	e, b
  365 D1:B872 ED 5C -  -  	mlt	de
  366 D1:B874 5A -  -  -  	ld	e, d
  367 D1:B875 16 00 -  -  	ld	d, 0
  368 D1:B877 19 -  -  -  	add	hl, de
  369 D1:B878 -  -  -  -  
  370 D1:B878 DD 56 02 -  	ld	d, (ix+2)
  371 D1:B87B 59 -  -  -  	ld	e, c
  372 D1:B87C ED 5C -  -  	mlt	de
  373 D1:B87E 19 -  -  -  	add	hl, de
  374 D1:B87F -  -  -  -  
  375 D1:B87F DD 56 01 -  	ld	d, (ix+1)
  376 D1:B882 59 -  -  -  	ld	e, c
  377 D1:B883 ED 5C -  -  	mlt	de
  378 D1:B885 5A -  -  -  	ld	e, d
  379 D1:B886 16 00 -  -  	ld	d, 0
  380 D1:B888 19 -  -  -  	add	hl, de
  381 D1:B889 -  -  -  -  
  382 D1:B889 D1 -  -  -  	pop	de
  383 D1:B88A 19 -  -  -  	add	hl, de
  384 D1:B88B -  -  -  -  
  385 D1:B88B C9 -  -  -  	ret
  386 D1:B88C -  -  -  -  
  387 D1:B88C -  -  -  -  vxClipFactor:
  388 D1:B88C -  -  -  -  ; hl*65536/de, nz = do 65536-bc, z = bc
  389 D1:B88C -  -  -  -  ; 467 TStates
  390 D1:B88C 52 03 -  -     inc.s bc
  391 D1:B88E 29 -  -  -     add   hl,hl
  392 D1:B88F 30 10 -  -  	jr	nc, vxx
  393 D1:B891 D5 -  -  -  	push	de
  394 D1:B892 EB -  -  -  	ex	de, hl
  395 D1:B893 B7 -  -  -  	or	a, a
  396 D1:B894 ED 62 -  -  	sbc	hl, hl
  397 D1:B896 ED 52 -  -  	sbc	hl, de
  398 D1:B898 D1 -  -  -  	pop	de
  399 D1:B899 -  -  -  -  
  400 D1:B899 E5 -  -  -  	push	hl
  401 D1:B89A B7 -  -  -  	or	a, a
  402 D1:B89B ED 62 -  -  	sbc	hl, hl
  403 D1:B89D ED 52 -  -  	sbc	hl, de
  404 D1:B89F EB -  -  -  	ex	de, hl
  405 D1:B8A0 E1 -  -  -  	pop	hl
  406 D1:B8A1 -  -  -  -  
  407 D1:B8A1 -  -  -  -  vxx:
  408 D1:B8A1 ED 52 30 01 
              19 8F -  -  	sbc hl,de \ jr nc,$+3 \ add hl,de \ adc a,a
  409 D1:B8A7 29 ED 52 30 
              01 19 8F -     add   hl,hl \ sbc hl,de \ jr nc,$+3 \ add hl,de \ adc a,a
  410 D1:B8AE 29 ED 52 30 
              01 19 8F -     add   hl,hl \ sbc hl,de \ jr nc,$+3 \ add hl,de \ adc a,a
  411 D1:B8B5 29 ED 52 30 
              01 19 8F -     add   hl,hl \ sbc hl,de \ jr nc,$+3 \ add hl,de \ adc a,a
  412 D1:B8BC 29 ED 52 30 
              01 19 8F -     add   hl,hl \ sbc hl,de \ jr nc,$+3 \ add hl,de \ adc a,a
  413 D1:B8C3 29 ED 52 30 
              01 19 8F -     add   hl,hl \ sbc hl,de \ jr nc,$+3 \ add hl,de \ adc a,a
  414 D1:B8CA 29 ED 52 30 
              01 19 8F -     add   hl,hl \ sbc hl,de \ jr nc,$+3 \ add hl,de \ adc a,a
  415 D1:B8D1 29 ED 52 30 
              01 19 8F -     add   hl,hl \ sbc hl,de \ jr nc,$+3 \ add hl,de \ adc a,a
  416 D1:B8D8 2F -  -  -     cpl
  417 D1:B8D9 47 -  -  -     ld   b, a
  418 D1:B8DA 29 ED 52 30 
              01 19 8F -     add   hl,hl \ sbc hl,de \ jr nc,$+3 \ add hl,de \ adc a,a
  419 D1:B8E1 29 ED 52 30 
              01 19 8F -     add   hl,hl \ sbc hl,de \ jr nc,$+3 \ add hl,de \ adc a,a
  420 D1:B8E8 29 ED 52 30 
              01 19 8F -     add   hl,hl \ sbc hl,de \ jr nc,$+3 \ add hl,de \ adc a,a
  421 D1:B8EF 29 ED 52 30 
              01 19 8F -     add   hl,hl \ sbc hl,de \ jr nc,$+3 \ add hl,de \ adc a,a
  422 D1:B8F6 29 ED 52 30 
              01 19 8F -     add   hl,hl \ sbc hl,de \ jr nc,$+3 \ add hl,de \ adc a,a
  423 D1:B8FD 29 ED 52 30 
              01 19 8F -     add   hl,hl \ sbc hl,de \ jr nc,$+3 \ add hl,de \ adc a,a
  424 D1:B904 29 ED 52 30 
              01 19 8F -     add   hl,hl \ sbc hl,de \ jr nc,$+3 \ add hl,de \ adc a,a
  425 D1:B90B 29 ED 52 8F    add   hl,hl \ sbc hl,de \ adc a,a
  426 D1:B90F 2F -  -  -     cpl
  427 D1:B910 4F -  -  -     ld   c, a
  428 D1:B911 C9 -  -  -  	ret
  429 D1:B912 -  -  -  -  
  430 D1:B912 -  -  -  -  vxClipDivide:
  431 D1:B912 FD 07 0D -  	ld	bc, (iy+VX_VERTEX_RZ)
  432 D1:B915 FD CB 0F 7E 	bit	7, (iy+VX_VERTEX_RZ+2)
  433 D1:B919 28 04 -  -  	jr	z, vxClampZ
  434 D1:B91B 01 02 00 00 	ld	bc, 2
  435 D1:B91F -  -  -  -  vxClampZ:
  436 D1:B91F FD 27 0A -  	ld	hl, (iy+VX_VERTEX_RY)
  437 D1:B922 AF -  -  -  	xor	a, a
  438 D1:B923 29 -  -  -  	add	hl, hl
  439 D1:B924 30 06 -  -  	jr	nc, $+8
  440 D1:B926 17 -  -  -  	rla
  441 D1:B927 EB -  -  -  	ex   de, hl
  442 D1:B928 ED 62 -  -  	sbc   hl, hl
  443 D1:B92A ED 52 -  -  	sbc   hl, de
  444 D1:B92C -  -  -  -  
  445 D1:B92C ED 42 FA 43 
              B9 D1 -  -  	sbc	hl, bc \ jp m, vxClipNextY
  446 D1:B932 B7 -  -  -  	or	a, a
  447 D1:B933 -  -  -  -  ; potential clipping issue
  448 D1:B933 ED 42 -  -  	sbc	hl, bc
  449 D1:B935 FA 42 B9 D1 	jp	m, vxClipNextYCarry
  450 D1:B939 1F -  -  -  	rra
  451 D1:B93A 3E 00 -  -  	ld	a, VX_SCREEN_HCENTER-(VX_SCREEN_HEIGHT/2)
  452 D1:B93C 30 3B -  -  	jr	nc, vxClipWriteY
  453 D1:B93E 3E F0 -  -  	ld	a, VX_SCREEN_HCENTER+(VX_SCREEN_HEIGHT/2)
  454 D1:B940 18 37 -  -  	jr	vxClipWriteY
  455 D1:B942 -  -  -  -  vxClipNextYCarry:
  456 D1:B942 B7 -  -  -  	or	a, a
  457 D1:B943 -  -  -  -  vxClipNextY:
  458 D1:B943 8F 09 -  -     adc a,a \ add hl,bc
  459 D1:B945 29 ED 42 30 
              01 09 8F -     add hl,hl \ sbc hl,bc \ jr nc,$+3 \ add hl,bc \ adc a,a
  460 D1:B94C 29 ED 42 30 
              01 09 8F -     add hl,hl \ sbc hl,bc \ jr nc,$+3 \ add hl,bc \ adc a,a
  461 D1:B953 29 ED 42 30 
              01 09 8F -     add hl,hl \ sbc hl,bc \ jr nc,$+3 \ add hl,bc \ adc a,a
  462 D1:B95A 29 ED 42 30 
              01 09 8F -     add hl,hl \ sbc hl,bc \ jr nc,$+3 \ add hl,bc \ adc a,a
  463 D1:B961 29 ED 42 30 
              01 09 8F -     add hl,hl \ sbc hl,bc \ jr nc,$+3 \ add hl,bc \ adc a,a
  464 D1:B968 29 ED 42 8F    add hl,hl \ sbc hl,bc \ adc a,a
  465 D1:B96C 2F -  -  -     cpl
  466 D1:B96D -  -  -  -  
  467 D1:B96D 87 -  -  -     add   a, a
  468 D1:B96E 2E 79 -  -     ld   l, VX_SCREEN_HEIGHT/2+1 ;precision stuffs
  469 D1:B970 67 -  -  -     ld   h, a
  470 D1:B971 ED 6C -  -     mlt   hl
  471 D1:B973 7C -  -  -     ld   a, h
  472 D1:B974 30 01 -  -     jr   nc, $+3
  473 D1:B976 2F -  -  -     cpl
  474 D1:B977 CE 78 -  -     adc   a, VX_SCREEN_HCENTER
  475 D1:B979 -  -  -  -  vxClipWriteY:
  476 D1:B979 FD 77 01 -  	ld	(iy+VX_VERTEX_SY), a
  477 D1:B97C -  -  -  -  
  478 D1:B97C FD 27 07 -  	ld	hl, (iy+VX_VERTEX_RX)
  479 D1:B97F AF -  -  -  	xor	a, a
  480 D1:B980 29 -  -  -  	add	hl, hl
  481 D1:B981 30 06 -  -  	jr	nc, $+8
  482 D1:B983 17 -  -  -  	rla
  483 D1:B984 EB -  -  -  	ex   de, hl
  484 D1:B985 ED 62 -  -  	sbc   hl, hl
  485 D1:B987 ED 52 -  -  	sbc   hl, de
  486 D1:B989 -  -  -  -  
  487 D1:B989 ED 42 FA A4 
              B9 D1 -  -  	sbc	hl, bc \ jp m, vxClipNextX
  488 D1:B98F B7 -  -  -  	or	a, a
  489 D1:B990 -  -  -  -  ; potential clipping issue
  490 D1:B990 ED 42 -  -  	sbc	hl, bc
  491 D1:B992 FA A3 B9 D1 	jp	m, vxClipNextXCarry
  492 D1:B996 1F -  -  -  	rra
  493 D1:B997 21 00 00 00 	ld	hl, VX_SCREEN_WCENTER-(VX_SCREEN_WIDTH/2)
  494 D1:B99B 38 4A -  -  	jr	c, vxClipWriteX
  495 D1:B99D 21 40 01 00 	ld	hl, VX_SCREEN_WCENTER+(VX_SCREEN_WIDTH/2)
  496 D1:B9A1 18 44 -  -  	jr	vxClipWriteX
  497 D1:B9A3 -  -  -  -  vxClipNextXCarry:
  498 D1:B9A3 B7 -  -  -  	or	a, a
  499 D1:B9A4 -  -  -  -  vxClipNextX:
  500 D1:B9A4 8F 09 -  -     adc a,a \ add hl,bc
  501 D1:B9A6 29 ED 42 30 
              01 09 8F -     add hl,hl \ sbc hl,bc \ jr nc,$+3 \ add hl,bc \ adc a,a
  502 D1:B9AD 29 ED 42 30 
              01 09 8F -     add hl,hl \ sbc hl,bc \ jr nc,$+3 \ add hl,bc \ adc a,a
  503 D1:B9B4 29 ED 42 30 
              01 09 8F -     add hl,hl \ sbc hl,bc \ jr nc,$+3 \ add hl,bc \ adc a,a
  504 D1:B9BB 29 ED 42 30 
              01 09 8F -     add hl,hl \ sbc hl,bc \ jr nc,$+3 \ add hl,bc \ adc a,a
  505 D1:B9C2 29 ED 42 30 
              01 09 8F -     add hl,hl \ sbc hl,bc \ jr nc,$+3 \ add hl,bc \ adc a,a
  506 D1:B9C9 29 ED 42 30 
              01 09 8F -     add hl,hl \ sbc hl,bc \ jr nc,$+3 \ add hl,bc \ adc a,a
  507 D1:B9D0 29 ED 42 8F    add hl,hl \ sbc hl,bc \ adc a,a
  508 D1:B9D4 2F -  -  -     cpl
  509 D1:B9D5 5F -  -  -     ld   e, a
  510 D1:B9D6 16 A1 -  -     ld   d, VX_SCREEN_WIDTH/2+1
  511 D1:B9D8 ED 5C -  -     mlt   de
  512 D1:B9DA 7A -  -  -     ld    a, d
  513 D1:B9DB ED 62 -  -     sbc   hl, hl
  514 D1:B9DD 30 01 -  -     jr   nc, $+3
  515 D1:B9DF 2F -  -  -     cpl
  516 D1:B9E0 6F -  -  -     ld   l, a
  517 D1:B9E1 11 A0 00 00    ld   de, VX_SCREEN_WCENTER
  518 D1:B9E5 ED 5A -  -     adc   hl, de
  519 D1:B9E7 -  -  -  -  vxClipWriteX:
  520 D1:B9E7 FD 75 02 -  	ld	(iy+VX_VERTEX_SX), l
  521 D1:B9EA FD 74 03 -  	ld	(iy+VX_VERTEX_SX+1), h
  522 D1:B9ED AF -  -  -  	xor	a, a
  523 D1:B9EE FD 77 00 -  	ld	(iy+VX_VERTEX_CODE), a
  524 D1:B9F1 C9 -  -  -  	ret
  525 D1:B9F2 -  -  -  -  
  526 D1:B9F2 -  -  -  -  vxClipFrustrumCode:
  527 D1:B9F2 DD 27 0A -  	ld	hl, (ix+VX_VERTEX_RY)
  528 D1:B9F5 DD 17 07 -  	ld	de, (ix+VX_VERTEX_RX)
  529 D1:B9F8 DD 07 0D -  	ld	bc, (ix+VX_VERTEX_RZ)
  530 D1:B9FB AF -  -  -  	xor	a, a
  531 D1:B9FC ED 42 -  -  	sbc	hl, bc
  532 D1:B9FE FA 04 BA D1 	jp	m, vxClipError0
  533 D1:BA02 F6 20 -  -  	or	%00100000
  534 D1:BA04 -  -  -  -  vxClipError0:
  535 D1:BA04 09 -  -  -  	add	hl, bc
  536 D1:BA05 B7 -  -  -  	or	a, a
  537 D1:BA06 ED 4A -  -  	adc	hl, bc
  538 D1:BA08 F2 0E BA D1 	jp	p, vxClipError1
  539 D1:BA0C F6 10 -  -  	or	%00010000
  540 D1:BA0E -  -  -  -  vxClipError1:
  541 D1:BA0E -  -  -  -  ; y cliping was handled
  542 D1:BA0E EB -  -  -  	ex	de, hl
  543 D1:BA0F ED 42 -  -  	sbc	hl, bc
  544 D1:BA11 FA 17 BA D1 	jp	m, vxClipError2
  545 D1:BA15 F6 80 -  -  	or	a, %10000000
  546 D1:BA17 -  -  -  -  vxClipError2:
  547 D1:BA17 09 -  -  -  	add	hl, bc
  548 D1:BA18 B7 -  -  -  	or	a, a
  549 D1:BA19 ED 4A -  -  	adc	hl, bc
  550 D1:BA1B F2 21 BA D1 	jp	p, vxClipError3
  551 D1:BA1F F6 40 -  -  	or	a, %01000000
  552 D1:BA21 -  -  -  -  vxClipError3:
  553 D1:BA21 -  -  -  -  ; x clipping handled
  554 D1:BA21 DD CB 0F 7E 	bit	7, (ix+VX_VERTEX_RZ+2)
  555 D1:BA25 C8 -  -  -  	ret	z
  556 D1:BA26 F6 08 -  -  	or	%00001000
  557 D1:BA28 C9 -  -  -  	ret
Listing for file "C:\Users\Zeromus\Documents\GitHub\Virtual3D\vxMain.ez80"
    8 D1:BA29 -  -  -  -  #include	"vxPipeline.ez80"
Listing for file "C:\Users\Zeromus\Documents\GitHub\Virtual3D\vxPipeline.ez80"
    1 D1:BA29 -  -  -  -  
    2 D1:BA29 -  -  -  -  #include	"vxVertexShader.inc"
Listing for file "C:\Users\Zeromus\Documents\GitHub\Virtual3D\vxVertexShader.inc"
    1 D1:BA29 -  -  -  -  ; cache data register (de) ;
    2 D1:BA29 -  -  -  -  
    3 D1:BA29 -  -  -  -  #define	VX_VERTEX_CODE		0
    4 D1:BA29 -  -  -  -  #define	VX_VERTEX_SY		1
    5 D1:BA29 -  -  -  -  #define	VX_VERTEX_SX		2
    6 D1:BA29 -  -  -  -  #define	VX_VERTEX_GPR0		4
    7 D1:BA29 -  -  -  -  #define	VX_VERTEX_GPR1		5
    8 D1:BA29 -  -  -  -  #define	VX_VERTEX_UNIFORM	6
    9 D1:BA29 -  -  -  -  #define	VX_VERTEX_RX		7
   10 D1:BA29 -  -  -  -  #define	VX_VERTEX_RY		10
   11 D1:BA29 -  -  -  -  #define	VX_VERTEX_RZ		13
   12 D1:BA29 -  -  -  -  
   13 D1:BA29 -  -  -  -  ; vertex input register (iy) ;
   14 D1:BA29 -  -  -  -  
   15 D1:BA29 -  -  -  -  #define	VX_VERTEX_POSITION	0
   16 D1:BA29 -  -  -  -  #define	VX_VERTEX_VX		0
   17 D1:BA29 -  -  -  -  #define	VX_VERTEX_VY		2
   18 D1:BA29 -  -  -  -  #define	VX_VERTEX_VZ		4
   19 D1:BA29 -  -  -  -  #define	VX_VERTEX_NORMAL	6
   20 D1:BA29 -  -  -  -  #define	VX_VERTEX_NX		6
   21 D1:BA29 -  -  -  -  #define	VX_VERTEX_NY		7
   22 D1:BA29 -  -  -  -  #define	VX_VERTEX_NZ		8
   23 D1:BA29 -  -  -  -  
   24 D1:BA29 -  -  -  -  ; global data input register (ix) ;
   25 D1:BA29 -  -  -  -  
   26 D1:BA29 -  -  -  -  #define	VX_MATRIX0			0
   27 D1:BA29 -  -  -  -  #define	VX_MATRIX0_C0		0
   28 D1:BA29 -  -  -  -  #define	VX_MATRIX0_C1		1
   29 D1:BA29 -  -  -  -  #define	VX_MATRIX0_C2		2
   30 D1:BA29 -  -  -  -  #define	VX_MATRIX0_C3		3
   31 D1:BA29 -  -  -  -  #define	VX_MATRIX0_C4		4
   32 D1:BA29 -  -  -  -  #define	VX_MATRIX0_C5		5
   33 D1:BA29 -  -  -  -  #define	VX_MATRIX0_C6		6
   34 D1:BA29 -  -  -  -  #define	VX_MATRIX0_C7		7
   35 D1:BA29 -  -  -  -  #define	VX_MATRIX0_C8		8
   36 D1:BA29 -  -  -  -  #define	VX_MATRIX0_TX		9
   37 D1:BA29 -  -  -  -  #define	VX_MATRIX0_TY		12
   38 D1:BA29 -  -  -  -  #define	VX_MATRIX0_TZ		15
   39 D1:BA29 -  -  -  -  
   40 D1:BA29 -  -  -  -  #define	VX_LIGHT0_VECTOR	18
   41 D1:BA29 -  -  -  -  #define	VX_LIGHT0_AMBIANT	21
   42 D1:BA29 -  -  -  -  #define	VX_LIGHT0_POSITION	22
   43 D1:BA29 -  -  -  -  
   44 D1:BA29 -  -  -  -  ; constant ;
   45 D1:BA29 -  -  -  -  
   46 D1:BA29 -  -  -  -  #define	VX_MATRIX_SIZE		18
   47 D1:BA29 -  -  -  -  #define	VX_MATRIX_C0		0
   48 D1:BA29 -  -  -  -  #define	VX_MATRIX_C1		1
   49 D1:BA29 -  -  -  -  #define	VX_MATRIX_C2		2
   50 D1:BA29 -  -  -  -  #define	VX_MATRIX_C3		3
   51 D1:BA29 -  -  -  -  #define	VX_MATRIX_C4		4
   52 D1:BA29 -  -  -  -  #define	VX_MATRIX_C5		5
   53 D1:BA29 -  -  -  -  #define	VX_MATRIX_C6		6
   54 D1:BA29 -  -  -  -  #define	VX_MATRIX_C7		7
   55 D1:BA29 -  -  -  -  #define	VX_MATRIX_C8		8
   56 D1:BA29 -  -  -  -  #define	VX_MATRIX_TX		9
   57 D1:BA29 -  -  -  -  #define	VX_MATRIX_TY		12
   58 D1:BA29 -  -  -  -  #define	VX_MATRIX_TZ		15
   59 D1:BA29 -  -  -  -  
   60 D1:BA29 -  -  -  -  #define	VX_LIGHT_SIZE		10
   61 D1:BA29 -  -  -  -  #define	VX_LIGHT_VECTOR		0
   62 D1:BA29 -  -  -  -  #define	VX_LIGHT_AMBIANT	3
   63 D1:BA29 -  -  -  -  #define	VX_LIGHT_POSITION	4
   64 D1:BA29 -  -  -  -  
   65 D1:BA29 -  -  -  -  #define	VX_SHADER_VERTEX_SIZE		16	; per vertex data in pipeline
   66 D1:BA29 -  -  -  -  #define	VX_DATA_VERTEX_SIZE	9	; this should be changed if you suppress vertex normal data
   67 D1:BA29 -  -  -  -  
   68 D1:BA29 -  -  -  -  #define	VX_VERTEX_SHADER_SIZE		1024	; allowed shader size
   69 D1:BA29 -  -  -  -  #define	VX_VERTEX_SHADER_DATA		$E30800
   70 D1:BA29 -  -  -  -  #define	VX_VERTEX_SHADER_CODE		$E30800
   71 D1:BA29 -  -  -  -  
   72 D1:BA29 -  -  -  -  ; return shader ;
   73 D1:BA29 -  -  -  -  
   74 D1:BA29 -  -  -  -  ; shader will copy 1024 bytes from global_data to VX_VRAM. This load occurs at begin of stream instruction, to ensure maximum vertex throughput. About 2200 cycles per vertex are needed.
   75 D1:BA29 -  -  -  -  
   76 D1:BA29 -  -  -  -  VX_VERTEX_SHADER_COPY:
   77 D1:BA29 -  -  -  -  
   78 D1:BA29 -  -  -  -  ; relocate the shader to fast VRAM ($E30800)
   79 D1:BA29 -  -  -  -  
   80 D1:BA29 -  -  -  -  .relocate VX_VERTEX_SHADER_CODE
Listing for file "C:\Users\Zeromus\Documents\GitHub\Virtual3D\vxVertexShader.inc"
   81 E3:0800 -  -  -  -  
   82 E3:0800 -  -  -  -  vxModelView:
   83 E3:0800 00 00 00 -  	.db	0,0,0
   84 E3:0803 00 00 00 -  	.db	0,0,0
   85 E3:0806 00 00 00 -  	.db	0,0,0
   86 E3:0809 00 00 00 00 
              00 00 00 00 
              00 -  -  -  	.dl	0,0,0
   87 E3:0812 -  -  -  -  vxLight0:
   88 E3:0812 00 00 40 -  	.db	0,0,64
   89 E3:0815 00 -  -  -  	.db	0
   90 E3:0816 00 00 00 00 
              00 00 -  -  	.dw	0,0,0
   91 E3:081C -  -  -  -  
   92 E3:081C -  -  -  -  ; global shader call
   93 E3:081C -  -  -  -  
   94 E3:081C -  -  -  -  vxVertexShader:
   95 E3:081C -  -  -  -  ; ix = global data register [MC[0-8],MTX,MTY,MTZ,LV[0-2],LA,LE]
   96 E3:081C -  -  -  -  ; iy = vertex data register [VX,VY,VZ,VN[0-2]]
   97 E3:081C -  -  -  -  ; de = output data register [RC,SY,SX,RI[0-1],RX,RY,RZ]
   98 E3:081C -  -  -  -  ; bc = x vertex coordinate [16bits]
   99 E3:081C -  -  -  -  ; OUT register
  100 E3:081C -  -  -  -  ; de = de + VX_SHADER_VERTEX_SIZE
  101 E3:081C -  -  -  -  ; iy = iy + VX_DATA_VERTEX_SIZE
  102 E3:081C -  -  -  -  ; data copied to memory
  103 E3:081C ED 66 09 -  	pea	iy+VX_DATA_VERTEX_SIZE
  104 E3:081F D5 -  -  -  	push	de
  105 E3:0820 -  -  -  -  ; X coordinate
  106 E3:0820 -  -  -  -  ;	ld	bc, (iy+0)
  107 E3:0820 DD 17 09 -  	ld	de, (ix+VX_MATRIX0_TX)
  108 E3:0823 DD 7E 00 -  	ld	a, (ix+VX_MATRIX0_C0)
  109 E3:0826 60 -  -  -  	ld	h, b
  110 E3:0827 6F -  -  -  	ld	l, a
  111 E3:0828 ED 6C -  -  	mlt	hl
  112 E3:082A FE 80 -  -  	cp	$80
  113 E3:082C 38 02 -  -  	jr	c, $+4
  114 E3:082E ED 42 -  -  	sbc	hl, bc
  115 E3:0830 CB 78 -  -  	bit	7, b
  116 E3:0832 47 -  -  -  	ld	b, a
  117 E3:0833 28 03 -  -  	jr	z, $+5
  118 E3:0835 2F -  -  -  	cpl
  119 E3:0836 8C -  -  -  	adc	a, h
  120 E3:0837 67 -  -  -  	ld	h, a
  121 E3:0838 29 -  -  -  	add	hl, hl
  122 E3:0839 29 -  -  -  	add	hl, hl
  123 E3:083A 29 -  -  -  	add	hl, hl
  124 E3:083B 29 -  -  -  	add	hl, hl
  125 E3:083C 29 -  -  -  	add	hl, hl
  126 E3:083D 29 -  -  -  	add	hl, hl
  127 E3:083E 29 -  -  -  	add	hl, hl
  128 E3:083F 29 -  -  -  	add	hl, hl
  129 E3:0840 ED 4C -  -  	mlt	bc
  130 E3:0842 09 -  -  -  	add	hl, bc
  131 E3:0843 19 -  -  -  	add	hl, de
  132 E3:0844 DD 7E 01 -  	ld	a, (ix+VX_MATRIX0_C1)
  133 E3:0847 B7 -  -  -  	or	a, a
  134 E3:0848 28 22 -  -  	jr	z, vxVertexSkip0
  135 E3:084A FD 07 02 -  	ld	bc, (iy+VX_VERTEX_VY)
  136 E3:084D EB -  -  -  	ex	de, hl
  137 E3:084E 60 -  -  -  	ld	h, b
  138 E3:084F 6F -  -  -  	ld	l, a
  139 E3:0850 ED 6C -  -  	mlt	hl
  140 E3:0852 FE 80 -  -  	cp	$80
  141 E3:0854 38 02 -  -  	jr	c, $+4
  142 E3:0856 ED 42 -  -  	sbc	hl, bc
  143 E3:0858 CB 78 -  -  	bit	7, b
  144 E3:085A 47 -  -  -  	ld	b, a
  145 E3:085B 28 03 -  -  	jr	z, $+5
  146 E3:085D 2F -  -  -  	cpl
  147 E3:085E 8C -  -  -  	adc	a, h
  148 E3:085F 67 -  -  -  	ld	h, a
  149 E3:0860 29 -  -  -  	add	hl, hl
  150 E3:0861 29 -  -  -  	add	hl, hl
  151 E3:0862 29 -  -  -  	add	hl, hl
  152 E3:0863 29 -  -  -  	add	hl, hl
  153 E3:0864 29 -  -  -  	add	hl, hl
  154 E3:0865 29 -  -  -  	add	hl, hl
  155 E3:0866 29 -  -  -  	add	hl, hl
  156 E3:0867 29 -  -  -  	add	hl, hl
  157 E3:0868 ED 4C -  -  	mlt	bc
  158 E3:086A 09 -  -  -  	add	hl, bc
  159 E3:086B 19 -  -  -  	add	hl, de
  160 E3:086C -  -  -  -  vxVertexSkip0:
  161 E3:086C DD 7E 02 -  	ld	a, (ix+VX_MATRIX0_C2)
  162 E3:086F FD 07 04 -  	ld	bc, (iy+VX_VERTEX_VZ)
  163 E3:0872 51 -  -  -  	ld	d, c
  164 E3:0873 5F -  -  -  	ld	e, a
  165 E3:0874 ED 5C -  -  	mlt	de
  166 E3:0876 19 -  -  -  	add	hl, de
  167 E3:0877 EB -  -  -  	ex	de, hl
  168 E3:0878 60 -  -  -  	ld	h, b
  169 E3:0879 6F -  -  -  	ld	l, a
  170 E3:087A ED 6C -  -  	mlt	hl
  171 E3:087C FE 80 -  -  	cp	$80
  172 E3:087E 38 02 -  -  	jr	c, $+4
  173 E3:0880 ED 42 -  -  	sbc	hl, bc
  174 E3:0882 CB 78 -  -  	bit	7, b
  175 E3:0884 28 03 -  -  	jr	z, $+5
  176 E3:0886 2F -  -  -  	cpl
  177 E3:0887 8C -  -  -  	adc	a, h
  178 E3:0888 67 -  -  -  	ld	h, a
  179 E3:0889 29 -  -  -  	add	hl, hl
  180 E3:088A 29 -  -  -  	add	hl, hl
  181 E3:088B 29 -  -  -  	add	hl, hl
  182 E3:088C 29 -  -  -  	add	hl, hl
  183 E3:088D 29 -  -  -  	add	hl, hl
  184 E3:088E 29 -  -  -  	add	hl, hl
  185 E3:088F 29 -  -  -  	add	hl, hl
  186 E3:0890 29 -  -  -  	add	hl, hl
  187 E3:0891 19 -  -  -  	add	hl, de
  188 E3:0892 E5 -  -  -  	push	hl
  189 E3:0893 -  -  -  -  ; Z coordinate
  190 E3:0893 DD 17 0F -  	ld	de, (ix+VX_MATRIX0_TZ)
  191 E3:0896 DD 7E 08 -  	ld	a, (ix+VX_MATRIX0_C8)
  192 E3:0899 60 -  -  -  	ld	h, b
  193 E3:089A 6F -  -  -  	ld	l, a
  194 E3:089B ED 6C -  -  	mlt	hl
  195 E3:089D FE 80 -  -  	cp	$80
  196 E3:089F 38 02 -  -  	jr	c, $+4
  197 E3:08A1 ED 42 -  -  	sbc	hl, bc
  198 E3:08A3 CB 78 -  -  	bit	7, b
  199 E3:08A5 47 -  -  -  	ld	b, a
  200 E3:08A6 28 03 -  -  	jr	z, $+5
  201 E3:08A8 2F -  -  -  	cpl
  202 E3:08A9 8C -  -  -  	adc	a, h
  203 E3:08AA 67 -  -  -  	ld	h, a
  204 E3:08AB 29 -  -  -  	add	hl, hl
  205 E3:08AC 29 -  -  -  	add	hl, hl
  206 E3:08AD 29 -  -  -  	add	hl, hl
  207 E3:08AE 29 -  -  -  	add	hl, hl
  208 E3:08AF 29 -  -  -  	add	hl, hl
  209 E3:08B0 29 -  -  -  	add	hl, hl
  210 E3:08B1 29 -  -  -  	add	hl, hl
  211 E3:08B2 29 -  -  -  	add	hl, hl
  212 E3:08B3 ED 4C -  -  	mlt	bc
  213 E3:08B5 09 -  -  -  	add	hl, bc
  214 E3:08B6 19 -  -  -  	add	hl, de
  215 E3:08B7 DD 7E 07 -  	ld	a, (ix+VX_MATRIX0_C7)
  216 E3:08BA FD 07 02 -  	ld	bc, (iy+VX_VERTEX_VY)
  217 E3:08BD EB -  -  -  	ex	de, hl
  218 E3:08BE 60 -  -  -  	ld	h, b
  219 E3:08BF 6F -  -  -  	ld	l, a
  220 E3:08C0 ED 6C -  -  	mlt	hl
  221 E3:08C2 FE 80 -  -  	cp	$80
  222 E3:08C4 38 02 -  -  	jr	c, $+4
  223 E3:08C6 ED 42 -  -  	sbc	hl, bc
  224 E3:08C8 CB 78 -  -  	bit	7, b
  225 E3:08CA 47 -  -  -  	ld	b, a
  226 E3:08CB 28 03 -  -  	jr	z, $+5
  227 E3:08CD 2F -  -  -  	cpl
  228 E3:08CE 8C -  -  -  	adc	a, h
  229 E3:08CF 67 -  -  -  	ld	h, a
  230 E3:08D0 29 -  -  -  	add	hl, hl
  231 E3:08D1 29 -  -  -  	add	hl, hl
  232 E3:08D2 29 -  -  -  	add	hl, hl
  233 E3:08D3 29 -  -  -  	add	hl, hl
  234 E3:08D4 29 -  -  -  	add	hl, hl
  235 E3:08D5 29 -  -  -  	add	hl, hl
  236 E3:08D6 29 -  -  -  	add	hl, hl
  237 E3:08D7 29 -  -  -  	add	hl, hl
  238 E3:08D8 ED 4C -  -  	mlt	bc
  239 E3:08DA 09 -  -  -  	add	hl, bc
  240 E3:08DB 19 -  -  -  	add	hl, de
  241 E3:08DC DD 7E 06 -  	ld	a, (ix+VX_MATRIX0_C6)
  242 E3:08DF FD 07 00 -  	ld	bc, (iy+VX_VERTEX_VX)
  243 E3:08E2 51 -  -  -  	ld	d, c
  244 E3:08E3 5F -  -  -  	ld	e, a
  245 E3:08E4 ED 5C -  -  	mlt	de
  246 E3:08E6 19 -  -  -  	add	hl, de
  247 E3:08E7 EB -  -  -  	ex	de, hl
  248 E3:08E8 60 -  -  -  	ld	h, b
  249 E3:08E9 6F -  -  -  	ld	l, a
  250 E3:08EA ED 6C -  -  	mlt	hl
  251 E3:08EC FE 80 -  -  	cp	$80
  252 E3:08EE 38 02 -  -  	jr	c, $+4
  253 E3:08F0 ED 42 -  -  	sbc	hl, bc
  254 E3:08F2 CB 78 -  -  	bit	7, b
  255 E3:08F4 28 03 -  -  	jr	z, $+5
  256 E3:08F6 2F -  -  -  	cpl
  257 E3:08F7 8C -  -  -  	adc	a, h
  258 E3:08F8 67 -  -  -  	ld	h, a
  259 E3:08F9 29 -  -  -  	add	hl, hl
  260 E3:08FA 29 -  -  -  	add	hl, hl
  261 E3:08FB 29 -  -  -  	add	hl, hl
  262 E3:08FC 29 -  -  -  	add	hl, hl
  263 E3:08FD 29 -  -  -  	add	hl, hl
  264 E3:08FE 29 -  -  -  	add	hl, hl
  265 E3:08FF 29 -  -  -  	add	hl, hl
  266 E3:0900 29 -  -  -  	add	hl, hl
  267 E3:0901 19 -  -  -  	add	hl, de
  268 E3:0902 E5 -  -  -  	push	hl
  269 E3:0903 -  -  -  -  ; Y coordinate
  270 E3:0903 DD 17 0C -  	ld	de, (ix+VX_MATRIX0_TY)
  271 E3:0906 DD 7E 03 -  	ld	a, (ix+VX_MATRIX0_C3)
  272 E3:0909 60 -  -  -  	ld	h, b
  273 E3:090A 6F -  -  -  	ld	l, a
  274 E3:090B ED 6C -  -  	mlt	hl
  275 E3:090D FE 80 -  -  	cp	$80
  276 E3:090F 38 02 -  -  	jr	c, $+4
  277 E3:0911 ED 42 -  -  	sbc	hl, bc
  278 E3:0913 CB 78 -  -  	bit	7, b
  279 E3:0915 47 -  -  -  	ld	b, a
  280 E3:0916 28 03 -  -  	jr	z, $+5
  281 E3:0918 2F -  -  -  	cpl
  282 E3:0919 8C -  -  -  	adc	a, h
  283 E3:091A 67 -  -  -  	ld	h, a
  284 E3:091B 29 -  -  -  	add	hl, hl
  285 E3:091C 29 -  -  -  	add	hl, hl
  286 E3:091D 29 -  -  -  	add	hl, hl
  287 E3:091E 29 -  -  -  	add	hl, hl
  288 E3:091F 29 -  -  -  	add	hl, hl
  289 E3:0920 29 -  -  -  	add	hl, hl
  290 E3:0921 29 -  -  -  	add	hl, hl
  291 E3:0922 29 -  -  -  	add	hl, hl
  292 E3:0923 ED 4C -  -  	mlt	bc
  293 E3:0925 09 -  -  -  	add	hl, bc
  294 E3:0926 19 -  -  -  	add	hl, de
  295 E3:0927 DD 7E 04 -  	ld	a, (ix+VX_MATRIX0_C4)
  296 E3:092A FD 07 02 -  	ld	bc, (iy+VX_VERTEX_VY)
  297 E3:092D EB -  -  -  	ex	de, hl
  298 E3:092E 60 -  -  -  	ld	h, b
  299 E3:092F 6F -  -  -  	ld	l, a
  300 E3:0930 ED 6C -  -  	mlt	hl
  301 E3:0932 FE 80 -  -  	cp	$80
  302 E3:0934 38 02 -  -  	jr	c, $+4
  303 E3:0936 ED 42 -  -  	sbc	hl, bc
  304 E3:0938 CB 78 -  -  	bit	7, b
  305 E3:093A 47 -  -  -  	ld	b, a
  306 E3:093B 28 03 -  -  	jr	z, $+5
  307 E3:093D 2F -  -  -  	cpl
  308 E3:093E 8C -  -  -  	adc	a, h
  309 E3:093F 67 -  -  -  	ld	h, a
  310 E3:0940 29 -  -  -  	add	hl, hl
  311 E3:0941 29 -  -  -  	add	hl, hl
  312 E3:0942 29 -  -  -  	add	hl, hl
  313 E3:0943 29 -  -  -  	add	hl, hl
  314 E3:0944 29 -  -  -  	add	hl, hl
  315 E3:0945 29 -  -  -  	add	hl, hl
  316 E3:0946 29 -  -  -  	add	hl, hl
  317 E3:0947 29 -  -  -  	add	hl, hl
  318 E3:0948 ED 4C -  -  	mlt	bc
  319 E3:094A 09 -  -  -  	add	hl, bc
  320 E3:094B 19 -  -  -  	add	hl, de
  321 E3:094C DD 7E 05 -  	ld	a, (ix+VX_MATRIX0_C5)
  322 E3:094F FD 07 04 -  	ld	bc, (iy+VX_VERTEX_VZ)
  323 E3:0952 EB -  -  -  	ex	de, hl
  324 E3:0953 60 -  -  -  	ld	h, b
  325 E3:0954 6F -  -  -  	ld	l, a
  326 E3:0955 ED 6C -  -  	mlt	hl
  327 E3:0957 FE 80 -  -  	cp	$80
  328 E3:0959 38 02 -  -  	jr	c, $+4
  329 E3:095B ED 42 -  -  	sbc	hl, bc
  330 E3:095D CB 78 -  -  	bit	7, b
  331 E3:095F 47 -  -  -  	ld	b, a
  332 E3:0960 28 03 -  -  	jr	z, $+5
  333 E3:0962 2F -  -  -  	cpl
  334 E3:0963 8C -  -  -  	adc	a, h
  335 E3:0964 67 -  -  -  	ld	h, a
  336 E3:0965 29 -  -  -  	add	hl, hl
  337 E3:0966 29 -  -  -  	add	hl, hl
  338 E3:0967 29 -  -  -  	add	hl, hl
  339 E3:0968 29 -  -  -  	add	hl, hl
  340 E3:0969 29 -  -  -  	add	hl, hl
  341 E3:096A 29 -  -  -  	add	hl, hl
  342 E3:096B 29 -  -  -  	add	hl, hl
  343 E3:096C 29 -  -  -  	add	hl, hl
  344 E3:096D ED 4C -  -  	mlt	bc
  345 E3:096F 09 -  -  -  	add	hl, bc
  346 E3:0970 19 -  -  -  	add	hl, de
  347 E3:0971 -  -  -  -  ; lightning model is here, infinite directionnal light, no pow
  348 E3:0971 AF -  -  -  	xor	a, a
  349 E3:0972 FD 4E 06 -  	ld	c, (iy+VX_VERTEX_NX)
  350 E3:0975 DD 46 12 -  	ld	b, (ix+VX_LIGHT0_VECTOR+0)
  351 E3:0978 CB 79 28 01 
              90 -  -  -  	bit	7, c \ jr z, $+3 \ sub a,b
  352 E3:097D CB 78 28 01 
              91 -  -  -  	bit	7, b \ jr z, $+3 \ sub a,c
  353 E3:0982 ED 4C -  -  	mlt	bc
  354 E3:0984 80 -  -  -  	add	a, b
  355 E3:0985 FD 4E 07 -  	ld	c, (iy+VX_VERTEX_NY)
  356 E3:0988 DD 46 13 -  	ld	b, (ix+VX_LIGHT0_VECTOR+1)
  357 E3:098B CB 79 28 01 
              90 -  -  -  	bit	7, c \ jr z, $+3 \ sub a,b
  358 E3:0990 CB 78 28 01 
              91 -  -  -  	bit	7, b \ jr z, $+3 \ sub a,c
  359 E3:0995 ED 4C -  -  	mlt	bc
  360 E3:0997 80 -  -  -  	add	a, b
  361 E3:0998 FD 4E 08 -  	ld	c, (iy+VX_VERTEX_NZ)
  362 E3:099B DD 46 14 -  	ld	b, (ix+VX_LIGHT0_VECTOR+2)
  363 E3:099E CB 79 28 01 
              90 -  -  -  	bit	7, c \ jr z, $+3 \ sub a,b
  364 E3:09A3 CB 78 28 01 
              91 -  -  -  	bit	7, b \ jr z, $+3 \ sub a,c
  365 E3:09A8 ED 4C -  -  	mlt	bc
  366 E3:09AA 80 -  -  -  	add	a, b
  367 E3:09AB -  -  -  -  ; max(a,0)
  368 E3:09AB F2 B0 09 E3 	jp	p, $+5
  369 E3:09AF AF -  -  -  	xor	a, a
  370 E3:09B0 -  -  -  -  ; ambiant lightning=12
  371 E3:09B0 C6 0C -  -  	add	a, 12
  372 E3:09B2 -  -  -  -  ; min(a,31)
  373 E3:09B2 FE 20 -  -  	cp	32
  374 E3:09B4 38 02 -  -  	jr	c, $+4
  375 E3:09B6 3E 1F -  -  	ld	a, 31
  376 E3:09B8 C1 -  -  -  	pop	bc
  377 E3:09B9 D1 -  -  -  	pop	de
  378 E3:09BA FD E1 -  -  	pop	iy
  379 E3:09BC FD 77 06 -  	ld	(iy+VX_VERTEX_UNIFORM), a
  380 E3:09BF FD 1F 07 -  	ld	(iy+VX_VERTEX_RX), de
  381 E3:09C2 FD 2F 0A -  	ld	(iy+VX_VERTEX_RY), hl
  382 E3:09C5 FD 0F 0D -  	ld	(iy+VX_VERTEX_RZ), bc
  383 E3:09C8 AF -  -  -  	xor	a, a
  384 E3:09C9 29 -  -  -  	add	hl, hl
  385 E3:09CA 30 09 -  -  	jr	nc, $+11
  386 E3:09CC 17 -  -  -  	rla
  387 E3:09CD D5 -  -  -  	push	de
  388 E3:09CE EB -  -  -  	ex   de, hl
  389 E3:09CF ED 62 -  -  	sbc   hl, hl
  390 E3:09D1 ED 52 -  -  	sbc   hl, de
  391 E3:09D3 D1 -  -  -  	pop	de
  392 E3:09D4 B7 -  -  -  	or	a, a
  393 E3:09D5 ED 42 -  -  	sbc	hl, bc
  394 E3:09D7 FA E3 09 E3 	jp	m, vxDivideNext0
  395 E3:09DB B7 -  -  -  	or	a, a
  396 E3:09DC -  -  -  -  ; potential clipping issue
  397 E3:09DC ED 42 -  -  	sbc	hl, bc
  398 E3:09DE F2 86 0A E3 	jp	p, vxPerspectiveClip0
  399 E3:09E2 B7 -  -  -  	or	a, a
  400 E3:09E3 -  -  -  -  vxDivideNext0:
  401 E3:09E3 8F 09 -  -  	adc	a,a \ add hl,bc
  402 E3:09E5 29 ED 42 30 
              01 09 8F -  	add	hl,hl \ sbc hl,bc \ jr nc,$+3 \ add hl,bc \ adc a,a
  403 E3:09EC 29 ED 42 30 
              01 09 8F -     	add	hl,hl \ sbc hl,bc \ jr nc,$+3 \ add hl,bc \ adc a,a
  404 E3:09F3 29 ED 42 30 
              01 09 8F -     	add	hl,hl \ sbc hl,bc \ jr nc,$+3 \ add hl,bc \ adc a,a
  405 E3:09FA 29 ED 42 30 
              01 09 8F -     	add	hl,hl \ sbc hl,bc \ jr nc,$+3 \ add hl,bc \ adc a,a
  406 E3:0A01 29 ED 42 30 
              01 09 8F -     	add	hl,hl \ sbc hl,bc \ jr nc,$+3 \ add hl,bc \ adc a,a
  407 E3:0A08 29 ED 42 8F   	add	hl,hl \ sbc hl,bc \ adc a,a
  408 E3:0A0C 2F -  -  -     	cpl
  409 E3:0A0D 87 -  -  -     	add	a, a
  410 E3:0A0E 2E 79 -  -     	ld   l, VX_SCREEN_HEIGHT/2+1 ;precision stuffs
  411 E3:0A10 67 -  -  -     	ld   h, a
  412 E3:0A11 ED 6C -  -     	mlt	hl
  413 E3:0A13 7C -  -  -     	ld   a, h
  414 E3:0A14 30 01 -  -     	jr   nc, $+3
  415 E3:0A16 2F -  -  -     	cpl
  416 E3:0A17 CE 78 -  -     	adc	a, VX_SCREEN_HCENTER
  417 E3:0A19 FD 77 01 -  	ld	(iy+VX_VERTEX_SY), a
  418 E3:0A1C EB -  -  -  	ex	de, hl
  419 E3:0A1D AF -  -  -  	xor	a, a
  420 E3:0A1E 29 -  -  -  	add	hl, hl
  421 E3:0A1F 30 07 -  -  	jr	nc, $+9
  422 E3:0A21 17 -  -  -  	rla
  423 E3:0A22 EB -  -  -  	ex   de, hl
  424 E3:0A23 ED 62 -  -  	sbc   hl, hl
  425 E3:0A25 ED 52 -  -  	sbc   hl, de
  426 E3:0A27 B7 -  -  -  	or	a, a
  427 E3:0A28 ED 42 -  -  	sbc	hl, bc
  428 E3:0A2A FA 36 0A E3 	jp	m, vxNext0
  429 E3:0A2E B7 -  -  -  	or	a, a
  430 E3:0A2F -  -  -  -  ; potential clipping issue
  431 E3:0A2F ED 42 -  -  	sbc	hl, bc
  432 E3:0A31 F2 9C 0A E3 	jp	p, vxPerspectiveClip2
  433 E3:0A35 B7 -  -  -  	or	a, a
  434 E3:0A36 -  -  -  -  vxNext0:
  435 E3:0A36 8F 09 -  -     	adc a,a \ add hl,bc
  436 E3:0A38 29 ED 42 30 
              01 09 8F -     	add hl,hl \ sbc hl,bc \ jr nc,$+3 \ add hl,bc \ adc a,a
  437 E3:0A3F 29 ED 42 30 
              01 09 8F -     	add hl,hl \ sbc hl,bc \ jr nc,$+3 \ add hl,bc \ adc a,a
  438 E3:0A46 29 ED 42 30 
              01 09 8F -     	add hl,hl \ sbc hl,bc \ jr nc,$+3 \ add hl,bc \ adc a,a
  439 E3:0A4D 29 ED 42 30 
              01 09 8F -     	add hl,hl \ sbc hl,bc \ jr nc,$+3 \ add hl,bc \ adc a,a
  440 E3:0A54 29 ED 42 30 
              01 09 8F -     	add hl,hl \ sbc hl,bc \ jr nc,$+3 \ add hl,bc \ adc a,a
  441 E3:0A5B 29 ED 42 30 
              01 09 8F -     	add hl,hl \ sbc hl,bc \ jr nc,$+3 \ add hl,bc \ adc a,a
  442 E3:0A62 29 ED 42 8F    	add hl,hl \ sbc hl,bc \ adc a,a
  443 E3:0A66 2F -  -  -     	cpl
  444 E3:0A67 5F -  -  -     	ld	e, a
  445 E3:0A68 16 A1 -  -     	ld	d, VX_SCREEN_WIDTH/2+1
  446 E3:0A6A ED 5C -  -     	mlt	de
  447 E3:0A6C 7A -  -  -     	ld	a, d
  448 E3:0A6D ED 62 -  -     	sbc	hl, hl
  449 E3:0A6F 30 01 -  -     	jr	nc, $+3
  450 E3:0A71 2F -  -  -     	cpl
  451 E3:0A72 6F -  -  -     	ld   l, a
  452 E3:0A73 11 A0 00 00 	ld   de, VX_SCREEN_WCENTER
  453 E3:0A77 ED 5A -  -  	adc   hl, de
  454 E3:0A79 FD 2F 02 -  	ld	(iy+VX_VERTEX_SX), hl
  455 E3:0A7C AF -  -  -  	xor	a, a
  456 E3:0A7D FD 77 00 -  	ld	(iy+VX_VERTEX_CODE), a
  457 E3:0A80 ED 13 10 -  	lea	de, iy+VX_SHADER_VERTEX_SIZE
  458 E3:0A83 FD E1 -  -  	pop	iy
  459 E3:0A85 C9 -  -  -  	ret
  460 E3:0A86 -  -  -  -  
  461 E3:0A86 -  -  -  -  vxPerspectiveClip0:
  462 E3:0A86 FD 27 0A -  	ld	hl, (iy+VX_VERTEX_RY)
  463 E3:0A89 AF -  -  -  	xor	a, a
  464 E3:0A8A ED 42 -  -  	sbc	hl, bc
  465 E3:0A8C FA 92 0A E3 	jp	m, vxPerspectiveClip1
  466 E3:0A90 F6 20 -  -  	or	%00100000
  467 E3:0A92 -  -  -  -  vxPerspectiveClip1:
  468 E3:0A92 09 -  -  -  	add	hl, bc
  469 E3:0A93 B7 -  -  -  	or	a, a
  470 E3:0A94 ED 4A -  -  	adc	hl, bc
  471 E3:0A96 F2 9C 0A E3 	jp	p, vxPerspectiveClip2
  472 E3:0A9A F6 10 -  -  	or	%00010000
  473 E3:0A9C -  -  -  -  vxPerspectiveClip2:
  474 E3:0A9C -  -  -  -  ; y cliping was handled
  475 E3:0A9C FD 27 07 -  	ld	hl, (iy+VX_VERTEX_RX)
  476 E3:0A9F B7 -  -  -  	or	a, a
  477 E3:0AA0 ED 42 -  -  	sbc	hl, bc
  478 E3:0AA2 FA A8 0A E3 	jp	m, vxPerspectiveClip3
  479 E3:0AA6 F6 80 -  -  	or	a, %10000000
  480 E3:0AA8 -  -  -  -  vxPerspectiveClip3:
  481 E3:0AA8 09 -  -  -  	add	hl, bc
  482 E3:0AA9 B7 -  -  -  	or	a, a
  483 E3:0AAA ED 4A -  -  	adc	hl, bc
  484 E3:0AAC F2 B2 0A E3 	jp	p, vxPerspectiveClip4
  485 E3:0AB0 F6 40 -  -  	or	a, %01000000
  486 E3:0AB2 -  -  -  -  vxPerspectiveClip4:
  487 E3:0AB2 -  -  -  -  ; x clipping handled
  488 E3:0AB2 FD CB 0F 7E 	bit	7,(iy+VX_VERTEX_RZ+2)
  489 E3:0AB6 28 02 -  -  	jr	z, $+4
  490 E3:0AB8 F6 08 -  -  	or  %00001000
  491 E3:0ABA FD 77 00 -  	ld	(iy+VX_VERTEX_CODE), a
  492 E3:0ABD ED 13 10 -  	lea	de, iy+VX_SHADER_VERTEX_SIZE
  493 E3:0AC0 FD E1 -  -  	pop	iy
  494 E3:0AC2 C9 -  -  -  	ret
  495 E3:0AC3 -  -  -  -  
  496 E3:0AC3 -  -  -  -  .endrelocate
Listing for file "include\\relocate.inc"
Listing for file "C:\Users\Zeromus\Documents\GitHub\Virtual3D\vxVertexShader.inc"
Listing for file "C:\Users\Zeromus\Documents\GitHub\Virtual3D\vxPipeline.ez80"
    3 D1:BCEC -  -  -  -  #include	"vxGeometryShader.inc"
Listing for file "C:\Users\Zeromus\Documents\GitHub\Virtual3D\vxGeometryShader.inc"
    1 D1:BCEC -  -  -  -  #define	VX_INDEX0	0
    2 D1:BCEC -  -  -  -  #define	VX_INDEX1	3
    3 D1:BCEC -  -  -  -  #define	VX_INDEX2	6
    4 D1:BCEC -  -  -  -  
    5 D1:BCEC -  -  -  -  #define	VX_GEOMETRY_DEPTH	0
    6 D1:BCEC -  -  -  -  #define	VX_GEOMETRY_INDEX	3
    7 D1:BCEC -  -  -  -  #define	VX_GEOMETRY_ID		6
    8 D1:BCEC -  -  -  -  
    9 D1:BCEC -  -  -  -  #define	VX_GEOMETRY_SHADER_DATA		$E30800
   10 D1:BCEC -  -  -  -  #define	VX_GEOMETRY_SHADER_CODE		$E30800
   11 D1:BCEC -  -  -  -  
   12 D1:BCEC -  -  -  -  vxGeometryShader:
   13 D1:BCEC C5 -  -  -  	push	bc
   14 D1:BCED -  -  -  -  vxBufferOffset=$+1
   15 D1:BCED 11 00 00 00 	ld	de, $000000
   16 D1:BCF1 -  -  -  -  
   17 D1:BCF1 FD 27 06 -  	ld	hl, (iy+VX_INDEX2)
   18 D1:BCF4 19 -  -  -  	add	hl, de
   19 D1:BCF5 E5 -  -  -  	push	hl
   20 D1:BCF6 FD 27 03 -  	ld	hl, (iy+VX_INDEX1)
   21 D1:BCF9 19 -  -  -  	add	hl, de
   22 D1:BCFA EB -  -  -  	ex	de, hl
   23 D1:BCFB FD 07 00 -  	ld	bc, (iy+VX_INDEX0)
   24 D1:BCFE 09 -  -  -  	add	hl, bc
   25 D1:BCFF C1 -  -  -  	pop	bc
   26 D1:BD00 -  -  -  -  
   27 D1:BD00 0A -  -  -  	ld	a, (bc)
   28 D1:BD01 A6 -  -  -  	and	(hl)
   29 D1:BD02 EB -  -  -  	ex	de, hl
   30 D1:BD03 A6 -  -  -  	and	(hl)
   31 D1:BD04 20 45 -  -  	jr	nz, vxGeometryDiscard
   32 D1:BD06 0A -  -  -  	ld	a, (bc)
   33 D1:BD07 B6 -  -  -  	or	(hl)
   34 D1:BD08 EB -  -  -  	ex	de, hl
   35 D1:BD09 B6 -  -  -  	or	(hl)
   36 D1:BD0A 20 06 -  -  	jr	nz, vxGeometryPass
   37 D1:BD0C CD 55 BD D1 	call	vxNClip
   38 D1:BD10 38 39 -  -  	jr	c, vxGeometryDiscard
   39 D1:BD12 -  -  -  -  vxGeometryPass:
   40 D1:BD12 -  -  -  -  ; compute depth and submit polygon to list (ix)
   41 D1:BD12 -  -  -  -  vxBufferOffsetAddRZ:
   42 D1:BD12 01 00 00 00 	ld	bc, $000000
   43 D1:BD16 -  -  -  -  ; index 0 - rz
   44 D1:BD16 FD 27 00 -  	ld	hl, (iy+VX_INDEX0)
   45 D1:BD19 09 -  -  -  	add	hl, bc
   46 D1:BD1A ED 17 -  -  	ld	de, (hl)
   47 D1:BD1C -  -  -  -  ; index 1 - rz	
   48 D1:BD1C FD 27 03 -  	ld	hl, (iy+VX_INDEX1)
   49 D1:BD1F 09 -  -  -  	add	hl, bc
   50 D1:BD20 ED 27 -  -  	ld	hl, (hl)
   51 D1:BD22 19 -  -  -  	add	hl, de
   52 D1:BD23 EB -  -  -  	ex	de, hl
   53 D1:BD24 -  -  -  -  ; index 2 - re
   54 D1:BD24 FD 27 06 -  	ld	hl, (iy+VX_INDEX2)
   55 D1:BD27 09 -  -  -  	add	hl, bc
   56 D1:BD28 ED 27 -  -  	ld	hl, (hl)
   57 D1:BD2A ED 5A -  -  	adc	hl, de
   58 D1:BD2C -  -  -  -  ; no div - way too slow !
   59 D1:BD2C F2 33 BD D1 	jp	p, vxGeometryDepthClamp
   60 D1:BD30 B7 -  -  -  	or	a, a
   61 D1:BD31 ED 62 -  -  	sbc	hl, hl
   62 D1:BD33 -  -  -  -  vxGeometryDepthClamp:
   63 D1:BD33 -  -  -  -  ; write everything to tmp buffer
   64 D1:BD33 DD 2F 00 -  	ld	(ix+VX_GEOMETRY_DEPTH), hl
   65 D1:BD36 -  -  -  -  ; fill depth bucket
   66 D1:BD36 EB -  -  -  	ex	de, hl
   67 D1:BD37 21 07 32 D0 	ld	hl, VX_DEPTH_BUCKET+7
   68 D1:BD3B 7D -  -  -  	ld	a, l
   69 D1:BD3C 6B -  -  -  	ld	l, e
   70 D1:BD3D 86 -  -  -  	add	a, (hl)
   71 D1:BD3E 77 -  -  -  	ld	(hl), a
   72 D1:BD3F 30 02 -  -  	jr	nc, vxGeometryBucket
   73 D1:BD41 24 -  -  -  	inc	h
   74 D1:BD42 34 -  -  -  	inc	(hl)
   75 D1:BD43 -  -  -  -  vxGeometryBucket:
   76 D1:BD43 DD 3E 03 -  	ld	(ix+VX_GEOMETRY_INDEX), iy
   77 D1:BD46 -  -  -  -  vxBatchOffset=$+1
   78 D1:BD46 3E 00 -  -  	ld	a, $00
   79 D1:BD48 DD 77 06 -  	ld	(ix+VX_GEOMETRY_ID), a
   80 D1:BD4B -  -  -  -  vxGeometryDiscard:
   81 D1:BD4B -  -  -  -  vxFormatOffset=$+2
   82 D1:BD4B ED 33 10 -  	lea	iy, iy+16
   83 D1:BD4E C1 -  -  -  	pop	bc
   84 D1:BD4F 10 9B -  -  	djnz	vxGeometryShader
   85 D1:BD51 0D -  -  -  	dec	c
   86 D1:BD52 20 98 -  -  	jr	nz, vxGeometryShader
   87 D1:BD54 C9 -  -  -  	ret
   88 D1:BD55 -  -  -  -  
   89 D1:BD55 -  -  -  -  
   90 D1:BD55 -  -  -  -  vxNClip:
   91 D1:BD55 -  -  -  -  ; vec e0 = v1 - v0;
   92 D1:BD55 -  -  -  -  ; vec e1 = v2 - v0;
   93 D1:BD55 -  -  -  -  ; return e0.x * e1.y - e0.y * e1.x > 0 ? 1 : 0;
   94 D1:BD55 -  -  -  -  ;
   95 D1:BD55 -  -  -  -  ;	(x1-x0)*(y2-y1) - (y1-y0)*(x2-x1)
   96 D1:BD55 -  -  -  -  ;
   97 D1:BD55 -  -  -  -  ; we'll compute (y1-y0)*(x2-x1)+(y2-y1)*(x0-x1)
   98 D1:BD55 23 03 13 -  	inc	hl \ inc bc \ inc de
   99 D1:BD58 -  -  -  -  
  100 D1:BD58 E5 -  -  -  	push	hl
  101 D1:BD59 C5 -  -  -  	push	bc
  102 D1:BD5A -  -  -  -  
  103 D1:BD5A 0A -  -  -  	ld	a, (bc)
  104 D1:BD5B 23 -  -  -  	inc	hl
  105 D1:BD5C ED 27 -  -  	ld	hl, (hl)
  106 D1:BD5E EB -  -  -  	ex	de, hl
  107 D1:BD5F 23 -  -  -  	inc	hl
  108 D1:BD60 ED 07 -  -  	ld	bc, (hl)
  109 D1:BD62 EB -  -  -  	ex	de, hl
  110 D1:BD63 -  -  -  -  ; hl-bc is x0-x1
  111 D1:BD63 B7 -  -  -  	or	a, a
  112 D1:BD64 ED 42 -  -  	sbc	hl, bc
  113 D1:BD66 CB 2C CB 1D 	sra	h \ rr l
  114 D1:BD6A 4C -  -  -  	ld	c, h
  115 D1:BD6B EB -  -  -  	ex	de, hl
  116 D1:BD6C 2B -  -  -  	dec	hl
  117 D1:BD6D 96 -  -  -  	sub	a, (hl)
  118 D1:BD6E 57 -  -  -  	ld	d, a
  119 D1:BD6F 3E 00 -  -  	ld	a, 0
  120 D1:BD71 30 01 93 -  	jr	nc, $+3 \ sub a, e
  121 D1:BD74 CB 79 28 01 
              92 -  -  -  	bit 7, c \ jr z, $+3 \ sub a, d
  122 D1:BD79 ED 5C -  -  	mlt	de
  123 D1:BD7B 82 -  -  -  	add	a, d
  124 D1:BD7C 57 -  -  -  	ld	d, a		
  125 D1:BD7D -  -  -  -  ; bc and hl need a restore
  126 D1:BD7D -  -  -  -  ; (y1-y0)*(x2-x1)
  127 D1:BD7D -  -  -  -  ;  a - (hl)*hl-bc
  128 D1:BD7D 7E -  -  -  	ld	a, (hl)
  129 D1:BD7E 23 -  -  -  	inc	hl
  130 D1:BD7F -  -  -  -  ;	ld	bc, (hl)
  131 D1:BD7F 4E -  -  -  	ld	c, (hl)	; b still hold correct value
  132 D1:BD80 E1 -  -  -  	pop	hl	; pop bc
  133 D1:BD81 23 -  -  -  	inc	hl
  134 D1:BD82 ED 27 -  -  	ld	hl, (hl)
  135 D1:BD84 B7 -  -  -  	or	a, a
  136 D1:BD85 ED 42 -  -  	sbc	hl, bc
  137 D1:BD87 CB 2C CB 1D 	sra	h \ rr l
  138 D1:BD8B 4C -  -  -  	ld	c, h
  139 D1:BD8C EB -  -  -  	ex	de, hl
  140 D1:BD8D E3 -  -  -  	ex	(sp), hl	; save previous de
  141 D1:BD8E 96 -  -  -  	sub	a, (hl)
  142 D1:BD8F 57 -  -  -  	ld	d, a
  143 D1:BD90 3E 00 -  -  	ld	a, 0
  144 D1:BD92 30 01 93 -  	jr	nc, $+3 \ sub a, e
  145 D1:BD95 CB 79 28 01 
              92 -  -  -  	bit 7, c \ jr z, $+3 \ sub a, d
  146 D1:BD9A ED 5C -  -  	mlt	de
  147 D1:BD9C 82 -  -  -  	add	a, d
  148 D1:BD9D 57 -  -  -  	ld	d, a		
  149 D1:BD9E -  -  -  -  ; do de + temp_value
  150 D1:BD9E E1 -  -  -  	pop	hl
  151 D1:BD9F 19 -  -  -  	add	hl, de
  152 D1:BDA0 2B -  -  -  	dec	hl
  153 D1:BDA1 CB 14 -  -  	rl	h
  154 D1:BDA3 C9 -  -  -  	ret
  155 D1:BDA4 -  -  -  -  
  156 D1:BDA4 -  -  -  -  
  157 D1:BDA4 -  -  -  -  
  158 D1:BDA4 -  -  -  -  #comment
  159 D1:BDA4             	ld	ix, (iy+VX_INDEX0)
  160 D1:BDA4             	add	ix, bc
  161 D1:BDA4             	ld	hl, (ix+VX_VERTEX_RZ)
  162 D1:BDA4             	ld	ix, (iy+VX_INDEX1)
  163 D1:BDA4             	add	ix, bc
  164 D1:BDA4             	ld	de, (ix+VX_VERTEX_RZ)
  165 D1:BDA4             	add	hl, de
  166 D1:BDA4             	ld	ix, (iy+VX_INDEX2)
  167 D1:BDA4             	add	ix, bc	; shouldn't carry
  168 D1:BDA4             	ld	de, (ix+VX_VERTEX_RZ)
  169 D1:BDA4             	adc	hl, de
  170 D1:BDA4             	jp	p, vxAvgDepthPositive
  171 D1:BDA4             	or	a, a
  172 D1:BDA4             	sbc	hl, hl
  173 D1:BDA4             vxAvgDepthPositive:
  174 D1:BDA4             
  175 D1:BDA4             #endcomment
Listing for file "C:\Users\Zeromus\Documents\GitHub\Virtual3D\vxPipeline.ez80"
    4 D1:BDA4 -  -  -  -  
    5 D1:BDA4 -  -  -  -  
    6 D1:BDA4 -  -  -  -  #define	VX_GEOMETRY_N3TI9	%00010011	; 19
    7 D1:BDA4 -  -  -  -  #define	VX_GEOMETRY_TI9		%00010000	; 16
    8 D1:BDA4 -  -  -  -  #define	VX_GEOMETRY_N3CI9	%00001101	; 13	; in theory not needed anymore
    9 D1:BDA4 -  -  -  -  #define	VX_GEOMETRY_CI9		%00001010	; 10
   10 D1:BDA4 -  -  -  -  
   11 D1:BDA4 -  -  -  -  #define	VX_GEOMETRY_COLOR	%00001010
   12 D1:BDA4 -  -  -  -  #define	VX_GEOMETRY_TEXTURE	%00010000
   13 D1:BDA4 -  -  -  -  
   14 D1:BDA4 -  -  -  -  #define	VX_ANIMATION_MATRIX_SIZE	15
   15 D1:BDA4 -  -  -  -  #define	VX_ANIMATION_BONE	32768
   16 D1:BDA4 -  -  -  -  
   17 D1:BDA4 -  -  -  -  #define	VX_GEOMETRY_QUEUE	$D10000	; 4*4096 (16K)
   18 D1:BDA4 -  -  -  -  #define	VX_VERTEX_BUFFER		$D08000	; 16*2048 (32K)
   19 D1:BDA4 -  -  -  -  #define	VX_MAX_TRIANGLE		4096
   20 D1:BDA4 -  -  -  -  #define	VX_MAX_VERTEX		2048
   21 D1:BDA4 -  -  -  -  #define	VX_MAX_BATCH		64
   22 D1:BDA4 -  -  -  -  
   23 D1:BDA4 -  -  -  -  #define	VX_VERTEX_BOX		8
   24 D1:BDA4 -  -  -  -  
   25 D1:BDA4 -  -  -  -  #define	vxPosition			$D03406
   26 D1:BDA4 -  -  -  -  #define	VX_DEPTH_BUCKET		$D03200
   27 D1:BDA4 -  -  -  -  #define	vxDepthSortTemp		$E30014
   28 D1:BDA4 -  -  -  -  
   29 D1:BDA4 -  -  -  -  ; TODO : create geometry shader in submission
   30 D1:BDA4 -  -  -  -  ; Better vertex shader with decoupled projection
   31 D1:BDA4 -  -  -  -  ; Put all the code in fast ram, use sha256
   32 D1:BDA4 -  -  -  -  
   33 D1:BDA4 -  -  -  -  vxSubmissionQueue:
   34 D1:BDA4 00 00 00 -  	.dl	0
   35 D1:BDA7 -  -  -  -  vxGeometrySize:
   36 D1:BDA7 00 00 00 -  	.dl	0
   37 D1:BDAA -  -  -  -  vxBatchData:
   38 D1:BDAA 00 00 00 -  	.dl	0
   39 D1:BDAD -  -  -  -  vxVertexCacheFill:
   40 D1:BDAD 00 00 00 -  	.dl	0
   41 D1:BDB0 -  -  -  -  vxModelViewCache:
   42 D1:BDB0 00 00 00 -  	.db	0,0,0
   43 D1:BDB3 00 00 00 -  	.db	0,0,0
   44 D1:BDB6 00 00 00 -  	.db	0,0,0
   45 D1:BDB9 00 00 00 00 
              00 00 00 00 
              00 -  -  -  	.dl	0,0,0
   46 D1:BDC2 -  -  -  -  vxModelWorld:
   47 D1:BDC2 00 00 00 -  	.db	0,0,0
   48 D1:BDC5 00 00 00 -  	.db	0,0,0
   49 D1:BDC8 00 00 00 -  	.db	0,0,0
   50 D1:BDCB 00 00 00 00 
              00 00 00 00 
              00 -  -  -  	.dl	0,0,0
   51 D1:BDD4 -  -  -  -  vxTModelWorld:
   52 D1:BDD4 00 00 00 -  	.db	0,0,0
   53 D1:BDD7 00 00 00 -  	.db	0,0,0
   54 D1:BDDA 00 00 00 -  	.db	0,0,0
   55 D1:BDDD 00 00 00 00 
              00 00 00 00 
              00 -  -  -  	.dl	0,0,0
   56 D1:BDE6 -  -  -  -  vxLight0Cache:
   57 D1:BDE6 00 00 00 -  	.db	0,0,0
   58 D1:BDE9 00 -  -  -  	.db	0
   59 D1:BDEA 00 00 00 00 
              00 00 -  -  	.dw	0,0,0
   60 D1:BDF0 -  -  -  -  vxKeyAnimation:
   61 D1:BDF0 00 -  -  -  	.db	0
   62 D1:BDF1 -  -  -  -  
   63 D1:BDF1 00 00 00 00 
              00 00 00 00 
              00 00 00 00 
              00 00 00 -  .align 256
Listing for file "C:\Users\Zeromus\Documents\GitHub\Virtual3D\vxPipeline.ez80"
   64 D1:BE00 -  -  -  -  VX_BATCH_DATA:
   65 D1:BE00 00 00 00 00 
              00 00 00 00 
              00 00 00 00 
              00 00 00 00 
              00 00 00 00 
              00 00 00 00 
              00 00 00 00 
              00 00 00 00 
              00 00 00 00 
              00 00 00 00 
              00 00 00 00 
              00 00 00 00 
              00 00 00 00 
              00 00 00 00 
              00 00 00 00 
              00 00 00 00 
              00 00 00 00 
              00 00 00 00 
              00 00 00 00 
              00 00 00 00 
              00 00 00 00 
              00 00 00 00 
              00 00 00 00 
              00 00 00 00 
              00 00 00 00 
              00 00 00 00 
              00 00 00 00 
              00 00 00 00 
              00 00 00 00 
              00 00 00 00 
              00 00 00 00 
              00 00 00 00 
              00 00 00 00 
              00 00 00 00 
              00 00 00 00 
              00 00 00 00 
              00 00 00 00 
              00 00 00 00 
              00 00 00 00 
              00 00 00 00 
              00 00 00 00 
              00 00 00 00 
              00 00 00 00 
              00 00 00 00 
              00 00 00 00 
              00 00 00 00 
              00 00 00 00 
              00 00 00 00 
              00 00 00 00 
              00 00 00 00 
              00 00 00 00 
              00 00 00 00 
              00 00 00 00 
              00 00 00 00 
              00 00 00 00 
              00 00 00 00 
              00 00 00 00 
              00 00 00 00 
              00 00 00 00 
              00 00 00 00 
              00 00 00 00 
              00 00 00 00 
              00 00 00 00 
              00 00 00 00 .fill 256
   66 D1:BF00 -  -  -  -  
   67 D1:BF00 -  -  -  -  vxCmdExecute:
   68 D1:BF00 FD 21 00 00 
              D1 -  -  -  	ld	iy, VX_GEOMETRY_QUEUE
   69 D1:BF05 FD 22 A4 BD 
              D1 -  -  -  	ld	(vxSubmissionQueue), iy
   70 D1:BF0A 21 00 BE D1 	ld	hl, VX_BATCH_DATA
   71 D1:BF0E 22 AA BD D1 	ld	(vxBatchData), hl
   72 D1:BF12 -  -  -  -  ; various reset blahblah
   73 D1:BF12 -  -  -  -  
   74 D1:BF12 21 03 D4 D1 	ld	hl, VX_SHADER_INTERPOLATION_COPY
   75 D1:BF16 11 00 08 E3 	ld	de, VX_SHADER_INTERPOLATION_CODE
   76 D1:BF1A 01 00 04 00 	ld	bc, 1024
   77 D1:BF1E ED B0 -  -  	ldir
   78 D1:BF20 21 63 D7 D1 	ld	hl, VX_PIXEL_SHADER_COPY
   79 D1:BF24 11 10 00 E1 	ld	de, VX_PIXEL_SHADER_CODE
   80 D1:BF28 01 40 00 00 	ld	bc, 64
   81 D1:BF2C ED B0 -  -  	ldir
   82 D1:BF2E -  -  -  -  
   83 D1:BF2E ED 4B A7 BD 
              D1 -  -  -  	ld	bc, (vxGeometrySize)
   84 D1:BF33 21 00 00 00 	ld	hl, 0
   85 D1:BF37 22 A7 BD D1 	ld	(vxGeometrySize), hl
   86 D1:BF3B 78 -  -  -  	ld	a, b
   87 D1:BF3C B1 -  -  -  	or	c
   88 D1:BF3D -  -  -  -  ;	jp	z, vxResetCache
   89 D1:BF3D C8 -  -  -  	ret	z
   90 D1:BF3E 79 -  -  -  	ld	a, c
   91 D1:BF3F 0B -  -  -  	dec	bc
   92 D1:BF40 04 -  -  -  	inc	b
   93 D1:BF41 48 -  -  -  	ld	c, b
   94 D1:BF42 47 -  -  -  	ld	b, a
   95 D1:BF43 -  -  -  -  vxCmdExeLoop:
   96 D1:BF43 C5 -  -  -  	push	bc
   97 D1:BF44 -  -  -  -  
   98 D1:BF44 21 00 BE D1 	ld	hl, VX_BATCH_DATA
   99 D1:BF48 FD 6E 00 -  	ld	l, (iy+0)
  100 D1:BF4B 7E -  -  -  	ld	a, (hl)	; format
  101 D1:BF4C 23 -  -  -  	inc	hl
  102 D1:BF4D ED 07 -  -  	ld	bc, (hl)	; subcache
  103 D1:BF4F ED 66 04 -  	pea	iy+4
  104 D1:BF52 FD 37 01 -  	ld	iy, (iy+1)	; read triangle data
  105 D1:BF55 -  -  -  -  ; switch(format)
  106 D1:BF55 FE 10 -  -  	cp	VX_GEOMETRY_TI9
  107 D1:BF57 30 23 -  -  	jr	nc, vxCmdFormatTex
  108 D1:BF59 -  -  -  -  vxCmdFormatCol:
  109 D1:BF59 FD 7E 09 -  	ld	a, (iy+9)	; color
  110 D1:BF5C FD 27 00 -  	ld	hl, (iy+0)
  111 D1:BF5F 09 -  -  -  	add	hl, bc
  112 D1:BF60 EB -  -  -  	ex	de, hl
  113 D1:BF61 FD 27 03 -  	ld	hl, (iy+3)
  114 D1:BF64 09 -  -  -  	add	hl, bc
  115 D1:BF65 FD 31 06 -  	ld	ix, (iy+6)
  116 D1:BF68 DD 09 -  -  	add	ix, bc
  117 D1:BF6A ED 02 00 -  	lea	bc, ix+0
  118 D1:BF6D CD 97 AA D1 	call	vxFlatTriangle
  119 D1:BF71 FD E1 -  -  	pop	iy
  120 D1:BF73 C1 -  -  -  	pop	bc
  121 D1:BF74 10 CD -  -  	djnz	vxCmdExeLoop
  122 D1:BF76 0D -  -  -  	dec	c
  123 D1:BF77 C2 43 BF D1 	jp	nz, vxCmdExeLoop
  124 D1:BF7B C9 -  -  -  	ret
  125 D1:BF7C -  -  -  -  vxCmdFormatTex:
  126 D1:BF7C -  -  -  -  
  127 D1:BF7C -  -  -  -  ;;	push	bc
  128 D1:BF7C -  -  -  -  ;;;	;ld	ix, vxWorldView+6
  129 D1:BF7C -  -  -  -  ;;	ld	ix, LIGHT
  130 D1:BF7C -  -  -  -  
  131 D1:BF7C -  -  -  -  #comment
  132 D1:BF7C             	call	vxDotProduct
  133 D1:BF7C             	or	a, a
  134 D1:BF7C             	ex	de, hl
  135 D1:BF7C             	sbc	hl, hl
  136 D1:BF7C             	sbc	hl, de
  137 D1:BF7C             	bit	7, h
  138 D1:BF7C             	jr	z, _InRange
  139 D1:BF7C             	ld	hl, 0
  140 D1:BF7C             _InRange:
  141 D1:BF7C             	add	hl, hl
  142 D1:BF7C             	ld	a, 12
  143 D1:BF7C             	add	a, h
  144 D1:BF7C             	cp	32
  145 D1:BF7C             	jr	c, $+4
  146 D1:BF7C             	ld	a, 31
  147 D1:BF7C             	ld	(INCREMENT), a
  148 D1:BF7C             #endcomment
  149 D1:BF7C -  -  -  -  #comment
  150 D1:BF7C             	xor	a, a
  151 D1:BF7C             	ld	c, (iy+16)
  152 D1:BF7C             	ld	b, (ix+0)
  153 D1:BF7C             	bit	7, c \ jr z, $+3 \ sub a,b
  154 D1:BF7C             	bit	7, b \ jr z, $+3 \ sub a,c
  155 D1:BF7C             	mlt	bc
  156 D1:BF7C             	add	a, b
  157 D1:BF7C             	ld	c, (iy+17)
  158 D1:BF7C             	ld	b, (ix+1)
  159 D1:BF7C             	bit	7, c \ jr z, $+3 \ sub a,b
  160 D1:BF7C             	bit	7, b \ jr z, $+3 \ sub a,c
  161 D1:BF7C             	mlt	bc
  162 D1:BF7C             	add	a, b
  163 D1:BF7C             	ld	c, (iy+18)
  164 D1:BF7C             	ld	b, (ix+2)
  165 D1:BF7C             	bit	7, c \ jr z, $+3 \ sub a,b
  166 D1:BF7C             	bit	7, b \ jr z, $+3 \ sub a,c
  167 D1:BF7C             	mlt	bc
  168 D1:BF7C             	add	a, b
  169 D1:BF7C             ; max(a,0)
  170 D1:BF7C             	jp	p, $+4+1
  171 D1:BF7C             	xor	a, a
  172 D1:BF7C             ; lightning model is here, infinite directionnal light, no pow=1
  173 D1:BF7C             ; ambiant lightning=12
  174 D1:BF7C             ;;	add	a, 8
  175 D1:BF7C             	add	a, 12
  176 D1:BF7C             ; min(a,31)
  177 D1:BF7C             	cp	32
  178 D1:BF7C             	jr	c, $+4
  179 D1:BF7C             	ld	a, 31
  180 D1:BF7C             	ld	(INCREMENT), a
  181 D1:BF7C             	pop	bc
  182 D1:BF7C             
  183 D1:BF7C             	ld	de, (iy+12)
  184 D1:BF7C             	ld	ix, (iy+3)
  185 D1:BF7C             	add	ix, bc
  186 D1:BF7C             	ld	(ix+5), e
  187 D1:BF7C             	ld	(ix+6), d
  188 D1:BF7C             	lea	de, ix+0
  189 D1:BF7C             
  190 D1:BF7C             	ld	hl, (iy+10)
  191 D1:BF7C             	ld	ix, (iy+0)
  192 D1:BF7C             	add	ix, bc
  193 D1:BF7C             	ld	(ix+5), l
  194 D1:BF7C             	ld	(ix+6), h
  195 D1:BF7C             ;;	lea	hl, ix+0
  196 D1:BF7C             
  197 D1:BF7C             	ld	hl, (iy+14)
  198 D1:BF7C             	ld	iy, (iy+6)
  199 D1:BF7C             	add	iy, bc
  200 D1:BF7C             	ld	(iy+5), l
  201 D1:BF7C             	ld	(iy+6), h
  202 D1:BF7C             	lea	bc, iy+0
  203 D1:BF7C             
  204 D1:BF7C             	lea	hl, ix+0
  205 D1:BF7C             
  206 D1:BF7C             	ld	ix, (iy+3)
  207 D1:BF7C             	add	ix, bc
  208 D1:BF7C             	ld	a, (ix+5)
  209 D1:BF7C             	lea de, ix+0
  210 D1:BF7C             
  211 D1:BF7C             	ld	ix, (iy+0)
  212 D1:BF7C             	add	ix, bc
  213 D1:BF7C             	add	a, (ix+5)
  214 D1:BF7C             	lea	hl, ix+0
  215 D1:BF7C             
  216 D1:BF7C             	ld	ix, (iy+6)
  217 D1:BF7C             	add	ix, bc
  218 D1:BF7C             	add	a, (ix+5)
  219 D1:BF7C             	lea	bc, ix+0
  220 D1:BF7C             
  221 D1:BF7C             	lea	ix, iy+10
  222 D1:BF7C             #endcomment
  223 D1:BF7C -  -  -  -  
  224 D1:BF7C FD 31 00 -  	ld	ix, (iy+0)
  225 D1:BF7F DD 09 -  -  	add	ix, bc
  226 D1:BF81 FD 17 0A -  	ld	de, (iy+10)
  227 D1:BF84 DD 73 04 -  	ld	(ix+VX_VERTEX_GPR0), e
  228 D1:BF87 DD 72 05 -  	ld	(ix+VX_VERTEX_GPR1), d
  229 D1:BF8A DD 7E 06 -  	ld	a, (ix+VX_VERTEX_UNIFORM)
  230 D1:BF8D ED 12 00 -  	lea	de, ix+0
  231 D1:BF90 -  -  -  -  
  232 D1:BF90 FD 31 03 -  	ld	ix, (iy+3)
  233 D1:BF93 DD 09 -  -  	add	ix, bc
  234 D1:BF95 FD 27 0C -  	ld	hl, (iy+12)
  235 D1:BF98 DD 75 04 -  	ld	(ix+VX_VERTEX_GPR0), l
  236 D1:BF9B DD 74 05 -  	ld	(ix+VX_VERTEX_GPR1), h
  237 D1:BF9E DD 86 06 -  	add	a, (ix+VX_VERTEX_UNIFORM)
  238 D1:BFA1 ED 22 00 -  	lea	hl, ix+0
  239 D1:BFA4 -  -  -  -  
  240 D1:BFA4 FD 31 06 -  	ld	ix, (iy+6)
  241 D1:BFA7 DD 09 -  -  	add	ix, bc
  242 D1:BFA9 FD 07 0E -  	ld	bc, (iy+14)
  243 D1:BFAC DD 71 04 -  	ld	(ix+VX_VERTEX_GPR0), c
  244 D1:BFAF DD 70 05 -  	ld	(ix+VX_VERTEX_GPR1), b
  245 D1:BFB2 DD 86 06 -  	add	a, (ix+VX_VERTEX_UNIFORM)
  246 D1:BFB5 -  -  -  -  ; compute uniform value
  247 D1:BFB5 47 -  -  -  	ld	b, a
  248 D1:BFB6 0E 53 -  -  	ld	c, 83
  249 D1:BFB8 ED 4C -  -  	mlt	bc
  250 D1:BFBA 78 -  -  -  	ld	a, b
  251 D1:BFBB 32 4D 0B E3 	ld	(vxShaderUniform0+1), a
  252 D1:BFBF ED 02 00 -  	lea	bc, ix+0
  253 D1:BFC2 -  -  -  -  
  254 D1:BFC2 CD 00 08 E3 	call	vxTextureTriangle
  255 D1:BFC6 FD E1 -  -  	pop	iy
  256 D1:BFC8 C1 -  -  -  	pop	bc
  257 D1:BFC9 05 -  -  -  	dec	b
  258 D1:BFCA C2 43 BF D1 	jp	nz, vxCmdExeLoop
  259 D1:BFCE 0D -  -  -  	dec	c
  260 D1:BFCF C2 43 BF D1 	jp	nz, vxCmdExeLoop
  261 D1:BFD3 C9 -  -  -  	ret
  262 D1:BFD4 -  -  -  -  ;;	jp	vxResetCache
  263 D1:BFD4 -  -  -  -  
  264 D1:BFD4 -  -  -  -  vxCmdDraw:
  265 D1:BFD4 -  -  -  -  ; hl - vertex source bc - cache area : de - triangle source : ix - matrix world matrix followed with iy  model matrix
  266 D1:BFD4 -  -  -  -  ; format : a
  267 D1:BFD4 -  -  -  -  ; now write batch id, batch data (format, cache)
  268 D1:BFD4 E5 -  -  -  	push	hl
  269 D1:BFD5 2A AA BD D1 	ld	hl, (vxBatchData)
  270 D1:BFD9 77 -  -  -  	ld	(hl), a	; format
  271 D1:BFDA 32 38 C0 D1 	ld	(vxFormatOffset0), a
  272 D1:BFDE 7D -  -  -  	ld	a, l
  273 D1:BFDF 23 -  -  -  	inc	hl
  274 D1:BFE0 ED 0F -  -  	ld	(hl), bc
  275 D1:BFE2 23 23 23 -  	inc hl \ inc hl \ inc hl
  276 D1:BFE5 22 AA BD D1 	ld	(vxBatchData), hl
  277 D1:BFE9 32 2C C0 D1 	ld	(vxBatchOffset0), a
  278 D1:BFED E1 -  -  -  	pop	hl
  279 D1:BFEE -  -  -  -  
  280 D1:BFEE C5 -  -  -  	push	bc
  281 D1:BFEF D5 -  -  -  	push	de
  282 D1:BFF0 CD 62 C0 D1 	call	vxCmdStream	; stream vertex data to cache
  283 D1:BFF4 FD E1 -  -  	pop	iy			; polygon list
  284 D1:BFF6 D1 -  -  -  	pop	de
  285 D1:BFF7 D8 -  -  -  	ret	c
  286 D1:BFF8 FD 07 01 -  	ld	bc, (iy+1)
  287 D1:BFFB 79 -  -  -  	ld	a, c
  288 D1:BFFC 0B -  -  -  	dec	bc
  289 D1:BFFD 04 -  -  -  	inc	b
  290 D1:BFFE 48 -  -  -  	ld	c, b
  291 D1:BFFF 47 -  -  -  	ld	b, a
  292 D1:C000 ED 33 03 -  	lea iy, iy+3
  293 D1:C003 DD 2A A4 BD 
              D1 -  -  -  	ld	ix, (vxSubmissionQueue)
  294 D1:C008 -  -  -  -  
  295 D1:C008 -  -  -  -  #comment
  296 D1:C008             vxSubmission0:
  297 D1:C008             	ld	hl, (iy+0)
  298 D1:C008             	add	hl, de
  299 D1:C008             	ld	a, (hl)
  300 D1:C008             	ld	hl, (iy+3)
  301 D1:C008             	add	hl, de
  302 D1:C008             	and	(hl)
  303 D1:C008             	ld	hl, (iy+6)
  304 D1:C008             	add	hl, de
  305 D1:C008             	and	(hl)
  306 D1:C008             	jr	nz, vxDiscard1
  307 D1:C008             
  308 D1:C008             	ld	hl, (iy+0)
  309 D1:C008             	add	hl, de
  310 D1:C008             	ld	a, (hl)
  311 D1:C008             	ld	hl, (iy+3)
  312 D1:C008             	add	hl, de
  313 D1:C008             	or	(hl)
  314 D1:C008             	ld	hl, (iy+6)
  315 D1:C008             	add	hl, de
  316 D1:C008             	or	(hl)
  317 D1:C008             	jr	nz, +_
  318 D1:C008             ; try for bfc
  319 D1:C008             	push	bc
  320 D1:C008             
  321 D1:C008             	call	vxCmdBFC
  322 D1:C008             
  323 D1:C008             	pop	bc
  324 D1:C008             	jp	p, vxDiscard1
  325 D1:C008             _:
  326 D1:C008             ; compute depth and submit polygon to list (ix)
  327 D1:C008             vxBatchOffset0=$+1
  328 D1:C008             	ld	a, $00
  329 D1:C008             	ld	(ix+0), a
  330 D1:C008             	ld	(ix+1), iy
  331 D1:C008             	lea	ix, ix+4
  332 D1:C008             vxDiscard1:
  333 D1:C008             vxFormatOffset0=$+2
  334 D1:C008             	lea	iy, iy+16
  335 D1:C008             	djnz	vxSubmission0
  336 D1:C008             	dec	c
  337 D1:C008             	jr	nz, vxSubmission0
  338 D1:C008             #endcomment
  339 D1:C008 -  -  -  -  
  340 D1:C008 -  -  -  -  vxSubmission0:
  341 D1:C008 D5 -  -  -  	push	de
  342 D1:C009 C5 -  -  -  	push	bc
  343 D1:C00A -  -  -  -  
  344 D1:C00A FD 27 06 -  	ld	hl, (iy+6)
  345 D1:C00D 19 -  -  -  	add	hl, de
  346 D1:C00E E5 -  -  -  	push	hl
  347 D1:C00F FD 27 03 -  	ld	hl, (iy+3)
  348 D1:C012 19 -  -  -  	add	hl, de
  349 D1:C013 EB -  -  -  	ex	de, hl
  350 D1:C014 FD 07 00 -  	ld	bc, (iy+0)
  351 D1:C017 09 -  -  -  	add	hl, bc
  352 D1:C018 C1 -  -  -  	pop	bc
  353 D1:C019 -  -  -  -  ; bc = 2 , de = 1, hl =0
  354 D1:C019 -  -  -  -  
  355 D1:C019 0A -  -  -  	ld	a, (bc)
  356 D1:C01A A6 -  -  -  	and	(hl)
  357 D1:C01B EB -  -  -  	ex	de, hl
  358 D1:C01C A6 -  -  -  	and	(hl)
  359 D1:C01D 20 17 -  -  	jr	nz, vxDiscard
  360 D1:C01F 0A -  -  -  	ld	a, (bc)
  361 D1:C020 B6 -  -  -  	or	(hl)
  362 D1:C021 EB -  -  -  	ex	de, hl
  363 D1:C022 B6 -  -  -  	or	(hl)
  364 D1:C023 20 06 -  -  	jr	nz, vxPass
  365 D1:C025 -  -  -  -  ; try for bfc
  366 D1:C025 -  -  -  -  ;;	call	HELLO
  367 D1:C025 CD 55 BD D1 	call	vxNClip
  368 D1:C029 -  -  -  -  ;;	jp	p, vxDiscard
  369 D1:C029 38 0B -  -  	jr	c, vxDiscard
  370 D1:C02B -  -  -  -  vxPass:
  371 D1:C02B -  -  -  -  ; compute depth and submit polygon to list (ix)
  372 D1:C02B -  -  -  -  vxBatchOffset0=$+1
  373 D1:C02B 3E 00 -  -  	ld	a, $00
  374 D1:C02D DD 77 00 -  	ld	(ix+0), a
  375 D1:C030 DD 3E 01 -  	ld	(ix+1), iy
  376 D1:C033 ED 32 04 -  	lea	ix, ix+4
  377 D1:C036 -  -  -  -  vxDiscard:
  378 D1:C036 -  -  -  -  vxFormatOffset0=$+2
  379 D1:C036 ED 33 10 -  	lea	iy, iy+16
  380 D1:C039 -  -  -  -  
  381 D1:C039 C1 -  -  -  	pop	bc
  382 D1:C03A D1 -  -  -  	pop	de
  383 D1:C03B 10 CB -  -  	djnz	vxSubmission0
  384 D1:C03D 0D -  -  -  	dec	c
  385 D1:C03E 20 C8 -  -  	jr	nz, vxSubmission0
  386 D1:C040 -  -  -  -  
  387 D1:C040 -  -  -  -  ; need to update count & queue position
  388 D1:C040 -  -  -  -  ; simple : new-previous / 4
  389 D1:C040 ED 5B A4 BD 
              D1 -  -  -  	ld	de, (vxSubmissionQueue)
  390 D1:C045 ED 22 00 -  	lea	hl, ix+0
  391 D1:C048 22 A4 BD D1 	ld	(vxSubmissionQueue), hl
  392 D1:C04C B7 -  -  -  	or	a, a
  393 D1:C04D ED 52 -  -  	sbc	hl, de
  394 D1:C04F CB 2C CB 1D 	sra h \ rr l
  395 D1:C053 CB 2C CB 1D 	sra h \ rr l
  396 D1:C057 ED 4B A7 BD 
              D1 -  -  -  	ld	bc, (vxGeometrySize)
  397 D1:C05C 09 -  -  -  	add	hl, bc
  398 D1:C05D 22 A7 BD D1 	ld	(vxGeometrySize), hl
  399 D1:C061 -  -  -  -  
  400 D1:C061 C9 -  -  -  	ret
  401 D1:C062 -  -  -  -  
  402 D1:C062 -  -  -  -  ;vxResetCache:
  403 D1:C062 -  -  -  -  ;	ld	hl, VX_VERTEX_BUFFER
  404 D1:C062 -  -  -  -  ;	ld	de, 16
  405 D1:C062 -  -  -  -  ;	ld	b, 0
  406 D1:C062 -  -  -  -  ;	ld	a, $FF
  407 D1:C062 -  -  -  -  ;vxResetCacheLoop:
  408 D1:C062 -  -  -  -  ;	ld	(hl), a
  409 D1:C062 -  -  -  -  ;	add	hl, de
  410 D1:C062 -  -  -  -  ;	ld	(hl), a
  411 D1:C062 -  -  -  -  ;	add	hl, de
  412 D1:C062 -  -  -  -  ;	ld	(hl), a
  413 D1:C062 -  -  -  -  ;	add	hl, de
  414 D1:C062 -  -  -  -  ;	ld	(hl), a
  415 D1:C062 -  -  -  -  ;	add	hl, de
  416 D1:C062 -  -  -  -  ;	ld	(hl), a
  417 D1:C062 -  -  -  -  ;	add	hl, de
  418 D1:C062 -  -  -  -  ;	ld	(hl), a
  419 D1:C062 -  -  -  -  ;	add	hl, de
  420 D1:C062 -  -  -  -  ;	ld	(hl), a
  421 D1:C062 -  -  -  -  ;	add	hl, de
  422 D1:C062 -  -  -  -  ;	ld	(hl), a
  423 D1:C062 -  -  -  -  ;	add	hl, de
  424 D1:C062 -  -  -  -  ;	djnz	vxResetCacheLoop
  425 D1:C062 -  -  -  -  ;	ret
  426 D1:C062 -  -  -  -  
  427 D1:C062 -  -  -  -  vxCmdStream:
  428 D1:C062 -  -  -  -  ; hl - vertex source, bc - vertex cache, ix worldview matrix, iy modelworld matrix (should be an model matrix)
  429 D1:C062 -  -  -  -  ; vertex source have size at the begining
  430 D1:C062 -  -  -  -  ; support animation
  431 D1:C062 C5 -  -  -  	push	bc
  432 D1:C063 E5 -  -  -  	push	hl
  433 D1:C064 -  -  -  -  ; load shader first
  434 D1:C064 21 29 BA D1 	ld	hl, VX_VERTEX_SHADER_COPY
  435 D1:C068 11 00 08 E3 	ld	de, VX_VRAM
  436 D1:C06C 01 00 04 00 	ld	bc, VX_VERTEX_SHADER_SIZE
  437 D1:C070 ED B0 -  -  	ldir
  438 D1:C072 -  -  -  -  ; transform the worldview with the modelworld matrix to have the global modelview matrix
  439 D1:C072 -  -  -  -  ; modelviewcache = modelworld * worldview
  440 D1:C072 21 B0 BD D1 	ld	hl, vxModelViewCache
  441 D1:C076 CD 3C AD D1 	call	vxMatrixTransform		; (hl) = (iy)*(ix)
  442 D1:C07A -  -  -  -  ; modelview=modelviewcache
  443 D1:C07A 11 00 08 E3 	ld	de, vxModelView
  444 D1:C07E 01 12 00 00 	ld	bc, VX_MATRIX_SIZE
  445 D1:C082 ED B0 -  -  	ldir
  446 D1:C084 -  -  -  -  ; modelworld=modelworld
  447 D1:C084 -  -  -  -  ; tmodelworld=transpose(modelworld)
  448 D1:C084 ED 23 00 -  	lea	hl, iy+0
  449 D1:C087 11 C2 BD D1 	ld	de, vxModelWorld
  450 D1:C08B 01 12 00 00 	ld	bc, VX_MATRIX_SIZE
  451 D1:C08F ED B0 -  -  	ldir
  452 D1:C091 ED 23 00 -  	lea	hl, iy+0
  453 D1:C094 01 12 00 00 	ld	bc, VX_MATRIX_SIZE
  454 D1:C098 ED B0 -  -  	ldir
  455 D1:C09A DD 21 D4 BD 
              D1 -  -  -  	ld	ix, vxTModelWorld
  456 D1:C09F CD 5F AD D1 	call	vxMatrixTranspose
  457 D1:C0A3 -  -  -  -  ; light0cache=light0
  458 D1:C0A3 -  -  -  -  ; light0=light0*transpose(modelworld)
  459 D1:C0A3 21 12 08 E3 	ld	hl, vxLight0
  460 D1:C0A7 11 E6 BD D1 	ld	de, vxLight0Cache
  461 D1:C0AB 01 0A 00 00 	ld	bc, VX_LIGHT_SIZE
  462 D1:C0AF ED B0 -  -  	ldir
  463 D1:C0B1 -  -  -  -  ; do light*matrix (hl) = (iy)*(ix)
  464 D1:C0B1 21 12 08 E3 	ld	hl, vxLight0
  465 D1:C0B5 FD 21 E6 BD 
              D1 -  -  -  	ld	iy, vxLight0Cache
  466 D1:C0BA CD 84 AD D1 	call	vxMatrixLightning
  467 D1:C0BE -  -  -  -  ; load up shader data
  468 D1:C0BE DD 21 00 08 
              E3 -  -  -  	ld	ix, VX_VERTEX_SHADER_DATA
  469 D1:C0C3 FD E1 -  -  	pop	iy
  470 D1:C0C5 -  -  -  -  ; iy = source, ix = matrix
  471 D1:C0C5 FD 7E 00 -  	ld	a, (iy+0)
  472 D1:C0C8 FD 07 01 -  	ld	bc, (iy+1)
  473 D1:C0CB ED 33 03 -  	lea	iy, iy+3
  474 D1:C0CE E6 08 -  -  	and	VX_VERTEX_BOX
  475 D1:C0D0 C4 45 C1 D1 	call	nz, vxVertexStreamBox
  476 D1:C0D4 D1 -  -  -  	pop	de
  477 D1:C0D5 D8 -  -  -  	ret	c
  478 D1:C0D6 -  -  -  -  ; iy+0 are options, so check those. Here, only bounding box is interesting.
  479 D1:C0D6 79 -  -  -  	ld	a, c
  480 D1:C0D7 0B -  -  -  	dec	bc
  481 D1:C0D8 04 -  -  -  	inc	b
  482 D1:C0D9 48 -  -  -  	ld	c, b
  483 D1:C0DA 47 -  -  -  	ld	b, a
  484 D1:C0DB -  -  -  -  ; de = cache, iy = source, ix = matrix, bc = size
  485 D1:C0DB -  -  -  -  vxCmdStreamLoop:
  486 D1:C0DB C5 -  -  -  	push	bc
  487 D1:C0DC -  -  -  -  ; read first source value, if value=32768, then compute bone
  488 D1:C0DC FD 07 00 -  	ld	bc, (iy+0)
  489 D1:C0DF 78 -  -  -  	ld	a, b
  490 D1:C0E0 EE 80 -  -  	xor	VX_ANIMATION_BONE/256
  491 D1:C0E2 B1 -  -  -  	or	a, c
  492 D1:C0E3 28 0C -  -  	jr	z, vxCmdComputeBone
  493 D1:C0E5 -  -  -  -  ; wasn't a bone in source, so read vertex
  494 D1:C0E5 -  -  -  -  ; call vertex shader
  495 D1:C0E5 CD 1C 08 E3 	call	vxVertexShader
  496 D1:C0E9 -  -  -  -  vxCmdStreamLoopBack:
  497 D1:C0E9 C1 -  -  -  	pop	bc
  498 D1:C0EA 10 EF -  -  	djnz	vxCmdStreamLoop
  499 D1:C0EC 0D -  -  -  	dec	c
  500 D1:C0ED 20 EC -  -  	jr	nz, vxCmdStreamLoop
  501 D1:C0EF B7 -  -  -  	or	a, a
  502 D1:C0F0 C9 -  -  -  	ret
  503 D1:C0F1 -  -  -  -  vxCmdComputeBone:
  504 D1:C0F1 -  -  -  -  ; more complex stuff here. Need to restore initial matrix & do a multiplication with the correct bone key matrix
  505 D1:C0F1 -  -  -  -  ; once done, only advance in the source, not the cache
  506 D1:C0F1 D5 -  -  -  	push	de
  507 D1:C0F2 ED 33 03 -  	lea	iy, iy+3
  508 D1:C0F5 FD E5 -  -  	push	iy
  509 D1:C0F7 3A F0 BD D1 	ld	a, (vxKeyAnimation)
  510 D1:C0FB 5F -  -  -  	ld	e, a
  511 D1:C0FC 16 0F -  -  	ld	d, VX_ANIMATION_MATRIX_SIZE
  512 D1:C0FE ED 5C -  -  	mlt	de
  513 D1:C100 FD 19 -  -  	add	iy, de	; correct animation matrix
  514 D1:C102 -  -  -  -  ; modelview = bonemodel*modelview
  515 D1:C102 21 00 08 E3 	ld	hl, vxModelView
  516 D1:C106 DD 21 B0 BD 
              D1 -  -  -  	ld	ix, vxModelViewCache
  517 D1:C10B CD 3C AD D1 	call	vxMatrixTransform	; (hl)=(iy)*(ix)
  518 D1:C10F -  -  -  -  ; I have the correct modelview matrix in shader cache area
  519 D1:C10F -  -  -  -  ; next one is reduced matrix without translation, since it will only be a direction vector mlt. However, the light vector position also need to be transformed by the transposed matrix
  520 D1:C10F -  -  -  -  ; light0 = light0cache*transpose(bonemodel*modelworld)
  521 D1:C10F DD 21 C2 BD 
              D1 -  -  -  	ld	ix, vxModelWorld
  522 D1:C114 ED 22 12 -  	lea	hl, ix+VX_MATRIX_SIZE
  523 D1:C117 CD D9 AC D1 	call	vxMatrixMlt
  524 D1:C11B ED 32 12 -  	lea	ix, ix+VX_MATRIX_SIZE
  525 D1:C11E CD 5F AD D1 	call	vxMatrixTranspose
  526 D1:C122 21 12 08 E3 	ld	hl, vxLight0
  527 D1:C126 FD 21 E6 BD 
              D1 -  -  -  	ld	iy, vxLight0Cache
  528 D1:C12B CD 84 AD D1 	call	vxMatrixLightning
  529 D1:C12F FD E1 -  -  	pop	iy
  530 D1:C131 FD 7E FF -  	ld	a, (iy-1)
  531 D1:C134 5F -  -  -  	ld	e, a
  532 D1:C135 16 0F -  -  	ld	d, VX_ANIMATION_MATRIX_SIZE
  533 D1:C137 ED 5C -  -  	mlt	de
  534 D1:C139 FD 19 -  -  	add	iy, de
  535 D1:C13B D1 -  -  -  	pop	de
  536 D1:C13C C1 -  -  -  	pop	bc
  537 D1:C13D DD 21 00 08 
              E3 -  -  -  	ld	ix, VX_VERTEX_SHADER_DATA
  538 D1:C142 18 97 -  -  	jr	vxCmdStreamLoop
  539 D1:C144 -  -  -  -  vxVertexBoxCode:
  540 D1:C144 00 -  -  -  	.db	0
  541 D1:C145 -  -  -  -  vxVertexStreamBox:
  542 D1:C145 C5 -  -  -  	push	bc
  543 D1:C146 -  -  -  -  ; check the bounding box
  544 D1:C146 11 3D B5 D1 	ld	de, VX_VERTEX_POOL
  545 D1:C14A 3E FF -  -  	ld	a, $FF
  546 D1:C14C 32 44 C1 D1 	ld	(vxVertexBoxCode), a
  547 D1:C150 06 08 -  -  	ld	b, 8
  548 D1:C152 -  -  -  -  vxVertexBoxLoop:
  549 D1:C152 C5 -  -  -  	push	bc
  550 D1:C153 FD 07 00 -  	ld	bc, (iy+0)
  551 D1:C156 CD 1C 08 E3 	call	vxVertexShader
  552 D1:C15A ED 33 FD -  	lea	iy, iy-3
  553 D1:C15D 21 F0 FF FF 	ld	hl, -16
  554 D1:C161 19 -  -  -  	add	hl, de
  555 D1:C162 3A 44 C1 D1 	ld	a, (vxVertexBoxCode)
  556 D1:C166 A6 -  -  -  	and	a, (hl)
  557 D1:C167 32 44 C1 D1 	ld	(vxVertexBoxCode), a
  558 D1:C16B C1 -  -  -  	pop	bc
  559 D1:C16C 10 E4 -  -  	djnz	vxVertexBoxLoop
  560 D1:C16E C1 -  -  -  	pop	bc
  561 D1:C16F B7 -  -  -  	or	a, a	
  562 D1:C170 C8 -  -  -  	ret	z
  563 D1:C171 37 -  -  -  	scf
  564 D1:C172 C9 -  -  -  	ret
  565 D1:C173 -  -  -  -  
  566 D1:C173 -  -  -  -  #comment
  567 D1:C173             vxCmdStream:
  568 D1:C173             ; hl - vertex source, de - vertex cache, ix matrix, support  animation, if animation : use vxKeyAnimation
  569 D1:C173             ; vertex source have size at the begining
  570 D1:C173             ; copy matrix into vxWorldView matrix & ModelView matrix
  571 D1:C173             	push	de
  572 D1:C173             	push	hl
  573 D1:C173             
  574 D1:C173             ; load shader first
  575 D1:C173             
  576 D1:C173             	ld	hl, VX_GLOBAL_SHADER_COPY
  577 D1:C173             	ld	de, VX_VRAM
  578 D1:C173             	ld	bc, VX_GLOBAL_SHADER_SIZE
  579 D1:C173             	ldir
  580 D1:C173             
  581 D1:C173             	lea	hl, ix+0
  582 D1:C173             	ld	de, vxWorldView
  583 D1:C173             	ld	bc, VX_MATRIX_SIZE
  584 D1:C173             	ldir
  585 D1:C173             
  586 D1:C173             	lea	hl, ix+0
  587 D1:C173             	ld	de, vxModelView
  588 D1:C173             	ld	bc, VX_MATRIX_SIZE
  589 D1:C173             	ldir
  590 D1:C173             ;;	ld	ix, vxModelView
  591 D1:C173             ;
  592 D1:C173             	ld	ix, VX_GLOBAL_SHADER_DATA
  593 D1:C173             ; compute transpose
  594 D1:C173             
  595 D1:C173             	pop	hl
  596 D1:C173             	pop	de
  597 D1:C173             
  598 D1:C173             	ld	bc, (hl)
  599 D1:C173             	inc hl \ inc hl \ inc hl
  600 D1:C173             	push	hl
  601 D1:C173             	pop	iy
  602 D1:C173             	ld	a, c
  603 D1:C173             	dec	bc
  604 D1:C173             	inc	b
  605 D1:C173             	ld	c, b
  606 D1:C173             	ld	b, a
  607 D1:C173             
  608 D1:C173             ; de = cache, iy = source, ix = matrix, bc = size
  609 D1:C173             vxCmdStreamLoop0:
  610 D1:C173             	push	bc
  611 D1:C173             ; read first source value, if value=32768, then compute bone
  612 D1:C173             	ld	bc, (iy+0)
  613 D1:C173             ;;	ld	hl, VX_ANIMATION_BONE
  614 D1:C173             ;;	or	a, a
  615 D1:C173             ;;	sbc.s	hl, bc
  616 D1:C173             
  617 D1:C173             	ld	a, b
  618 D1:C173             	xor	VX_ANIMATION_BONE/256
  619 D1:C173             	or	a, c
  620 D1:C173             
  621 D1:C173             	jr	z, vxCmdStreamBone
  622 D1:C173             ; wasn't a bone in source, so read vertex
  623 D1:C173             ; transform vertex ! Take source iy*ix then copy value to cache
  624 D1:C173             	call	vxVertexShader
  625 D1:C173             vxCmdStreamLoopBack:
  626 D1:C173             	pop	bc
  627 D1:C173             	djnz	vxCmdStreamLoop0
  628 D1:C173             	dec	c
  629 D1:C173             	jr	nz, vxCmdStreamLoop0
  630 D1:C173             	ret
  631 D1:C173             vxCmdStreamBone:
  632 D1:C173             ; more complex stuff here. Need to restore initial matrix & do a multiplication with the correct bone key matrix
  633 D1:C173             ; once done, only advance in the source, not the cache
  634 D1:C173             	push	de
  635 D1:C173             ; matrix:
  636 D1:C173             	lea	ix, iy+3
  637 D1:C173             	ld	a, (vxKeyAnimation)
  638 D1:C173             	ld	e, a
  639 D1:C173             	ld	d, VX_ANIMATION_MATRIX_SIZE
  640 D1:C173             	mlt	de
  641 D1:C173             	add	ix, de	; correct animation matrix
  642 D1:C173             ; todo : do current matrix * this matrix
  643 D1:C173             	push	iy
  644 D1:C173             ; first transform the translation by the world matrix
  645 D1:C173             	push	ix
  646 D1:C173             	lea	iy, ix+9	; load translation part
  647 D1:C173             	ld	ix, vxWorldView
  648 D1:C173             	call	vxCmdTransform
  649 D1:C173             ; copy back data
  650 D1:C173             	ld	hl, vxPosition
  651 D1:C173             	ld	de, vxModelView+9
  652 D1:C173             	ld	bc, 9
  653 D1:C173             	ldir
  654 D1:C173             	pop	iy
  655 D1:C173             	ld	ix, vxWorldView
  656 D1:C173             	ld	hl, vxModelView
  657 D1:C173             ; hl=iy*ix
  658 D1:C173             	call	IMatrixMlt
  659 D1:C173             
  660 D1:C173             	ld	ix, vxModelView	; concatenation of modelWorld and WorldView
  661 D1:C173             
  662 D1:C173             	pop	iy
  663 D1:C173             	ld	a, (iy+2)	; number of matrix, advance
  664 D1:C173             	ld	e, a
  665 D1:C173             	ld	d, VX_ANIMATION_MATRIX_SIZE
  666 D1:C173             	mlt	de
  667 D1:C173             	add	iy, de
  668 D1:C173             	lea	iy, iy+3
  669 D1:C173             	pop	de
  670 D1:C173             	pop	bc
  671 D1:C173             	jp	vxCmdStreamLoop0
  672 D1:C173             #endcomment
  673 D1:C173 -  -  -  -  
  674 D1:C173 -  -  -  -  vxCmdDepthSort:
  675 D1:C173 C5 -  -  -  	push	bc
  676 D1:C174 01 FF 01 00 	ld	bc, 511
  677 D1:C178 21 FF 33 D0 	ld	hl, VX_DEPTH_BUCKET+511
  678 D1:C17C 11 FE 33 D0 	ld	de, VX_DEPTH_BUCKET+510
  679 D1:C180 36 00 -  -  	ld	(hl), $00
  680 D1:C182 ED B8 -  -  	lddr
  681 D1:C184 C1 -  -  -  	pop	bc
  682 D1:C185 -  -  -  -  ; sort the current submission queue
  683 D1:C185 ED 4B A7 BD 
              D1 -  -  -  	ld	bc, (vxGeometrySize)
  684 D1:C18A 78 -  -  -  	ld	a, b
  685 D1:C18B B1 -  -  -  	or	c
  686 D1:C18C C8 -  -  -  	ret	z
  687 D1:C18D FD 21 00 00 
              D1 -  -  -  	ld	iy, VX_GEOMETRY_QUEUE
  688 D1:C192 DD 2A 14 00 
              E3 -  -  -  	ld	ix, (vxDepthSortTemp)
  689 D1:C197 -  -  -  -  
  690 D1:C197 79 -  -  -  	ld	a, c
  691 D1:C198 0B -  -  -  	dec	bc
  692 D1:C199 04 -  -  -  	inc	b
  693 D1:C19A 48 -  -  -  	ld	c, b
  694 D1:C19B 47 -  -  -  	ld	b, a
  695 D1:C19C -  -  -  -  vxCmdDepthCompute:
  696 D1:C19C C5 -  -  -  	push	bc
  697 D1:C19D FD E5 -  -  	push	iy
  698 D1:C19F 21 00 BE D1 	ld	hl, VX_BATCH_DATA
  699 D1:C1A3 FD 6E 00 -  	ld	l, (iy+0)
  700 D1:C1A6 7D -  -  -  	ld	a, l		; batch index
  701 D1:C1A7 23 -  -  -  	inc	hl
  702 D1:C1A8 ED 07 -  -  	ld	bc, (hl)	; grab cache, important
  703 D1:C1AA FD 37 01 -  	ld	iy, (iy+1)	; this is adress of vertex index
  704 D1:C1AD -  -  -  -  
  705 D1:C1AD DD E5 -  -  	push	ix
  706 D1:C1AF FD 31 00 -  	ld	ix, (iy+0)
  707 D1:C1B2 DD 09 -  -  	add	ix, bc
  708 D1:C1B4 DD 27 0D -  	ld	hl, (ix+13)
  709 D1:C1B7 FD 31 03 -  	ld	ix, (iy+3)
  710 D1:C1BA DD 09 -  -  	add	ix, bc	; add cache adress of batch
  711 D1:C1BC DD 17 0D -  	ld	de, (ix+13)
  712 D1:C1BF 19 -  -  -  	add	hl, de	; add up Z coordinate
  713 D1:C1C0 FD 31 06 -  	ld	ix, (iy+6)
  714 D1:C1C3 DD 09 -  -  	add	ix, bc
  715 D1:C1C5 DD 17 0D -  	ld	de, (ix+13)
  716 D1:C1C8 B7 -  -  -  	or	a, a
  717 D1:C1C9 ED 5A -  -  	adc	hl, de	; et voil !
  718 D1:C1CB -  -  -  -  ; check for <0
  719 D1:C1CB F2 D2 C1 D1 	jp	p, vxCmdDepthPositive
  720 D1:C1CF B7 -  -  -  	or	a, a
  721 D1:C1D0 ED 62 -  -  	sbc	hl, hl
  722 D1:C1D2 -  -  -  -  vxCmdDepthPositive:
  723 D1:C1D2 DD E1 -  -  	pop	ix
  724 D1:C1D4 -  -  -  -  
  725 D1:C1D4 -  -  -  -  ; write everything to tmp buffer
  726 D1:C1D4 DD 2F 00 -  	ld	(ix+0), hl	; depth
  727 D1:C1D7 DD 3E 03 -  	ld	(ix+3), iy	; adress
  728 D1:C1DA DD 77 06 -  	ld	(ix+6), a	; batch id
  729 D1:C1DD ED 32 07 -  	lea	ix, ix+7
  730 D1:C1E0 -  -  -  -  ; fill depth bucket
  731 D1:C1E0 7D -  -  -  	ld	a, l
  732 D1:C1E1 21 00 32 D0 	ld	hl, VX_DEPTH_BUCKET
  733 D1:C1E5 6F -  -  -  	ld	l, a
  734 D1:C1E6 -  -  -  -  ;	inc	(hl)
  735 D1:C1E6 3E 07 -  -  	ld	a, 7
  736 D1:C1E8 86 -  -  -  	add	a, (hl)
  737 D1:C1E9 77 -  -  -  	ld	(hl), a
  738 D1:C1EA -  -  -  -  ; nz
  739 D1:C1EA 30 02 -  -  	jr	nc, vxHSBDepthSkip
  740 D1:C1EC 24 -  -  -  	inc	h
  741 D1:C1ED 34 -  -  -  	inc	(hl)
  742 D1:C1EE -  -  -  -  vxHSBDepthSkip:
  743 D1:C1EE -  -  -  -  
  744 D1:C1EE FD E1 -  -  	pop	iy
  745 D1:C1F0 ED 33 04 -  	lea	iy, iy+4
  746 D1:C1F3 C1 -  -  -  	pop	bc
  747 D1:C1F4 10 A6 -  -  	djnz	vxCmdDepthCompute
  748 D1:C1F6 0D -  -  -  	dec	c
  749 D1:C1F7 20 A3 -  -  	jr	nz, vxCmdDepthCompute
  750 D1:C1F9 -  -  -  -  ; and now the sorting : apply a radix sort on the data (huge & complicate, constant speed per triangle of about 1300TStates)
  751 D1:C1F9 -  -  -  -  
  752 D1:C1F9 2A 14 00 E3 	ld	hl, (vxDepthSortTemp)
  753 D1:C1FD 22 E9 C2 D1 	ld	(vxCmdReadBuffer0), hl
  754 D1:C201 22 D4 C2 D1 	ld	(vxCmdWriteBuffer0), hl
  755 D1:C205 11 00 70 00 	ld	de, VX_MAX_TRIANGLE*7
  756 D1:C209 19 -  -  -  	add	hl, de
  757 D1:C20A 22 70 C2 D1 	ld	(vxCmdReadBuffer1), hl
  758 D1:C20E 22 5B C2 D1 	ld	(vxCmdWriteBuffer1), hl
  759 D1:C212 -  -  -  -  
  760 D1:C212 -  -  -  -  ; restore index position in array
  761 D1:C212 21 FF 33 D0 	ld	hl, VX_DEPTH_BUCKET+511
  762 D1:C216 56 -  -  -  	ld	d, (hl)
  763 D1:C217 25 -  -  -  	dec	h
  764 D1:C218 5E -  -  -  	ld	e, (hl)
  765 D1:C219 2D -  -  -  	dec	l
  766 D1:C21A -  -  -  -  vxCmdRestoreBucketLoop0:
  767 D1:C21A 4E -  -  -  	ld	c, (hl)
  768 D1:C21B 24 -  -  -  	inc	h
  769 D1:C21C 46 -  -  -  	ld	b, (hl)
  770 D1:C21D EB -  -  -  	ex	de, hl
  771 D1:C21E 09 -  -  -  	add	hl, bc
  772 D1:C21F EB -  -  -  	ex	de, hl
  773 D1:C220 72 -  -  -  	ld	(hl), d
  774 D1:C221 25 -  -  -  	dec	h
  775 D1:C222 73 -  -  -  	ld	(hl), e
  776 D1:C223 2D -  -  -  	dec	l
  777 D1:C224 20 F4 -  -  	jr	nz, vxCmdRestoreBucketLoop0
  778 D1:C226 4E -  -  -  	ld	c, (hl)
  779 D1:C227 24 -  -  -  	inc	h
  780 D1:C228 46 -  -  -  	ld	b, (hl)
  781 D1:C229 EB -  -  -  	ex	de, hl
  782 D1:C22A 09 -  -  -  	add	hl, bc
  783 D1:C22B EB -  -  -  	ex	de, hl
  784 D1:C22C 72 -  -  -  	ld	(hl), d
  785 D1:C22D 25 -  -  -  	dec	h
  786 D1:C22E 73 -  -  -  	ld	(hl), e
  787 D1:C22F -  -  -  -  ; and copy to the correct position
  788 D1:C22F ED 32 F9 -  	lea	ix, ix-7
  789 D1:C232 -  -  -  -  ; reset bcu
  790 D1:C232 52 03 -  -  	inc.sil	bc
  791 D1:C234 42 -  -  -  	ld	b, d
  792 D1:C235 4B -  -  -  	ld	c, e
  793 D1:C236 -  -  -  -  
  794 D1:C236 ED 4B A7 BD 
              D1 -  -  -  	ld	bc, (vxGeometrySize)
  795 D1:C23B -  -  -  -  
  796 D1:C23B 79 -  -  -  	ld	a, c
  797 D1:C23C 0B -  -  -  	dec	bc
  798 D1:C23D 04 -  -  -  	inc	b
  799 D1:C23E 4F -  -  -  	ld	c, a
  800 D1:C23F -  -  -  -  
  801 D1:C23F C5 -  -  -  	push	bc
  802 D1:C240 C5 -  -  -  	push	bc
  803 D1:C241 C5 -  -  -  	push	bc
  804 D1:C242 C5 -  -  -  	push	bc
  805 D1:C243 -  -  -  -  
  806 D1:C243 79 -  -  -  	ld	a, c
  807 D1:C244 -  -  -  -  vxCmdFillBucketOuter0:
  808 D1:C244 C5 -  -  -  	push	bc
  809 D1:C245 06 00 -  -  	ld	b, 0
  810 D1:C247 -  -  -  -  vxCmdFillBucketInner0:
  811 D1:C247 21 07 32 D0 	ld	hl, VX_DEPTH_BUCKET+7
  812 D1:C24B 4D -  -  -  	ld	c, l
  813 D1:C24C DD 6E 00 -  	ld	l, (ix+0)
  814 D1:C24F 5E -  -  -  	ld	e, (hl)
  815 D1:C250 24 -  -  -  	inc	h
  816 D1:C251 56 -  -  -  	ld	d, (hl)
  817 D1:C252 -  -  -  -  ;	dec	de
  818 D1:C252 EB -  -  -  	ex	de, hl
  819 D1:C253 52 ED 42 -  	sbc.s	hl, bc
  820 D1:C256 EB -  -  -  	ex	de, hl
  821 D1:C257 72 -  -  -  	ld	(hl), d
  822 D1:C258 25 -  -  -  	dec	h
  823 D1:C259 73 -  -  -  	ld	(hl), e
  824 D1:C25A -  -  -  -  ; de*7+write_buffer
  825 D1:C25A -  -  -  -  ;	ld	h, c
  826 D1:C25A -  -  -  -  ;	ld	l, d
  827 D1:C25A -  -  -  -  ;	ld	d, c
  828 D1:C25A -  -  -  -  ;	mlt	hl
  829 D1:C25A -  -  -  -  ;	mlt	de
  830 D1:C25A -  -  -  -  ;	ld	h, l
  831 D1:C25A -  -  -  -  ;	ld	l, b
  832 D1:C25A -  -  -  -  ;	add	hl, de
  833 D1:C25A -  -  -  -  vxCmdWriteBuffer1=$+1
  834 D1:C25A 21 00 00 00 	ld	hl, $0
  835 D1:C25E 19 -  -  -  	add	hl, de
  836 D1:C25F EB -  -  -  	ex	de, hl
  837 D1:C260 ED 22 00 -  	lea	hl, ix+0
  838 D1:C263 ED B0 -  -  	ldir
  839 D1:C265 ED 32 F9 -  	lea	ix, ix-7
  840 D1:C268 3D -  -  -  	dec	a
  841 D1:C269 20 DC -  -  	jr	nz, vxCmdFillBucketInner0
  842 D1:C26B C1 -  -  -  	pop	bc
  843 D1:C26C 10 D6 -  -  	djnz	vxCmdFillBucketOuter0
  844 D1:C26E -  -  -  -  
  845 D1:C26E -  -  -  -  vxCmdReadBuffer1=$+2
  846 D1:C26E DD 21 00 00 
              00 -  -  -  	ld	ix, $0
  847 D1:C273 -  -  -  -  
  848 D1:C273 01 FF 01 00 	ld	bc, 511
  849 D1:C277 21 FF 33 D0 	ld	hl, VX_DEPTH_BUCKET+511
  850 D1:C27B 11 FE 33 D0 	ld	de, VX_DEPTH_BUCKET+510
  851 D1:C27F 36 00 -  -  	ld	(hl), $00
  852 D1:C281 ED B8 -  -  	lddr
  853 D1:C283 -  -  -  -  ; restore size
  854 D1:C283 C1 -  -  -  	pop	bc
  855 D1:C284 79 -  -  -  	ld	a, c
  856 D1:C285 48 -  -  -  	ld	c, b
  857 D1:C286 47 -  -  -  	ld	b, a
  858 D1:C287 1E 07 -  -  	ld	e, 7
  859 D1:C289 DD 6E 01 -  	ld	l, (ix+1)
  860 D1:C28C 7B -  -  -  	ld	a, e
  861 D1:C28D 86 -  -  -  	add	a, (hl)
  862 D1:C28E 77 -  -  -  	ld	(hl), a
  863 D1:C28F 30 03 -  -  	jr	nc, $+5
  864 D1:C291 24 -  -  -  	inc	h
  865 D1:C292 34 -  -  -  	inc	(hl)
  866 D1:C293 25 -  -  -  	dec	h
  867 D1:C294 ED 32 07 -  	lea	ix, ix+7
  868 D1:C297 10 F0 -  -  	djnz	$-14
  869 D1:C299 0D -  -  -  	dec	c
  870 D1:C29A 20 ED -  -  	jr	nz, $-17
  871 D1:C29C 2E FF -  -  	ld	l, 255
  872 D1:C29E 5E -  -  -  	ld	e, (hl)
  873 D1:C29F 24 -  -  -  	inc	h
  874 D1:C2A0 56 -  -  -  	ld	d, (hl)
  875 D1:C2A1 25 -  -  -  	dec	h
  876 D1:C2A2 2D -  -  -  	dec	l
  877 D1:C2A3 -  -  -  -  vxCmdRestoreBucket1:
  878 D1:C2A3 4E -  -  -  	ld	c, (hl)
  879 D1:C2A4 24 -  -  -  	inc	h
  880 D1:C2A5 46 -  -  -  	ld	b, (hl)
  881 D1:C2A6 EB -  -  -  	ex	de, hl
  882 D1:C2A7 09 -  -  -  	add	hl, bc
  883 D1:C2A8 EB -  -  -  	ex	de, hl
  884 D1:C2A9 72 -  -  -  	ld	(hl), d
  885 D1:C2AA 25 -  -  -  	dec	h
  886 D1:C2AB 73 -  -  -  	ld	(hl), e
  887 D1:C2AC 2D -  -  -  	dec	l
  888 D1:C2AD 20 F4 -  -  	jr	nz, vxCmdRestoreBucket1
  889 D1:C2AF 4E -  -  -  	ld	c, (hl)
  890 D1:C2B0 24 -  -  -  	inc	h
  891 D1:C2B1 46 -  -  -  	ld	b, (hl)
  892 D1:C2B2 EB -  -  -  	ex	de, hl
  893 D1:C2B3 09 -  -  -  	add	hl, bc
  894 D1:C2B4 EB -  -  -  	ex	de, hl
  895 D1:C2B5 72 -  -  -  	ld	(hl), d
  896 D1:C2B6 25 -  -  -  	dec	h
  897 D1:C2B7 73 -  -  -  	ld	(hl), e
  898 D1:C2B8 ED 32 F9 -  	lea	ix, ix-7
  899 D1:C2BB -  -  -  -  
  900 D1:C2BB C1 -  -  -  	pop	bc
  901 D1:C2BC 79 -  -  -  	ld	a, c
  902 D1:C2BD -  -  -  -  vxCmdFillBucketOuter1:
  903 D1:C2BD C5 -  -  -  	push	bc
  904 D1:C2BE 06 00 -  -  	ld	b, 0
  905 D1:C2C0 -  -  -  -  vxCmdFillBucketInner1:
  906 D1:C2C0 21 07 32 D0 	ld	hl, VX_DEPTH_BUCKET+7
  907 D1:C2C4 4D -  -  -  	ld	c, l
  908 D1:C2C5 DD 6E 01 -  	ld	l, (ix+1)
  909 D1:C2C8 5E -  -  -  	ld	e, (hl)
  910 D1:C2C9 24 -  -  -  	inc	h
  911 D1:C2CA 56 -  -  -  	ld	d, (hl)
  912 D1:C2CB EB -  -  -  	ex	de, hl
  913 D1:C2CC 52 ED 42 -  	sbc.sil	hl, bc
  914 D1:C2CF EB -  -  -  	ex	de, hl
  915 D1:C2D0 72 -  -  -  	ld	(hl), d
  916 D1:C2D1 25 -  -  -  	dec	h
  917 D1:C2D2 73 -  -  -  	ld	(hl), e
  918 D1:C2D3 -  -  -  -  vxCmdWriteBuffer0=$+1
  919 D1:C2D3 21 00 00 00 	ld	hl, $0
  920 D1:C2D7 19 -  -  -  	add	hl, de
  921 D1:C2D8 EB -  -  -  	ex	de, hl
  922 D1:C2D9 ED 22 00 -  	lea	hl, ix+0
  923 D1:C2DC ED B0 -  -  	ldir
  924 D1:C2DE ED 32 F9 -  	lea	ix, ix-7
  925 D1:C2E1 3D -  -  -  	dec	a
  926 D1:C2E2 20 DC -  -  	jr	nz, vxCmdFillBucketInner1
  927 D1:C2E4 C1 -  -  -  	pop	bc
  928 D1:C2E5 10 D6 -  -  	djnz	vxCmdFillBucketOuter1
  929 D1:C2E7 -  -  -  -  
  930 D1:C2E7 -  -  -  -  vxCmdReadBuffer0=$+2
  931 D1:C2E7 DD 21 00 00 
              00 -  -  -  	ld	ix, $0
  932 D1:C2EC -  -  -  -  
  933 D1:C2EC 01 FF 01 00 	ld	bc, 511
  934 D1:C2F0 21 FF 33 D0 	ld	hl, VX_DEPTH_BUCKET+511
  935 D1:C2F4 11 FE 33 D0 	ld	de, VX_DEPTH_BUCKET+510
  936 D1:C2F8 36 00 -  -  	ld	(hl), $00
  937 D1:C2FA ED B8 -  -  	lddr
  938 D1:C2FC -  -  -  -  
  939 D1:C2FC C1 -  -  -  	pop	bc
  940 D1:C2FD 79 -  -  -  	ld	a, c
  941 D1:C2FE 48 -  -  -  	ld	c, b
  942 D1:C2FF 47 -  -  -  	ld	b, a
  943 D1:C300 1E 04 -  -  	ld	e, 4		; size of final batch
  944 D1:C302 DD 6E 02 -  	ld	l, (ix+2)
  945 D1:C305 7B -  -  -  	ld	a, e
  946 D1:C306 86 -  -  -  	add	a, (hl)
  947 D1:C307 77 -  -  -  	ld	(hl), a
  948 D1:C308 30 03 -  -  	jr	nc, $+5
  949 D1:C30A 24 -  -  -  	inc	h
  950 D1:C30B 34 -  -  -  	inc	(hl)
  951 D1:C30C 25 -  -  -  	dec	h
  952 D1:C30D ED 32 07 -  	lea	ix, ix+7
  953 D1:C310 10 F0 -  -  	djnz	$-14
  954 D1:C312 0D -  -  -  	dec	c
  955 D1:C313 20 ED -  -  	jr	nz, $-17
  956 D1:C315 2E FF -  -  	ld	l, 255
  957 D1:C317 5E -  -  -  	ld	e, (hl)
  958 D1:C318 24 -  -  -  	inc	h
  959 D1:C319 56 -  -  -  	ld	d, (hl)
  960 D1:C31A 25 -  -  -  	dec	h
  961 D1:C31B 2D -  -  -  	dec	l
  962 D1:C31C -  -  -  -  vxCmdRestoreBucket2:
  963 D1:C31C 4E -  -  -  	ld	c, (hl)
  964 D1:C31D 24 -  -  -  	inc	h
  965 D1:C31E 46 -  -  -  	ld	b, (hl)
  966 D1:C31F EB -  -  -  	ex	de, hl
  967 D1:C320 09 -  -  -  	add	hl, bc
  968 D1:C321 EB -  -  -  	ex	de, hl
  969 D1:C322 72 -  -  -  	ld	(hl), d
  970 D1:C323 25 -  -  -  	dec	h
  971 D1:C324 73 -  -  -  	ld	(hl), e
  972 D1:C325 2D -  -  -  	dec	l
  973 D1:C326 20 F4 -  -  	jr	nz, vxCmdRestoreBucket2
  974 D1:C328 4E -  -  -  	ld	c, (hl)
  975 D1:C329 24 -  -  -  	inc	h
  976 D1:C32A 46 -  -  -  	ld	b, (hl)
  977 D1:C32B EB -  -  -  	ex	de, hl
  978 D1:C32C 09 -  -  -  	add	hl, bc
  979 D1:C32D EB -  -  -  	ex	de, hl
  980 D1:C32E 72 -  -  -  	ld	(hl), d
  981 D1:C32F 25 -  -  -  	dec	h
  982 D1:C330 73 -  -  -  	ld	(hl), e
  983 D1:C331 ED 32 F9 -  	lea	ix, ix-7
  984 D1:C334 -  -  -  -  
  985 D1:C334 C1 -  -  -  	pop	bc
  986 D1:C335 79 -  -  -  	ld	a, c
  987 D1:C336 2C -  -  -  	inc	l
  988 D1:C337 -  -  -  -  vxCmdFillBucket2:
  989 D1:C337 DD 6E 02 -  	ld	l, (ix+2)
  990 D1:C33A 5E -  -  -  	ld	e, (hl)
  991 D1:C33B 24 -  -  -  	inc	h
  992 D1:C33C 56 -  -  -  	ld	d, (hl)
  993 D1:C33D 52 1B -  -  	dec.sil	de
  994 D1:C33F 1B -  -  -  	dec	de
  995 D1:C340 1B -  -  -  	dec	de
  996 D1:C341 1B -  -  -  	dec	de
  997 D1:C342 72 -  -  -  	ld	(hl), d
  998 D1:C343 25 -  -  -  	dec	h
  999 D1:C344 73 -  -  -  	ld	(hl), e
 1000 D1:C345 FD 21 00 00 
              D1 -  -  -  	ld	iy, VX_GEOMETRY_QUEUE
 1001 D1:C34A FD 19 -  -  	add	iy, de
 1002 D1:C34C -  -  -  -  ; copy only the triangle adress
 1003 D1:C34C DD 17 03 -  	ld	de, (ix+3)
 1004 D1:C34F FD 1F 01 -  	ld	(iy+1), de
 1005 D1:C352 DD 6E 06 -  	ld	l, (ix+6)
 1006 D1:C355 FD 75 00 -  	ld	(iy+0), l
 1007 D1:C358 -  -  -  -  
 1008 D1:C358 ED 32 F9 -  	lea	ix, ix-7
 1009 D1:C35B 3D -  -  -  	dec	a
 1010 D1:C35C 20 D9 -  -  	jr	nz, vxCmdFillBucket2
 1011 D1:C35E 10 D7 -  -  	djnz	vxCmdFillBucket2
 1012 D1:C360 -  -  -  -  
 1013 D1:C360 C9 -  -  -  	ret
 1014 D1:C361 -  -  -  -  
 1015 D1:C361 -  -  -  -  
 1016 D1:C361 -  -  -  -  vxCmdBackfaceCull:
 1017 D1:C361 13 -  -  -  	inc	de
 1018 D1:C362 13 -  -  -  	inc	de
 1019 D1:C363 -  -  -  -  
 1020 D1:C363 FD 27 00 -  	ld	hl, (iy+0)
 1021 D1:C366 19 -  -  -  	add	hl, de
 1022 D1:C367 ED 07 -  -  	ld	bc, (hl)
 1023 D1:C369 2B -  -  -  	dec	hl
 1024 D1:C36A 7E -  -  -  	ld	a, (hl)
 1025 D1:C36B FD 27 06 -  	ld	hl, (iy+6)
 1026 D1:C36E 19 -  -  -  	add	hl, de
 1027 D1:C36F ED 27 -  -  	ld	hl, (hl)
 1028 D1:C371 B7 -  -  -  	or	a, a
 1029 D1:C372 ED 42 -  -  	sbc	hl, bc
 1030 D1:C374 44 -  -  -  	ld	b, h
 1031 D1:C375 4D -  -  -  	ld	c, l
 1032 D1:C376 FD 27 03 -  	ld	hl, (iy+3)
 1033 D1:C379 19 -  -  -  	add	hl, de
 1034 D1:C37A 2B -  -  -  	dec	hl
 1035 D1:C37B 96 -  -  -  	sub	(hl)
 1036 D1:C37C -  -  -  -  
 1037 D1:C37C 60 -  -  -  	ld	h, b
 1038 D1:C37D 6F -  -  -  	ld	l, a
 1039 D1:C37E ED 6C -  -  	mlt	hl
 1040 D1:C380 -  -  -  -  ;;	jr	z, RR
 1041 D1:C380 30 03 -  -  	jr	nc, $+5
 1042 D1:C382 B7 -  -  -  	or	a, a
 1043 D1:C383 ED 42 -  -  	sbc	hl, bc
 1044 D1:C385 CB 78 -  -  	bit	7, b
 1045 D1:C387 47 -  -  -  	ld	b, a
 1046 D1:C388 28 03 -  -  	jr	z, $+5
 1047 D1:C38A 7C -  -  -  	ld	a, h
 1048 D1:C38B 90 -  -  -  	sub	a, b
 1049 D1:C38C 67 -  -  -  	ld	h, a
 1050 D1:C38D 29 29 29 29 
              29 29 29 29 	slhl
Listing for file "C:\Users\Zeromus\Documents\GitHub\Virtual3D\vx3D.inc"
Listing for file "C:\Users\Zeromus\Documents\GitHub\Virtual3D\vxPipeline.ez80"
 1051 D1:C395 ED 4C -  -  	mlt	bc
 1052 D1:C397 09 -  -  -  	add	hl, bc
 1053 D1:C398 -  -  -  -  RR:
 1054 D1:C398 E5 -  -  -  	push	hl
 1055 D1:C399 -  -  -  -  
 1056 D1:C399 FD 27 00 -  	ld	hl, (iy+0)
 1057 D1:C39C 19 -  -  -  	add	hl, de
 1058 D1:C39D ED 07 -  -  	ld	bc, (hl)
 1059 D1:C39F 2B -  -  -  	dec	hl
 1060 D1:C3A0 7E -  -  -  	ld	a, (hl)
 1061 D1:C3A1 FD 27 03 -  	ld	hl, (iy+3)
 1062 D1:C3A4 19 -  -  -  	add	hl, de
 1063 D1:C3A5 ED 27 -  -  	ld	hl, (hl)
 1064 D1:C3A7 B7 -  -  -  	or	a, a
 1065 D1:C3A8 ED 42 -  -  	sbc	hl, bc
 1066 D1:C3AA 44 -  -  -  	ld	b, h
 1067 D1:C3AB 4D -  -  -  	ld	c, l
 1068 D1:C3AC -  -  -  -  
 1069 D1:C3AC 1B -  -  -  	dec	de
 1070 D1:C3AD FD 27 06 -  	ld	hl, (iy+6)
 1071 D1:C3B0 19 -  -  -  	add	hl, de
 1072 D1:C3B1 96 -  -  -  	sub	(hl)
 1073 D1:C3B2 -  -  -  -  
 1074 D1:C3B2 60 -  -  -  	ld	h, b
 1075 D1:C3B3 6F -  -  -  	ld	l, a
 1076 D1:C3B4 ED 6C -  -  	mlt	hl
 1077 D1:C3B6 -  -  -  -  ;;	jr	z, RR2
 1078 D1:C3B6 30 03 -  -  	jr	nc, $+5
 1079 D1:C3B8 B7 -  -  -  	or	a, a
 1080 D1:C3B9 ED 42 -  -  	sbc	hl, bc
 1081 D1:C3BB CB 78 -  -  	bit	7, b
 1082 D1:C3BD 47 -  -  -  	ld	b, a
 1083 D1:C3BE 28 03 -  -  	jr	z, $+5
 1084 D1:C3C0 7C -  -  -  	ld	a, h
 1085 D1:C3C1 90 -  -  -  	sub	a, b
 1086 D1:C3C2 67 -  -  -  	ld	h, a
 1087 D1:C3C3 29 29 29 29 
              29 29 29 29 	slhl
Listing for file "C:\Users\Zeromus\Documents\GitHub\Virtual3D\vx3D.inc"
Listing for file "C:\Users\Zeromus\Documents\GitHub\Virtual3D\vxPipeline.ez80"
 1088 D1:C3CB ED 4C -  -  	mlt	bc
 1089 D1:C3CD 09 -  -  -  	add	hl, bc
 1090 D1:C3CE -  -  -  -  RR2:
 1091 D1:C3CE C1 -  -  -  	pop	bc
 1092 D1:C3CF -  -  -  -  
 1093 D1:C3CF 37 -  -  -  	scf
 1094 D1:C3D0 ED 42 -  -  	sbc	hl, bc
 1095 D1:C3D2 -  -  -  -  
 1096 D1:C3D2 1B -  -  -  	dec	de
 1097 D1:C3D3 C9 -  -  -  	ret
 1098 D1:C3D4 -  -  -  -  
 1099 D1:C3D4 -  -  -  -  
 1100 D1:C3D4 -  -  -  -  
 1101 D1:C3D4 -  -  -  -  vxCmdBackfaceCull2:
 1102 D1:C3D4 -  -  -  -  ; (x2-x0)*(y1-y0) - (x1-x0)*(y2-y0)
 1103 D1:C3D4 D5 -  -  -  	push	de
 1104 D1:C3D5 13 -  -  -  	inc	de
 1105 D1:C3D6 -  -  -  -  
 1106 D1:C3D6 FD 27 03 -  	ld	hl, (iy+3)
 1107 D1:C3D9 19 -  -  -  	add	hl, de
 1108 D1:C3DA 7E -  -  -  	ld	a, (hl)
 1109 D1:C3DB FD 27 00 -  	ld	hl, (iy+0)
 1110 D1:C3DE 19 -  -  -  	add	hl, de
 1111 D1:C3DF 96 -  -  -  	sub	(hl)
 1112 D1:C3E0 F5 -  -  -  	push	af
 1113 D1:C3E1 23 -  -  -  	inc	hl
 1114 D1:C3E2 ED 07 -  -  	ld	bc, (hl)
 1115 D1:C3E4 FD 27 06 -  	ld	hl, (iy+6)
 1116 D1:C3E7 19 -  -  -  	add	hl, de
 1117 D1:C3E8 23 -  -  -  	inc	hl
 1118 D1:C3E9 ED 27 -  -  	ld	hl, (hl)
 1119 D1:C3EB B7 -  -  -  	or	a, a
 1120 D1:C3EC ED 42 -  -  	sbc	hl, bc
 1121 D1:C3EE 44 -  -  -  	ld	b, h
 1122 D1:C3EF 4D -  -  -  	ld	c, l
 1123 D1:C3F0 F1 -  -  -  	pop	af
 1124 D1:C3F1 60 -  -  -  	ld	h, b
 1125 D1:C3F2 6F -  -  -  	ld	l, a
 1126 D1:C3F3 ED 6C -  -  	mlt	hl
 1127 D1:C3F5 30 03 -  -  	jr	nc, $+5
 1128 D1:C3F7 B7 -  -  -  	or	a, a
 1129 D1:C3F8 ED 42 -  -  	sbc	hl, bc
 1130 D1:C3FA CB 78 -  -  	bit	7, b
 1131 D1:C3FC 47 -  -  -  	ld	b, a
 1132 D1:C3FD 28 03 -  -  	jr	z, $+5
 1133 D1:C3FF 7C -  -  -  	ld	a, h
 1134 D1:C400 90 -  -  -  	sub	a, b
 1135 D1:C401 67 -  -  -  	ld	h, a
 1136 D1:C402 29 29 29 29 
              29 29 29 29 	slhl
Listing for file "C:\Users\Zeromus\Documents\GitHub\Virtual3D\vx3D.inc"
Listing for file "C:\Users\Zeromus\Documents\GitHub\Virtual3D\vxPipeline.ez80"
 1137 D1:C40A ED 4C -  -  	mlt	bc
 1138 D1:C40C 09 -  -  -  	add	hl, bc
 1139 D1:C40D -  -  -  -  
 1140 D1:C40D E5 -  -  -  	push	hl
 1141 D1:C40E -  -  -  -  
 1142 D1:C40E FD 27 06 -  	ld	hl, (iy+6)
 1143 D1:C411 19 -  -  -  	add	hl, de
 1144 D1:C412 7E -  -  -  	ld	a, (hl)
 1145 D1:C413 FD 27 00 -  	ld	hl, (iy+0)
 1146 D1:C416 19 -  -  -  	add	hl, de
 1147 D1:C417 96 -  -  -  	sub	(hl)
 1148 D1:C418 F5 -  -  -  	push	af
 1149 D1:C419 23 -  -  -  	inc	hl
 1150 D1:C41A ED 07 -  -  	ld	bc, (hl)
 1151 D1:C41C FD 27 03 -  	ld	hl, (iy+3)
 1152 D1:C41F 19 -  -  -  	add	hl, de
 1153 D1:C420 23 -  -  -  	inc	hl
 1154 D1:C421 ED 27 -  -  	ld	hl, (hl)
 1155 D1:C423 B7 -  -  -  	or	a, a
 1156 D1:C424 ED 42 -  -  	sbc	hl, bc
 1157 D1:C426 44 -  -  -  	ld	b, h
 1158 D1:C427 4D -  -  -  	ld	c, l
 1159 D1:C428 F1 -  -  -  	pop	af
 1160 D1:C429 60 -  -  -  	ld	h, b
 1161 D1:C42A 6F -  -  -  	ld	l, a
 1162 D1:C42B ED 6C -  -  	mlt	hl
 1163 D1:C42D 30 03 -  -  	jr	nc, $+5
 1164 D1:C42F B7 -  -  -  	or	a, a
 1165 D1:C430 ED 42 -  -  	sbc	hl, bc
 1166 D1:C432 CB 78 -  -  	bit	7, b
 1167 D1:C434 47 -  -  -  	ld	b, a
 1168 D1:C435 28 03 -  -  	jr	z, $+5
 1169 D1:C437 7C -  -  -  	ld	a, h
 1170 D1:C438 90 -  -  -  	sub	a, b
 1171 D1:C439 67 -  -  -  	ld	h, a
 1172 D1:C43A 29 29 29 29 
              29 29 29 29 	slhl
Listing for file "C:\Users\Zeromus\Documents\GitHub\Virtual3D\vx3D.inc"
Listing for file "C:\Users\Zeromus\Documents\GitHub\Virtual3D\vxPipeline.ez80"
 1173 D1:C442 ED 4C -  -  	mlt	bc
 1174 D1:C444 09 -  -  -  	add	hl, bc
 1175 D1:C445 -  -  -  -  
 1176 D1:C445 D1 -  -  -  	pop	de
 1177 D1:C446 B7 -  -  -  	or	a, a
 1178 D1:C447 ED 52 -  -  	sbc	hl, de
 1179 D1:C449 D1 -  -  -  	pop	de
 1180 D1:C44A C9 -  -  -  	ret
 1181 D1:C44B -  -  -  -  
 1182 D1:C44B -  -  -  -  #comment
 1183 D1:C44B             Monitor_Size_Start:
 1184 D1:C44B             
 1185 D1:C44B             vxVertexShader:
 1186 D1:C44B             #define	CC 0
 1187 D1:C44B             #define	SY 1
 1188 D1:C44B             #define	SX 2
 1189 D1:C44B             #define	VX 7
 1190 D1:C44B             #define	VY 10
 1191 D1:C44B             #define	VZ 13
 1192 D1:C44B             #define	VX_GLOBAL_VCACHE_SIZE 16
 1193 D1:C44B             #define	VX_GLOBAL_VERTEX_SIZE 6
 1194 D1:C44B             ; ix = global data register [LV[0-2],LA,LE, MC[0-8],MTX,MTY,MTZ]
 1195 D1:C44B             ; iy = vertex data register [VX,VY,VZ,VN[0-2]]
 1196 D1:C44B             ; de = output data register [RC,SY,SX,RI[0-1],RX,RY,RZ]
 1197 D1:C44B             ; bc = x vertex coordinate [16bits]
 1198 D1:C44B             ; OUT register
 1199 D1:C44B             ; de = de + VX_GLOBAL_VCACHE_SIZE
 1200 D1:C44B             ; iy = iy + VX_GLOBAL_VERTEX_SIZE
 1201 D1:C44B             ; data copied to memory
 1202 D1:C44B             	pea	iy+VX_GLOBAL_VERTEX_SIZE
 1203 D1:C44B             	push	de
 1204 D1:C44B             ; X coordinate
 1205 D1:C44B             ;	ld	bc, (iy+0)
 1206 D1:C44B             	ld	hl, (ix+9)
 1207 D1:C44B             	ld	a, (ix+0)
 1208 D1:C44B             	madd
 1209 D1:C44B             	ld	a, (ix+1)
 1210 D1:C44B             	or	a, a
 1211 D1:C44B             	jr	z, vxVertexSkip0
 1212 D1:C44B             	ld	bc, (iy+2)
 1213 D1:C44B             	madd
 1214 D1:C44B             vxVertexSkip0:
 1215 D1:C44B             	ld	a, (ix+2)
 1216 D1:C44B             	ld	bc, (iy+4)
 1217 D1:C44B             	madd.f
 1218 D1:C44B             	push	hl
 1219 D1:C44B             ; Z coordinate
 1220 D1:C44B             	ld	hl, (ix+15)
 1221 D1:C44B             	ld	a, (ix+8)
 1222 D1:C44B             	madd
 1223 D1:C44B             	ld	a, (ix+7)
 1224 D1:C44B             	ld	bc, (iy+2)
 1225 D1:C44B             	madd
 1226 D1:C44B             	ld	a, (ix+6)
 1227 D1:C44B             	ld	bc, (iy+0)
 1228 D1:C44B             	madd.f
 1229 D1:C44B             	push	hl
 1230 D1:C44B             ; Y coordinate
 1231 D1:C44B             	ld	hl, (ix+12)
 1232 D1:C44B             	ld	a, (ix+3)
 1233 D1:C44B             	madd
 1234 D1:C44B             	ld	a, (ix+4)
 1235 D1:C44B             	ld	bc, (iy+2)
 1236 D1:C44B             	madd
 1237 D1:C44B             	ld	a, (ix+5)
 1238 D1:C44B             	ld	bc, (iy+4)
 1239 D1:C44B             	madd
 1240 D1:C44B             	pop	bc
 1241 D1:C44B             	pop	de
 1242 D1:C44B             	pop	iy
 1243 D1:C44B             
 1244 D1:C44B             	ld	(iy+VX), de
 1245 D1:C44B             	ld	(iy+VY), hl
 1246 D1:C44B             	ld	(iy+VZ), bc
 1247 D1:C44B             ; 1740
 1248 D1:C44B             	call	vxPerspectiveDivide
 1249 D1:C44B             	ld	(iy+CC), a
 1250 D1:C44B             	ld	(iy+SY), b
 1251 D1:C44B             	ld	(iy+SX), hl
 1252 D1:C44B             
 1253 D1:C44B             ;	call	vxDotProduct
 1254 D1:C44B             ;	jp	p, $+4+3
 1255 D1:C44B             ;	or	a, a
 1256 D1:C44B             ;	sbc	hl, hl
 1257 D1:C44B             ;	ld	a, (ix+VX_LIGHT0_AMBIANT)
 1258 D1:C44B             ;	add	a, l
 1259 D1:C44B             ;	cp	32
 1260 D1:C44B             ;	jr	nc, $+4
 1261 D1:C44B             ;	ld	a, 32
 1262 D1:C44B             ;	ld	(iy+VX_VERTEX_I0), a
 1263 D1:C44B             
 1264 D1:C44B             
 1265 D1:C44B             	lea	de, iy+VX_GLOBAL_VCACHE_SIZE
 1266 D1:C44B             	pop	iy
 1267 D1:C44B             	ret
 1268 D1:C44B             
 1269 D1:C44B             
 1270 D1:C44B             vxProjectClipY:
 1271 D1:C44B                rrca
 1272 D1:C44B                ccf
 1273 D1:C44B                rra
 1274 D1:C44B             ; a = y plane code
 1275 D1:C44B             ; continue on x code
 1276 D1:C44B                ld hl, (iy+7)
 1277 D1:C44B                bit 7,(iy+2+7)
 1278 D1:C44B                jr z, vxProjectClipXAbs
 1279 D1:C44B                ex de, hl
 1280 D1:C44B                sbc   hl, hl
 1281 D1:C44B                sbc   hl, de
 1282 D1:C44B             vxProjectClipXAbs:
 1283 D1:C44B                rra
 1284 D1:C44B                sbc   hl, bc
 1285 D1:C44B                jr   c, vxProjectClipXIn
 1286 D1:C44B                rlca
 1287 D1:C44B                rrca
 1288 D1:C44B                ccf
 1289 D1:C44B                rra
 1290 D1:C44B               bit 7,(iy+8+7)
 1291 D1:C44B               ret z
 1292 D1:C44B                or  %00001000
 1293 D1:C44B                ret
 1294 D1:C44B             vxProjectClipXIn:
 1295 D1:C44B                rra
 1296 D1:C44B                and   %00110000
 1297 D1:C44B               bit 7,(iy+8+7)
 1298 D1:C44B               ret z
 1299 D1:C44B                or  %00001000
 1300 D1:C44B                ret
 1301 D1:C44B             ; plane x right : plane x left : plane y up : plane y down : 0 : 0 : 0 : 0
 1302 D1:C44B             vxProject:
 1303 D1:C44B                ld   hl, (iy+10)
 1304 D1:C44B                ld   bc, (iy+13)
 1305 D1:C44B             vxPerspectiveDivide:
 1306 D1:C44B                xor a, a
 1307 D1:C44B                bit 7,(iy+5+7)
 1308 D1:C44B                jr   z, vxProjectYAbs
 1309 D1:C44B                ex   de, hl
 1310 D1:C44B                sbc   hl, hl
 1311 D1:C44B                sbc   hl, de
 1312 D1:C44B             vxProjectYAbs:
 1313 D1:C44B                rla
 1314 D1:C44B                sbc   hl, bc
 1315 D1:C44B                jr nc, vxProjectClipY
 1316 D1:C44B             
 1317 D1:C44B                add   hl, bc
 1318 D1:C44B                add hl,hl \ sbc hl,bc \ jr nc,$+3 \ add hl,bc \ adc a,a
 1319 D1:C44B                add hl,hl \ sbc hl,bc \ jr nc,$+3 \ add hl,bc \ adc a,a
 1320 D1:C44B                add hl,hl \ sbc hl,bc \ jr nc,$+3 \ add hl,bc \ adc a,a
 1321 D1:C44B                add hl,hl \ sbc hl,bc \ jr nc,$+3 \ add hl,bc \ adc a,a
 1322 D1:C44B                add hl,hl \ sbc hl,bc \ jr nc,$+3 \ add hl,bc \ adc a,a
 1323 D1:C44B                add hl,hl \ sbc hl,bc \ jr nc,$+3 \ add hl,bc \ adc a,a
 1324 D1:C44B                add hl,hl \ sbc hl,bc \ adc a,a
 1325 D1:C44B                cpl
 1326 D1:C44B                add   a, a
 1327 D1:C44B                ld   l, VX_SCREEN_HEIGHT/2+1 ;precision stuffs
 1328 D1:C44B                ld   h, a
 1329 D1:C44B                mlt   hl
 1330 D1:C44B                ld   a, h
 1331 D1:C44B             
 1332 D1:C44B                jr   nc, vxProjectYCorrect
 1333 D1:C44B                neg
 1334 D1:C44B             vxProjectYCorrect:
 1335 D1:C44B                add   a, VX_SCREEN_HCENTER
 1336 D1:C44B                push  af
 1337 D1:C44B             ; project x coordinate
 1338 D1:C44B                ld   hl, (iy+7)
 1339 D1:C44B                xor   a, a
 1340 D1:C44B                bit   7, (iy+2+7)
 1341 D1:C44B                jr   z, vxProjectXAbs
 1342 D1:C44B                ex   de, hl
 1343 D1:C44B                sbc   hl, hl
 1344 D1:C44B                sbc   hl, de
 1345 D1:C44B             vxProjectXAbs:
 1346 D1:C44B                rla
 1347 D1:C44B               sbc   hl, bc
 1348 D1:C44B                jr nc, vxProjectClipX
 1349 D1:C44B                add   hl, bc
 1350 D1:C44B             
 1351 D1:C44B                add hl,hl \ sbc hl,bc \ jr nc,$+3 \ add hl,bc \ adc a,a
 1352 D1:C44B                add hl,hl \ sbc hl,bc \ jr nc,$+3 \ add hl,bc \ adc a,a
 1353 D1:C44B                add hl,hl \ sbc hl,bc \ jr nc,$+3 \ add hl,bc \ adc a,a
 1354 D1:C44B                add hl,hl \ sbc hl,bc \ jr nc,$+3 \ add hl,bc \ adc a,a
 1355 D1:C44B                add hl,hl \ sbc hl,bc \ jr nc,$+3 \ add hl,bc \ adc a,a
 1356 D1:C44B                add hl,hl \ sbc hl,bc \ jr nc,$+3 \ add hl,bc \ adc a,a
 1357 D1:C44B                add hl,hl \ sbc hl,bc \ jr nc,$+3 \ add hl,bc \ adc a,a
 1358 D1:C44B                add hl,hl \ sbc hl,bc \ adc a,a
 1359 D1:C44B                cpl
 1360 D1:C44B                ld   c, a
 1361 D1:C44B                ld   b, VX_SCREEN_WIDTH/2+1
 1362 D1:C44B                mlt   bc
 1363 D1:C44B                ld    a, b
 1364 D1:C44B                sbc   hl, hl
 1365 D1:C44B                jr   nc, $+3
 1366 D1:C44B                cpl
 1367 D1:C44B                ld   l, a
 1368 D1:C44B                ld   bc, VX_SCREEN_WCENTER
 1369 D1:C44B                adc   hl, bc
 1370 D1:C44B                pop   bc ; grab y in b
 1371 D1:C44B                xor   a,a
 1372 D1:C44B                ret
 1373 D1:C44B             vxProjectClipX:
 1374 D1:C44B                pop   bc
 1375 D1:C44B                rrca
 1376 D1:C44B                ccf
 1377 D1:C44B                rra
 1378 D1:C44B               bit 7,(iy+8+7)
 1379 D1:C44B               ret z
 1380 D1:C44B                or  %00001000
 1381 D1:C44B                ret
 1382 D1:C44B             Monitor_Size_End:
 1383 D1:C44B             	.echo	Monitor_Size_End-Monitor_Size_Start
 1384 D1:C44B             #endcomment
Listing for file "C:\Users\Zeromus\Documents\GitHub\Virtual3D\vxMain.ez80"
    9 D1:C44B -  -  -  -  #include	"vxMemory.ez80"
Listing for file "C:\Users\Zeromus\Documents\GitHub\Virtual3D\vxMemory.ez80"
    1 D1:C44B -  -  -  -  #define	VX_RLE_COMPRESSED	%01000000
    2 D1:C44B -  -  -  -  #define	VX_ERROR_NOT_FOUND	$FF
    3 D1:C44B -  -  -  -  #define	VX_ERROR_RAM_FULL	$FE
    4 D1:C44B -  -  -  -  
    5 D1:C44B -  -  -  -  vxFindFile:
    6 D1:C44B -  -  -  -  ; load a file from an appv
    7 D1:C44B -  -  -  -  ; hl : file name
    8 D1:C44B -  -  -  -  ; hl = file adress
    9 D1:C44B -  -  -  -  ; if error : c set, a = error code
   10 D1:C44B CD 20 03 02 	call	_mov9toOP1
   11 D1:C44F CD 0C 05 02 	call	_ChkFindSym
   12 D1:C453 D8 -  -  -  	ret	c
   13 D1:C454 CD 98 1F 02 	call	_ChkInRam
   14 D1:C458 EB -  -  -  	ex de,hl
   15 D1:C459 28 08 -  -  	jr	z, vxFileUnarchived
   16 D1:C45B -  -  -  -  ; 9 bytes - name size (1b), name string, appv size (2b)
   17 D1:C45B 11 09 00 00 	ld	de, 9
   18 D1:C45F 19 -  -  -  	add	hl, de
   19 D1:C460 5E -  -  -  	ld	e, (hl)
   20 D1:C461 19 -  -  -  	add	hl, de
   21 D1:C462 23 -  -  -  	inc	hl
   22 D1:C463 -  -  -  -  vxFileUnarchived:
   23 D1:C463 23 -  -  -  	inc	hl
   24 D1:C464 23 -  -  -  	inc	hl
   25 D1:C465 C9 -  -  -  	ret
   26 D1:C466 -  -  -  -  #comment
   27 D1:C466             vxAllocateMemory:
   28 D1:C466             ; error = c
   29 D1:C466             	push	bc
   30 D1:C466             	ld	ix, vxTempMemoryBlock
   31 D1:C466             	ld	hl, (ix+3)
   32 D1:C466             	inc	hl
   33 D1:C466             	ld	(ix+3), hl
   34 D1:C466             	lea	hl, ix-1
   35 D1:C466             	call  _mov9toOP1
   36 D1:C466             	pop	hl
   37 D1:C466             	ld	a, 16h
   38 D1:C466             	call	_CreateVar
   39 D1:C466             	inc	de
   40 D1:C466             	inc	de
   41 D1:C466             	ex	de, hl
   42 D1:C466             	ret
   43 D1:C466             vxTempMemoryBlock:
   44 D1:C466             .db	"VMB000",0
   45 D1:C466             vxCopyImage:
   46 D1:C466             ; hl = src ; de = dest
   47 D1:C466             	ld	a, (hl)
   48 D1:C466             ; a = src format
   49 D1:C466             	inc	hl
   50 D1:C466             	ld	bc, (hl)
   51 D1:C466             	dec	hl
   52 D1:C466             ;	mlt	bc
   53 D1:C466             	ld	bc, 240*320
   54 D1:C466             	push	bc
   55 D1:C466             	ld	bc, 3
   56 D1:C466             	ldir
   57 D1:C466             	pop	bc
   58 D1:C466             #endcomment
   59 D1:C466 -  -  -  -  
   60 D1:C466 -  -  -  -  vxCopyImage:
   61 D1:C466 -  -  -  -  ; hl : src
   62 D1:C466 -  -  -  -  ; de : dest
   63 D1:C466 -  -  -  -  ; copy an framebuffer type image, compressed or not
   64 D1:C466 -  -  -  -  ; 1 byte - type, 3 bytes - size
   65 D1:C466 ED 07 -  -  	ld	bc, (hl)
   66 D1:C468 23 23 23 -  	inc	hl \ inc hl \ inc hl
   67 D1:C46B 7E -  -  -  	ld	a, (hl)
   68 D1:C46C 23 -  -  -  	inc	hl
   69 D1:C46D ED 64 40 -  	tst	a, VX_RLE_COMPRESSED
   70 D1:C470 20 03 -  -  	jr	nz, vxUncompressRLE
   71 D1:C472 -  -  -  -  vxCopyData:
   72 D1:C472 ED B0 -  -  	ldir
   73 D1:C474 C9 -  -  -  	ret
   74 D1:C475 -  -  -  -  vxUncompressRLE:
   75 D1:C475 D5 -  -  -  	push	de
   76 D1:C476 EB -  -  -  	ex	de, hl
   77 D1:C477 09 -  -  -  	add	hl, bc
   78 D1:C478 22 7F C4 D1 	ld	(VX_MAX_RLE), hl
   79 D1:C47C EB -  -  -  	ex	de, hl
   80 D1:C47D D1 -  -  -  	pop	de
   81 D1:C47E -  -  -  -  vxRLELoop:
   82 D1:C47E -  -  -  -  VX_MAX_RLE=$+1
   83 D1:C47E 01 00 00 00 	ld	bc, $0
   84 D1:C482 EB -  -  -  	ex	de, hl
   85 D1:C483 B7 -  -  -  	or	a, a
   86 D1:C484 ED 42 -  -  	sbc	hl, bc
   87 D1:C486 D0 -  -  -  	ret	nc
   88 D1:C487 09 -  -  -  	add	hl, bc
   89 D1:C488 EB -  -  -  	ex	de, hl
   90 D1:C489 01 00 00 00 	ld	bc, 0
   91 D1:C48D 7E -  -  -  	ld	a, (hl)
   92 D1:C48E E6 7F -  -  	and	$7F
   93 D1:C490 3C -  -  -  	inc	a
   94 D1:C491 4F -  -  -  	ld	c, a
   95 D1:C492 7E -  -  -  	ld	a, (hl)
   96 D1:C493 E6 80 -  -  	and	$80
   97 D1:C495 28 14 -  -  	jr	z, vxRLECopyRow
   98 D1:C497 -  -  -  -  vxRLECopyToken:
   99 D1:C497 23 -  -  -  	inc	hl
  100 D1:C498 E5 -  -  -  	push	hl
  101 D1:C499 ED A0 -  -  	ldi
  102 D1:C49B E2 A5 C4 D1 	jp	po, 	vxRLECopyEnd
  103 D1:C49F 37 -  -  -  	scf
  104 D1:C4A0 ED 62 -  -  	sbc	hl, hl
  105 D1:C4A2 19 -  -  -  	add	hl, de
  106 D1:C4A3 ED B0 -  -  	ldir
  107 D1:C4A5 -  -  -  -  vxRLECopyEnd:
  108 D1:C4A5 E1 -  -  -  	pop	hl
  109 D1:C4A6 23 -  -  -  	inc	hl
  110 D1:C4A7 C3 7E C4 D1 	jp	vxRLELoop
  111 D1:C4AB -  -  -  -  vxRLECopyRow:
  112 D1:C4AB 23 -  -  -  	inc	hl
  113 D1:C4AC ED B0 -  -  	ldir
  114 D1:C4AE C3 7E C4 D1 	jp	vxRLELoop
  115 D1:C4B2 -  -  -  -  
  116 D1:C4B2 -  -  -  -  vxCreateMemoryPool:
  117 D1:C4B2 F3 -  -  -  	di
  118 D1:C4B3 3E D1 -  -  	ld	a, $D1
  119 D1:C4B5 -  -  -  -  	;ld	mb,a
  120 D1:C4B5 ED 6D -  -  	.db	$ED,$6D	; assembler bug
  121 D1:C4B7 40 31 7E 98 	ld.sis	sp,$987E
  122 D1:C4BB 49 CD 36 C5 	call.is	vxUnlockWrite - $D10000
  123 D1:C4BF 3E D0 -  -  	ld	a,$D0
  124 D1:C4C1 -  -  -  -  	;ld	mb,a
  125 D1:C4C1 ED 6D -  -  	.db	$ED,$6D
  126 D1:C4C3 -  -  -  -  
  127 D1:C4C3 3E 3F -  -  	ld	a, $3F
  128 D1:C4C5 CD 02 C5 D1 	call	vxMemorySafeErase
  129 D1:C4C9 3E 3E -  -  	ld	a, $3E
  130 D1:C4CB CD 02 C5 D1 	call	vxMemorySafeErase
  131 D1:C4CF 3E 3D -  -  	ld	a, $3D
  132 D1:C4D1 CD 02 C5 D1 	call	vxMemorySafeErase
  133 D1:C4D5 3E 3C -  -  	ld	a, $3C
  134 D1:C4D7 CD 02 C5 D1 	call	vxMemorySafeErase
  135 D1:C4DB -  -  -  -  
  136 D1:C4DB 21 01 00 D0 	ld	hl, $D00001
  137 D1:C4DF 36 A5 -  -  	ld	(hl), $A5
  138 D1:C4E1 2B -  -  -  	dec	hl
  139 D1:C4E2 36 5A -  -  	ld	(hl), $5A
  140 D1:C4E4 11 00 00 3C 	ld	de, $3C0000
  141 D1:C4E8 01 00 00 04 	ld	bc, $40000
  142 D1:C4EC -  -  -  -  
  143 D1:C4EC CD E0 02 00 	call	__WriteFlash
  144 D1:C4F0 -  -  -  -  
  145 D1:C4F0 F3 -  -  -  	di
  146 D1:C4F1 40 31 7E 98 	ld.sis	sp,$987E
  147 D1:C4F5 3E D1 -  -  	ld	a, $D1
  148 D1:C4F7 -  -  -  -  	;ld	mb,a
  149 D1:C4F7 ED 6D -  -  	.db	$ED,$6D	; assembler bug
  150 D1:C4F9 49 CD 49 C5 	call.is	vxLockWrite - $D10000
  151 D1:C4FD 3E D0 -  -  	ld	a,$D0
  152 D1:C4FF -  -  -  -  	;ld	mb,a
  153 D1:C4FF ED 6D -  -  	.db	$ED,$6D
  154 D1:C501 -  -  -  -  ; all RAM is free now
  155 D1:C501 -  -  -  -  
  156 D1:C501 C9 -  -  -  	ret
  157 D1:C502 -  -  -  -  
  158 D1:C502 -  -  -  -  vxMemorySafeErase:
  159 D1:C502 01 F8 00 00 	ld	bc,$0000F8
  160 D1:C506 C5 -  -  -  	push	bc
  161 D1:C507 C3 DC 02 00 	jp	__EraseFlashPage
  162 D1:C50B -  -  -  -  vxDestroyMemoryPool:
  163 D1:C50B -  -  -  -  
  164 D1:C50B -  -  -  -  ; restore RAM state
  165 D1:C50B 21 00 00 3C 	ld	hl, $3C0000
  166 D1:C50F 11 00 00 D0 	ld	de, $D00000
  167 D1:C513 01 00 00 01 	ld	bc, $010000
  168 D1:C517 ED B0 -  -  	ldir
  169 D1:C519 -  -  -  -  
  170 D1:C519 -  -  -  -  ;	ld	hl, $3D0000
  171 D1:C519 -  -  -  -  ;	ld	de, $D10000
  172 D1:C519 -  -  -  -  ;	ld	bc, $010000
  173 D1:C519 -  -  -  -  ;	ldir
  174 D1:C519 -  -  -  -  
  175 D1:C519 21 00 00 3E 	ld	hl, $3E0000
  176 D1:C51D 11 00 00 D2 	ld	de, $D20000
  177 D1:C521 01 00 00 01 	ld	bc, $010000
  178 D1:C525 ED B0 -  -  	ldir
  179 D1:C527 -  -  -  -  
  180 D1:C527 21 00 00 3F 	ld	hl, $3F0000
  181 D1:C52B 11 00 00 D3 	ld	de, $D30000
  182 D1:C52F 01 00 00 01 	ld	bc, $010000
  183 D1:C533 ED B0 -  -  	ldir
  184 D1:C535 -  -  -  -  
  185 D1:C535 C9 -  -  -  	ret
  186 D1:C536 -  -  -  -  .assume ADL=0
  187 D1:C536 -  -  -  -  vxUnlockWrite:
  188 D1:C536 -  -  -  -  
  189 D1:C536 3E 8C -  -  	ld	a, $8C
  190 D1:C538 ED 39 24 -  	out0	($24), a
  191 D1:C53B 0E 04 -  -  	ld	c, 4
  192 D1:C53D ED 38 06 -  	in0	a, (6)
  193 D1:C540 B1 -  -  -  	or	c
  194 D1:C541 ED 39 06 -  	out0	(6), a
  195 D1:C544 ED 09 28 -  	out0($28), c
  196 D1:C547 -  -  -  -  
  197 D1:C547 49 C9 -  -  	ret.l
  198 D1:C549 -  -  -  -  
  199 D1:C549 -  -  -  -  vxLockWrite:
  200 D1:C549 AF -  -  -  	xor	a, a
  201 D1:C54A ED 39 28 -  	out0	($28), a
  202 D1:C54D ED 38 06 -  	in0	a, (6)
  203 D1:C550 CB 97 -  -  	res	2, a
  204 D1:C552 ED 39 06 -  	out0	(6), a
  205 D1:C555 3E 88 -  -  	ld	a, $88
  206 D1:C557 ED 39 24 -  	out0	($24), a
  207 D1:C55A 49 C9 -  -  	ret.l
  208 D1:C55C -  -  -  -  .assume ADL=1
  209 D1:C55C -  -  -  -  
  210 D1:C55C -  -  -  -  vxZX7Uncompress:
  211 D1:C55C -  -  -  -  ; Routine copied from the C toolchain & speed optimized
  212 D1:C55C -  -  -  -  ;  Input:
  213 D1:C55C -  -  -  -  ;   HL = compressed data pointer
  214 D1:C55C -  -  -  -  ;   DE = output data pointer
  215 D1:C55C 3E 80 -  -          ld      a, 128
  216 D1:C55E -  -  -  -  
  217 D1:C55E -  -  -  -  dzx7t_copy_byte_loop:
  218 D1:C55E -  -  -  -  
  219 D1:C55E ED A0 -  -          ldi                             ; copy literal byte
  220 D1:C560 -  -  -  -  
  221 D1:C560 -  -  -  -  dzx7t_main_loop:
  222 D1:C560 -  -  -  -  
  223 D1:C560 87 -  -  -          add     a, a                    ; check next bit
  224 D1:C561 20 03 7E 23 
              17 -  -  -   	jr nz,$+5 \ ld a,(hl) \ inc hl \ rla
  225 D1:C566 30 F6 -  -          jr      nc, dzx7t_copy_byte_loop ; next bit indicates either literal or sequence
  226 D1:C568 -  -  -  -  
  227 D1:C568 -  -  -  -  ; determine number of bits used for length (Elias gamma coding)
  228 D1:C568 -  -  -  -  
  229 D1:C568 D5 -  -  -          push    de
  230 D1:C569 11 00 00 00         ld      de, 0
  231 D1:C56D 01 01 00 00         ld      bc, 1
  232 D1:C571 -  -  -  -  
  233 D1:C571 -  -  -  -  dzx7t_len_size_loop:
  234 D1:C571 -  -  -  -  
  235 D1:C571 14 -  -  -          inc     d
  236 D1:C572 87 -  -  -          add     a, a                    ; check next bit
  237 D1:C573 20 03 7E 23 
              17 -  -  -   	jr nz,$+5 \ ld a,(hl) \ inc hl \ rla
  238 D1:C578 30 F7 -  -          jr      nc, dzx7t_len_size_loop
  239 D1:C57A C3 8A C5 D1         jp      dzx7t_len_value_start
  240 D1:C57E -  -  -  -  
  241 D1:C57E -  -  -  -  ; determine length
  242 D1:C57E -  -  -  -  
  243 D1:C57E -  -  -  -  dzx7t_len_value_loop:
  244 D1:C57E -  -  -  -  
  245 D1:C57E 87 -  -  -          add     a, a                    ; check next bit
  246 D1:C57F 20 03 7E 23 
              17 -  -  -   	jr nz,$+5 \ ld a,(hl) \ inc hl \ rla
  247 D1:C584 CB 11 -  -          rl      c
  248 D1:C586 CB 10 -  -          rl      b
  249 D1:C588 38 36 -  -          jr      c, dzx7t_exit           ; check end marker
  250 D1:C58A -  -  -  -  
  251 D1:C58A -  -  -  -  dzx7t_len_value_start:
  252 D1:C58A -  -  -  -  
  253 D1:C58A 15 -  -  -          dec     d
  254 D1:C58B 20 F1 -  -          jr      nz, dzx7t_len_value_loop
  255 D1:C58D 03 -  -  -          inc     bc                      ; adjust length
  256 D1:C58E -  -  -  -  
  257 D1:C58E -  -  -  -  ; determine offset
  258 D1:C58E -  -  -  -  
  259 D1:C58E 5E -  -  -          ld      e, (hl)                 ; load offset flag (1 bit) + offset value (7 bits)
  260 D1:C58F 23 -  -  -          inc     hl
  261 D1:C590 -  -  -  -  
  262 D1:C590 CB 23 -  -          sla e
  263 D1:C592 1C -  -  -          inc e
  264 D1:C593 -  -  -  -  
  265 D1:C593 30 22 -  -          jr      nc, dzx7t_offset_end    ; if offset flag is set, load 4 extra bits
  266 D1:C595 87 -  -  -          add     a, a                    ; check next bit
  267 D1:C596 20 03 7E 23 
              17 -  -  -   	jr nz,$+5 \ ld a,(hl) \ inc hl \ rla
  268 D1:C59B CB 12 -  -          rl      d                       ; insert first bit into D
  269 D1:C59D 87 -  -  -          add     a, a                    ; check next bit
  270 D1:C59E 20 03 7E 23 
              17 -  -  -   	jr nz,$+5 \ ld a,(hl) \ inc hl \ rla
  271 D1:C5A3 CB 12 -  -          rl      d                       ; insert second bit into D
  272 D1:C5A5 87 -  -  -          add     a, a                    ; check next bit
  273 D1:C5A6 20 03 7E 23 
              17 -  -  -   	jr nz,$+5 \ ld a,(hl) \ inc hl \ rla
  274 D1:C5AB CB 12 -  -          rl      d                       ; insert third bit into D
  275 D1:C5AD 87 -  -  -          add     a, a                    ; check next bit
  276 D1:C5AE 20 03 7E 23 
              17 -  -  -   	jr nz,$+5 \ ld a,(hl) \ inc hl \ rla
  277 D1:C5B3 3F -  -  -          ccf
  278 D1:C5B4 38 01 -  -          jr      c, dzx7t_offset_end
  279 D1:C5B6 14 -  -  -          inc     d                       ; equivalent to adding 128 to DE
  280 D1:C5B7 -  -  -  -  
  281 D1:C5B7 -  -  -  -  dzx7t_offset_end:
  282 D1:C5B7 -  -  -  -  
  283 D1:C5B7 CB 1B -  -          rr      e                       ; insert inverted fourth bit into E
  284 D1:C5B9 -  -  -  -  
  285 D1:C5B9 -  -  -  -  ; copy previous sequence
  286 D1:C5B9 -  -  -  -  
  287 D1:C5B9 E3 -  -  -          ex      (sp), hl                ; store source, restore destination
  288 D1:C5BA E5 -  -  -          push    hl                      ; store destination
  289 D1:C5BB ED 52 -  -          sbc     hl, de                  ; HL = destination - offset - 1
  290 D1:C5BD D1 -  -  -          pop     de                      ; DE = destination
  291 D1:C5BE ED B0 -  -         ldir
  292 D1:C5C0 -  -  -  -  
  293 D1:C5C0 -  -  -  -  dzx7t_exit:
  294 D1:C5C0 -  -  -  -  
  295 D1:C5C0 E1 -  -  -          pop     hl                      ; restore source address (compressed data)
  296 D1:C5C1 30 9D -  -          jr      nc, dzx7t_main_loop
  297 D1:C5C3 C9 -  -  -  	ret
Listing for file "C:\Users\Zeromus\Documents\GitHub\Virtual3D\vxMain.ez80"
   10 D1:C5C4 -  -  -  -  #include	"vxPostProcessing.ez80"
Listing for file "C:\Users\Zeromus\Documents\GitHub\Virtual3D\vxPostProcessing.ez80"
    1 D1:C5C4 -  -  -  -  #macro blend50()
    2 D1:C5C4             	ld	c, (hl)
    3 D1:C5C4             	push	af
    4 D1:C5C4             	ld	d, a
    5 D1:C5C4             	and	c
    6 D1:C5C4             	and	VX_COLOR_LOW_BIT
    7 D1:C5C4             	ld	e, a
    8 D1:C5C4             	ld	a, d
    9 D1:C5C4             	and	~VX_COLOR_LOW_BIT
   10 D1:C5C4             	ld	d, a
   11 D1:C5C4             	ld	a, c
   12 D1:C5C4             	and	~VX_COLOR_LOW_BIT
   13 D1:C5C4             	add	a, d
   14 D1:C5C4             	rra
   15 D1:C5C4             	add	a, e
   16 D1:C5C4             	ld	(hl), a
   17 D1:C5C4             	pop	af
   18 D1:C5C4             #endmacro
   19 D1:C5C4 -  -  -  -  
   20 D1:C5C4 -  -  -  -  #macro blend25()
   21 D1:C5C4             	ld	c, (hl)
   22 D1:C5C4             	push	af
   23 D1:C5C4             	push	af
   24 D1:C5C4             	ld	d, a
   25 D1:C5C4             	and	c
   26 D1:C5C4             	and	VX_COLOR_LOW_BIT
   27 D1:C5C4             	ld	e, a
   28 D1:C5C4             	ld	a, d
   29 D1:C5C4             	and	~VX_COLOR_LOW_BIT
   30 D1:C5C4             	ld	d, a
   31 D1:C5C4             	ld	a, c
   32 D1:C5C4             	and	~VX_COLOR_LOW_BIT
   33 D1:C5C4             	add	a, d
   34 D1:C5C4             	rra
   35 D1:C5C4             	add	a, e
   36 D1:C5C4             ; take A, blend it with initial color
   37 D1:C5C4             	ld	c, a
   38 D1:C5C4             	pop	af
   39 D1:C5C4             	ld	d, a
   40 D1:C5C4             	and	c
   41 D1:C5C4             	and	VX_COLOR_LOW_BIT
   42 D1:C5C4             	ld	e, a
   43 D1:C5C4             	ld	a, d
   44 D1:C5C4             	and	~VX_COLOR_LOW_BIT
   45 D1:C5C4             	ld	d, a
   46 D1:C5C4             	ld	a, c
   47 D1:C5C4             	and	~VX_COLOR_LOW_BIT
   48 D1:C5C4             	add	a, d
   49 D1:C5C4             	rra
   50 D1:C5C4             	add	a, e
   51 D1:C5C4             	ld	(hl), a
   52 D1:C5C4             	pop	af
   53 D1:C5C4             #endmacro
   54 D1:C5C4 -  -  -  -  
   55 D1:C5C4 -  -  -  -  
   56 D1:C5C4 -  -  -  -  ; a is the color to bloomify
   57 D1:C5C4 -  -  -  -  vxBloomFilter:
   58 D1:C5C4 01 00 2C 01 	ld	bc, 76800
   59 D1:C5C8 2A 14 00 E3 	ld	hl, (vxFramebuffer)
   60 D1:C5CC -  -  -  -  vxBloomLoop:
   61 D1:C5CC ED B1 -  -  	cpir
   62 D1:C5CE E0 -  -  -  	ret	po
   63 D1:C5CF E5 -  -  -  	push	hl
   64 D1:C5D0 C5 -  -  -  	push	bc
   65 D1:C5D1 -  -  -  -  ;;	call	vxOptimizedKernel
   66 D1:C5D1 -  -  -  -  
   67 D1:C5D1 -  -  -  -  vxOptimizedKernel:
   68 D1:C5D1 -  -  -  -  ; (32,16,32)
   69 D1:C5D1 -  -  -  -  ; (16,00,16)
   70 D1:C5D1 -  -  -  -  ; (32,16,32)
   71 D1:C5D1 11 BE FE FF 	ld	de, -320-2
   72 D1:C5D5 19 -  -  -  	add	hl, de
   73 D1:C5D6 11 C1 FE FF 	ld	de, -320+1
   74 D1:C5DA 19 -  -  -  	add	hl, de
   75 D1:C5DB -  -  -  -  
   76 D1:C5DB BE -  -  -  	cp	(hl)
   77 D1:C5DC 28 13 -  -  	jr	z, p1x
   78 D1:C5DE 4E F5 57 A1 
              E6 29 5F 7A 
              E6 D6 57 79 
              E6 D6 82 1F 
              83 77 F1 -  	blend50
Listing for file "C:\Users\Zeromus\Documents\GitHub\Virtual3D\vxPostProcessing.ez80"
   79 D1:C5F1 -  -  -  -  p1x:
   80 D1:C5F1 11 3F 01 00 	ld	de, 320-1
   81 D1:C5F5 19 -  -  -  	add	hl, de
   82 D1:C5F6 -  -  -  -  
   83 D1:C5F6 -  -  -  -  
   84 D1:C5F6 BE -  -  -  	cp	(hl)
   85 D1:C5F7 28 13 -  -  	jr	z, px
   86 D1:C5F9 4E F5 57 A1 
              E6 29 5F 7A 
              E6 D6 57 79 
              E6 D6 82 1F 
              83 77 F1 -  	blend50
   87 D1:C60C -  -  -  -  px:
   88 D1:C60C 23 -  -  -  	inc	hl
   89 D1:C60D BE -  -  -  	cp	(hl)
   90 D1:C60E 28 25 -  -  	jr	z, p1
   91 D1:C610 4E F5 F5 57 
              A1 E6 29 5F 
              7A E6 D6 57 
              79 E6 D6 82 
              1F 83 4F F1 
              57 A1 E6 29 
              5F 7A E6 D6 
              57 79 E6 D6 
              82 1F 83 77 
              F1 -  -  -  	blend25
   92 D1:C635 -  -  -  -  p1:
   93 D1:C635 23 -  -  -  	inc	hl
   94 D1:C636 BE -  -  -  	cp	(hl)
   95 D1:C637 28 13 -  -  	jr	z, p2
   96 D1:C639 4E F5 57 A1 
              E6 29 5F 7A 
              E6 D6 57 79 
              E6 D6 82 1F 
              83 77 F1 -  	blend50
   97 D1:C64C -  -  -  -  p2:
   98 D1:C64C 11 3D 01 00 	ld	de, 320-3
   99 D1:C650 19 -  -  -  	add	hl, de
  100 D1:C651 -  -  -  -  
  101 D1:C651 BE -  -  -  	cp	(hl)
  102 D1:C652 28 13 -  -  	jr	z, p3x
  103 D1:C654 4E F5 57 A1 
              E6 29 5F 7A 
              E6 D6 57 79 
              E6 D6 82 1F 
              83 77 F1 -  	blend50
  104 D1:C667 -  -  -  -  p3x:
  105 D1:C667 23 -  -  -  	inc	hl
  106 D1:C668 -  -  -  -  
  107 D1:C668 BE -  -  -  	cp	(hl)
  108 D1:C669 28 25 -  -  	jr	z, p3
  109 D1:C66B 4E F5 F5 57 
              A1 E6 29 5F 
              7A E6 D6 57 
              79 E6 D6 82 
              1F 83 4F F1 
              57 A1 E6 29 
              5F 7A E6 D6 
              57 79 E6 D6 
              82 1F 83 77 
              F1 -  -  -  	blend25
  110 D1:C690 -  -  -  -  p3:
  111 D1:C690 23 -  -  -  	inc	hl
  112 D1:C691 77 -  -  -  	ld	(hl), a
  113 D1:C692 23 -  -  -  	inc	hl
  114 D1:C693 BE -  -  -  	cp	(hl)
  115 D1:C694 28 25 -  -  	jr	z, p5
  116 D1:C696 4E F5 F5 57 
              A1 E6 29 5F 
              7A E6 D6 57 
              79 E6 D6 82 
              1F 83 4F F1 
              57 A1 E6 29 
              5F 7A E6 D6 
              57 79 E6 D6 
              82 1F 83 77 
              F1 -  -  -  	blend25
  117 D1:C6BB -  -  -  -  p5:
  118 D1:C6BB -  -  -  -  
  119 D1:C6BB 23 -  -  -  	inc	hl
  120 D1:C6BC BE -  -  -  	cp	(hl)
  121 D1:C6BD 28 13 -  -  	jr	z, p5x
  122 D1:C6BF 4E F5 57 A1 
              E6 29 5F 7A 
              E6 D6 57 79 
              E6 D6 82 1F 
              83 77 F1 -  	blend50
  123 D1:C6D2 -  -  -  -  p5x:
  124 D1:C6D2 -  -  -  -  
  125 D1:C6D2 11 3D 01 00 	ld	de, 320-3
  126 D1:C6D6 19 -  -  -  	add	hl, de
  127 D1:C6D7 BE -  -  -  	cp	(hl)
  128 D1:C6D8 28 13 -  -  	jr	z, p6
  129 D1:C6DA 4E F5 57 A1 
              E6 29 5F 7A 
              E6 D6 57 79 
              E6 D6 82 1F 
              83 77 F1 -  	blend50
  130 D1:C6ED -  -  -  -  p6:
  131 D1:C6ED 23 -  -  -  	inc	hl
  132 D1:C6EE BE -  -  -  	cp	(hl)
  133 D1:C6EF 28 25 -  -  	jr	z, p7
  134 D1:C6F1 4E F5 F5 57 
              A1 E6 29 5F 
              7A E6 D6 57 
              79 E6 D6 82 
              1F 83 4F F1 
              57 A1 E6 29 
              5F 7A E6 D6 
              57 79 E6 D6 
              82 1F 83 77 
              F1 -  -  -  	blend25
  135 D1:C716 -  -  -  -  p7:
  136 D1:C716 23 -  -  -  	inc	hl
  137 D1:C717 BE -  -  -  	cp	(hl)
  138 D1:C718 28 13 -  -  	jr	z, p8
  139 D1:C71A 4E F5 57 A1 
              E6 29 5F 7A 
              E6 D6 57 79 
              E6 D6 82 1F 
              83 77 F1 -  	blend50
  140 D1:C72D -  -  -  -  p8:
  141 D1:C72D -  -  -  -  
  142 D1:C72D 11 3F 01 00 	ld	de, 320-1
  143 D1:C731 19 -  -  -  	add	hl, de
  144 D1:C732 BE -  -  -  	cp	(hl)
  145 D1:C733 28 13 -  -  	jr	z, p8x
  146 D1:C735 4E F5 57 A1 
              E6 29 5F 7A 
              E6 D6 57 79 
              E6 D6 82 1F 
              83 77 F1 -  	blend50
  147 D1:C748 -  -  -  -  p8x:
  148 D1:C748 -  -  -  -  
  149 D1:C748 C1 -  -  -  	pop	bc
  150 D1:C749 E1 -  -  -  	pop	hl
  151 D1:C74A C3 CC C5 D1 	jp	vxBloomLoop
  152 D1:C74E -  -  -  -  ;;	ret
  153 D1:C74E -  -  -  -  
  154 D1:C74E -  -  -  -  ;vxGaussianKernel5x5:
  155 D1:C74E -  -  -  -  ; (40,36,34,36,40)
  156 D1:C74E -  -  -  -  ; (36,24,20,24,36)
  157 D1:C74E -  -  -  -  ; (34,20,00**,20,34)
  158 D1:C74E -  -  -  -  ; (36,24,20,24,36)
  159 D1:C74E -  -  -  -  ; (40,36,34,36,40)
  160 D1:C74E -  -  -  -  
  161 D1:C74E -  -  -  -  
  162 D1:C74E -  -  -  -  
  163 D1:C74E -  -  -  -  
  164 D1:C74E -  -  -  -  
  165 D1:C74E -  -  -  -  vxConvolveBlur:
  166 D1:C74E -  -  -  -  ; blur a little the screen using following convolution matrix : 
  167 D1:C74E -  -  -  -  ; 0 : 0 : 0
  168 D1:C74E -  -  -  -  ; 0 : 2 : 1
  169 D1:C74E -  -  -  -  ; 0 : 1 : 0
  170 D1:C74E 2A 14 00 E3 	ld	hl, (vxFramebuffer)
  171 D1:C752 01 FF 00 00 	ld	bc, 255
  172 D1:C756 -  -  -  -  VXBLURLOOP:
  173 D1:C756 C5 -  -  -  	push	bc
  174 D1:C757 46 -  -  -  	ld	b, (hl)
  175 D1:C758 23 -  -  -  	inc	hl
  176 D1:C759 4E -  -  -  	ld	c, (hl)
  177 D1:C75A -  -  -  -  
  178 D1:C75A 78 -  -  -  	ld	a, b
  179 D1:C75B A1 -  -  -  	and	c
  180 D1:C75C E6 29 -  -  	and	VX_COLOR_LOW_BIT
  181 D1:C75E 5F -  -  -  	ld	e, a
  182 D1:C75F 78 -  -  -  	ld	a, b
  183 D1:C760 E6 D6 -  -  	and	~VX_COLOR_LOW_BIT
  184 D1:C762 57 -  -  -  	ld	d, a
  185 D1:C763 79 -  -  -  	ld	a, c
  186 D1:C764 E6 D6 -  -  	and	~VX_COLOR_LOW_BIT
  187 D1:C766 82 -  -  -  	add	a, d
  188 D1:C767 1F -  -  -  	rra
  189 D1:C768 83 -  -  -  	add	a, e
  190 D1:C769 2B -  -  -  	dec	hl
  191 D1:C76A 77 -  -  -  	ld	(hl), a
  192 D1:C76B -  -  -  -  
  193 D1:C76B C1 -  -  -  	pop	bc
  194 D1:C76C 23 -  -  -  	inc	hl
  195 D1:C76D 10 E7 -  -  	djnz	VXBLURLOOP
  196 D1:C76F 0D -  -  -  	dec	c
  197 D1:C770 C2 56 C7 D1 	jp	nz, VXBLURLOOP
  198 D1:C774 C9 -  -  -  	ret
  199 D1:C775 -  -  -  -  
  200 D1:C775 -  -  -  -  
  201 D1:C775 -  -  -  -  
  202 D1:C775 -  -  -  -  
  203 D1:C775 -  -  -  -  #comment
  204 D1:C775             	inc	hl
  205 D1:C775             	ld	c, (hl)
  206 D1:C775             	ld	de, 320
  207 D1:C775             	add	hl, de
  208 D1:C775             	ld	b, (hl)
  209 D1:C775             	scf
  210 D1:C775             	sbc	hl, de
  211 D1:C775             ; blend50
  212 D1:C775             
  213 D1:C775             	ld	a, b
  214 D1:C775             	and	c
  215 D1:C775             	and	VX_COLOR_LOW_BIT
  216 D1:C775             	ld	e, a
  217 D1:C775             	ld	a, b
  218 D1:C775             	and	~VX_COLOR_LOW_BIT
  219 D1:C775             	ld	d, a
  220 D1:C775             	ld	a, c
  221 D1:C775             	and	~VX_COLOR_LOW_BIT
  222 D1:C775             	add	a, d
  223 D1:C775             	rra
  224 D1:C775             	add	a, e
  225 D1:C775             	ld	c, (hl)
  226 D1:C775             	ld	b, a
  227 D1:C775             
  228 D1:C775             	ld	a, b
  229 D1:C775             	and	c
  230 D1:C775             	and	VX_COLOR_LOW_BIT
  231 D1:C775             	ld	e, a
  232 D1:C775             	ld	a, b
  233 D1:C775             	and	~VX_COLOR_LOW_BIT
  234 D1:C775             	ld	d, a
  235 D1:C775             	ld	a, c
  236 D1:C775             	and	~VX_COLOR_LOW_BIT
  237 D1:C775             	add	a, d
  238 D1:C775             	rra
  239 D1:C775             	add	a, e
  240 D1:C775             
  241 D1:C775             	ld	(hl), a
  242 D1:C775             
  243 D1:C775             #endcomment
Listing for file "C:\Users\Zeromus\Documents\GitHub\Virtual3D\vxMain.ez80"
   11 D1:C775 -  -  -  -  #include	"vxImage.ez80"
Listing for file "C:\Users\Zeromus\Documents\GitHub\Virtual3D\vxImage.ez80"
    1 D1:C775 -  -  -  -  vxImageSubCopy:
    2 D1:C775 -  -  -  -  ; hl : org, bc : rect size, de : copy
    3 D1:C775 C5 -  -  -  	push	bc
    4 D1:C776 01 00 00 D3 	ld	bc, $D30000
    5 D1:C77A 09 -  -  -  	add	hl, bc
    6 D1:C77B EB -  -  -  	ex	de, hl
    7 D1:C77C 09 -  -  -  	add	hl, bc
    8 D1:C77D EB -  -  -  	ex	de, hl
    9 D1:C77E C1 -  -  -  	pop	bc
   10 D1:C77F 78 -  -  -  	ld	a, b
   11 D1:C780 06 00 -  -  	ld	b, 0
   12 D1:C782 -  -  -  -  ; ready to copy
   13 D1:C782 -  -  -  -  vxCopyLoop:
   14 D1:C782 C5 -  -  -  	push	bc
   15 D1:C783 D5 -  -  -  	push	de
   16 D1:C784 E5 -  -  -  	push	hl
   17 D1:C785 ED B0 -  -  	ldir
   18 D1:C787 E1 -  -  -  	pop	hl
   19 D1:C788 D1 -  -  -  	pop	de
   20 D1:C789 C1 -  -  -  	pop	bc
   21 D1:C78A 24 -  -  -  	inc	h
   22 D1:C78B 14 -  -  -  	inc	d
   23 D1:C78C 3D -  -  -  	dec	a
   24 D1:C78D 20 F3 -  -  	jr	nz, vxCopyLoop
   25 D1:C78F C9 -  -  -  	ret
   26 D1:C790 -  -  -  -  vxTestAABB:
   27 D1:C790 -  -  -  -  
   28 D1:C790 C9 -  -  -  	ret
   29 D1:C791 -  -  -  -  vxMipmapLOD:
   30 D1:C791 -  -  -  -  ;    vec2  dx_vtc        = dFdx;
   31 D1:C791 -  -  -  -  ;    vec2  dy_vtc        = dFdy;
   32 D1:C791 -  -  -  -  ;    float delta_max_sqr = max(dot(dx_vtc, dx_vtc), dot(dy_vtc, dy_vtc));
   33 D1:C791 -  -  -  -  ;    return 0.5 * log2(delta_max_sqr)
   34 D1:C791 3A FD FF FF 	ld	a, (VX_FDUDX+1) ;dudx+1
   35 D1:C795 CB 7F 28 02 
              ED 44 -  -  	bit	7, a \ jr z, $+4 \ neg
   36 D1:C79B 6F -  -  -  	ld	l, a
   37 D1:C79C 67 -  -  -  	ld	h, a
   38 D1:C79D ED 6C -  -  	mlt	hl
   39 D1:C79F 3A FB FF FF 	ld	a, (VX_FDVDX+1) ;dvdx+1
   40 D1:C7A3 CB 7F 28 02 
              ED 44 -  -  	bit	7, a \ jr z, $+4 \ neg
   41 D1:C7A9 57 -  -  -  	ld	d, a
   42 D1:C7AA 5F -  -  -  	ld	e, a
   43 D1:C7AB ED 5C -  -  	mlt	de
   44 D1:C7AD 19 -  -  -  	add	hl, de
   45 D1:C7AE E5 -  -  -  	push	hl
   46 D1:C7AF 3A F7 FF FF 	ld	a, (VX_FDUDY+1) ;dudy+1
   47 D1:C7B3 CB 7F 28 02 
              ED 44 -  -  	bit	7, a \ jr z, $+4 \ neg
   48 D1:C7B9 6F -  -  -  	ld	l, a
   49 D1:C7BA 67 -  -  -  	ld	h, a
   50 D1:C7BB ED 6C -  -  	mlt	hl
   51 D1:C7BD 3A F5 FF FF 	ld	a, (VX_FDVDY+1) ;dvdy+1
   52 D1:C7C1 CB 7F 28 02 
              ED 44 -  -  	bit	7, a \ jr z, $+4 \ neg
   53 D1:C7C7 57 -  -  -  	ld	d, a
   54 D1:C7C8 5F -  -  -  	ld	e, a
   55 D1:C7C9 ED 5C -  -  	mlt	de
   56 D1:C7CB 19 -  -  -  	add	hl, de
   57 D1:C7CC D1 -  -  -  	pop	de
   58 D1:C7CD -  -  -  -  ; max(hl,de)
   59 D1:C7CD B7 -  -  -  	or	a, a
   60 D1:C7CE ED 52 -  -  	sbc	hl, de
   61 D1:C7D0 19 -  -  -  	add	hl, de
   62 D1:C7D1 30 01 -  -  	jr	nc, $+3
   63 D1:C7D3 EB -  -  -  	ex	de, hl
   64 D1:C7D4 20 01 -  -  	jr	nz, $+3
   65 D1:C7D6 23 -  -  -  	inc	hl
   66 D1:C7D7 -  -  -  -  ; compute log2
   67 D1:C7D7 3E 10 -  -  	ld	a,16
   68 D1:C7D9 37 -  -  -  	scf
   69 D1:C7DA -  -  -  -  __LogLoop:
   70 D1:C7DA 52 ED 6A -  	adc.s	hl,hl
   71 D1:C7DD 3D -  -  -  	dec	a
   72 D1:C7DE 30 FA -  -  	jr	nc,__LogLoop
   73 D1:C7E0 -  -  -  -  ; result is between [-1;15]
   74 D1:C7E0 -  -  -  -  ; 256x256 texture have 9 mipmap levels.
   75 D1:C7E0 CB 3F -  -  	srl	a	; remap to [0-8]
   76 D1:C7E2 -  -  -  -  ; clamp the result to [0-8]
   77 D1:C7E2 -  -  -  -  ; correspondance :
   78 D1:C7E2 -  -  -  -  ; 256x256 : 0
   79 D1:C7E2 -  -  -  -  ; 128x128 : 1
   80 D1:C7E2 -  -  -  -  ;  64x 64 : 2
   81 D1:C7E2 -  -  -  -  ;  32x 32 : 3
   82 D1:C7E2 -  -  -  -  ;  16x 16 : 4
   83 D1:C7E2 -  -  -  -  ;   8x  8 : 5
   84 D1:C7E2 -  -  -  -  ;   4x  4 : 6
   85 D1:C7E2 -  -  -  -  ;   2x  2 : 7
   86 D1:C7E2 -  -  -  -  ;   1x  1 : 8
   87 D1:C7E2 C9 -  -  -  	ret
Listing for file "C:\Users\Zeromus\Documents\GitHub\Virtual3D\vxMain.ez80"
   12 D1:C7E3 -  -  -  -  #include	"vxShaderInterpolation.ez80"
Listing for file "C:\Users\Zeromus\Documents\GitHub\Virtual3D\vxShaderInterpolation.ez80"
    1 D1:C7E3 -  -  -  -  ;; BUG :: inside du/dy and dv/dy compute
    2 D1:C7E3 -  -  -  -  
    3 D1:C7E3 -  -  -  -  #define	VX_REGISTER_Y0	-32+0
    4 D1:C7E3 -  -  -  -  #define	VX_REGISTER_X0	-32+1
    5 D1:C7E3 -  -  -  -  #define	VX_REGISTER_U0	-32+3
    6 D1:C7E3 -  -  -  -  #define	VX_REGISTER_V0	-32+4
    7 D1:C7E3 -  -  -  -  #define	VX_REGISTER_C0	-32+5
    8 D1:C7E3 -  -  -  -  #define	VX_REGISTER_Y1	-26+0
    9 D1:C7E3 -  -  -  -  #define	VX_REGISTER_X1	-26+1
   10 D1:C7E3 -  -  -  -  #define	VX_REGISTER_U1	-26+3
   11 D1:C7E3 -  -  -  -  #define	VX_REGISTER_V1	-26+4
   12 D1:C7E3 -  -  -  -  #define	VX_REGISTER_C1	-26+5
   13 D1:C7E3 -  -  -  -  #define	VX_REGISTER_Y2	-20+0
   14 D1:C7E3 -  -  -  -  #define	VX_REGISTER_X2	-20+1
   15 D1:C7E3 -  -  -  -  #define	VX_REGISTER_U2	-20+3
   16 D1:C7E3 -  -  -  -  #define	VX_REGISTER_V2	-20+4
   17 D1:C7E3 -  -  -  -  #define	VX_REGISTER_C2	-20+5
   18 D1:C7E3 -  -  -  -  
   19 D1:C7E3 -  -  -  -  #define	VX_FDVDY	-12
   20 D1:C7E3 -  -  -  -  #define	VX_FDUDY	-10
   21 D1:C7E3 -  -  -  -  #define	VX_FDVDX	-6
   22 D1:C7E3 -  -  -  -  #define	VX_FDUDX	-4
   23 D1:C7E3 -  -  -  -  
   24 D1:C7E3 -  -  -  -  #define	VX_SHADER_INTERPOLATION_CODE	$E30800
   25 D1:C7E3 -  -  -  -  
   26 D1:C7E3 -  -  -  -  	.addinstr ld deu,0 13521B52 4 NOP 0
   27 D1:C7E3 -  -  -  -  	.addinstr ld hlu,0 23522B52 4 NOP 0
   28 D1:C7E3 -  -  -  -  	.addinstr ld bcu,0 03520B52 4 NOP 0
   29 D1:C7E3 -  -  -  -  
   30 D1:C7E3 00 00 00 00 
              00 00 00 00 
              00 00 00 00 
              00 00 00 00 
              00 00 00 00 
              00 00 00 00 
              00 00 00 00 
              00 00 00 00 	.fill	32
   31 D1:C803 -  -  -  -  VX_PIXEL_SHADER_DATA:
   32 D1:C803 00 00 00 00 
              00 00 00 00 
              00 00 00 00 
              00 00 00 00 
              00 00 00 00 
              00 00 00 00 
              00 00 00 00 
              00 00 00 00 
              00 00 00 00 
              00 00 00 00 
              00 00 00 00 
              00 00 00 00 
              00 00 00 00 
              00 00 00 00 
              00 00 00 00 
              00 00 00 00 
              00 00 00 00 
              00 00 00 00 
              00 00 00 00 
              00 00 00 00 
              00 00 00 00 
              00 00 00 00 
              00 00 00 00 
              00 00 00 00 
              00 00 00 00 
              00 00 00 00 
              00 00 00 00 
              00 00 00 00 
              00 00 00 00 
              00 00 00 00 
              00 00 00 00 
              00 00 00 00 
              00 00 00 00 
              00 00 00 00 
              00 00 00 00 
              00 00 00 00 
              00 00 00 00 
              00 00 00 00 
              00 00 00 00 
              00 00 00 00 
              00 00 00 00 
              00 00 00 00 
              00 00 00 00 
              00 00 00 00 
              00 00 00 00 
              00 00 00 00 
              00 00 00 00 
              00 00 00 00 
              00 00 00 00 
              00 00 00 00 
              00 00 00 00 
              00 00 00 00 
              00 00 00 00 
              00 00 00 00 
              00 00 00 00 
              00 00 00 00 
              00 00 00 00 
              00 00 00 00 
              00 00 00 00 
              00 00 00 00 
              00 00 00 00 
              00 00 00 00 
              00 00 00 00 
              00 00 00 00 
              00 00 00 00 
              00 00 00 00 
              00 00 00 00 
              00 00 00 00 
              00 00 00 00 
              00 00 00 00 
              00 00 00 00 
              00 00 00 00 
              00 00 00 00 
              00 00 00 00 
              00 00 00 00 
              00 00 00 00 
              00 00 00 00 
              00 00 00 00 
              00 00 00 00 
              00 00 00 00 
              00 00 00 00 
              00 00 00 00 
              00 00 00 00 
              00 00 00 00 
              00 00 00 00 
              00 00 00 00 
              00 00 00 00 
              00 00 00 00 
              00 00 00 00 
              00 00 00 00 
              00 00 00 00 
              00 00 00 00 
              00 00 00 00 
              00 00 00 00 
              00 00 00 00 
              00 00 00 00 
              00 00 00 00 
              00 00 00 00 
              00 00 00 00 
              00 00 00 00 
              00 00 00 00 
              00 00 00 00 
              00 00 00 00 
              00 00 00 00 
              00 00 00 00 
              00 00 00 00 
              00 00 00 00 
              00 00 00 00 
              00 00 00 00 
              00 00 00 00 
              00 00 00 00 
              00 00 00 00 
              00 00 00 00 
              00 00 00 00 
              00 00 00 00 
              00 00 00 00 
              00 00 00 00 
              00 00 00 00 
              00 00 00 00 
              00 00 00 00 
              00 00 00 00 
              00 00 00 00 
              00 00 00 00 
              00 00 00 00 
              00 00 00 00 
              00 00 00 00 
              00 00 00 00 
              00 00 00 00 
              00 00 00 00 
              00 00 00 00 
              00 00 00 00 
              00 00 00 00 
              00 00 00 00 
              00 00 00 00 
              00 00 00 00 
              00 00 00 00 
              00 00 00 00 
              00 00 00 00 
              00 00 00 00 
              00 00 00 00 
              00 00 00 00 
              00 00 00 00 
              00 00 00 00 
              00 00 00 00 
              00 00 00 00 
              00 00 00 00 
              00 00 00 00 
              00 00 00 00 
              00 00 00 00 
              00 00 00 00 
              00 00 00 00 
              00 00 00 00 
              00 00 00 00 
              00 00 00 00 
              00 00 00 00 
              00 00 00 00 
              00 00 00 00 
              00 00 00 00 
              00 00 00 00 
              00 00 00 00 
              00 00 00 00 
              00 00 00 00 
              00 00 00 00 
              00 00 00 00 
              00 00 00 00 
              00 00 00 00 
              00 00 00 00 
              00 00 00 00 
              00 00 00 00 
              00 00 00 00 
              00 00 00 00 
              00 00 00 00 
              00 00 00 00 
              00 00 00 00 
              00 00 00 00 
              00 00 00 00 
              00 00 00 00 
              00 00 00 00 
              00 00 00 00 
              00 00 00 00 
              00 00 00 00 
              00 00 00 00 
              00 00 00 00 
              00 00 00 00 
              00 00 00 00 
              00 00 00 00 
              00 00 00 00 
              00 00 00 00 
              00 00 00 00 
              00 00 00 00 
              00 00 00 00 
              00 00 00 00 
              00 00 00 00 
              00 00 00 00 
              00 00 00 00 
              00 00 00 00 
              00 00 00 00 
              00 00 00 00 
              00 00 00 00 
              00 00 00 00 
              00 00 00 00 
              00 00 00 00 
              00 00 00 00 
              00 00 00 00 
              00 00 00 00 
              00 00 00 00 
              00 00 00 00 
              00 00 00 00 
              00 00 00 00 
              00 00 00 00 
              00 00 00 00 
              00 00 00 00 
              00 00 00 00 
              00 00 00 00 
              00 00 00 00 
              00 00 00 00 
              00 00 00 00 
              00 00 00 00 
              00 00 00 00 
              00 00 00 00 
              00 00 00 00 
              00 00 00 00 
              00 00 00 00 
              00 00 00 00 
              00 00 00 00 
              00 00 00 00 
              00 00 00 00 
              00 00 00 00 
              00 00 00 00 
              00 00 00 00 
              00 00 00 00 
              00 00 00 00 
              00 00 00 00 
              00 00 00 00 
              00 00 00 00 
              00 00 00 00 
              00 00 00 00 
              00 00 00 00 
              00 00 00 00 
              00 00 00 00 
              00 00 00 00 
              00 00 00 00 
              00 00 00 00 
              00 00 00 00 
              00 00 00 00 
              00 00 00 00 
              00 00 00 00 
              00 00 00 00 
              00 00 00 00 
              00 00 00 00 
              00 00 00 00 
              00 00 00 00 
              00 00 00 00 
              00 00 00 00 
              00 00 00 00 
              00 00 00 00 
              00 00 00 00 
              00 00 00 00 
              00 00 00 00 
              00 00 00 00 
              00 00 00 00 
              00 00 00 00 
              00 00 00 00 
              00 00 00 00 
              00 00 00 00 
              00 00 00 00 
              00 00 00 00 
              00 00 00 00 
              00 00 00 00 
              00 00 00 00 
              00 00 00 00 
              00 00 00 00 
              00 00 00 00 
              00 00 00 00 
              00 00 00 00 
              00 00 00 00 
              00 00 00 00 
              00 00 00 00 
              00 00 00 00 
              00 00 00 00 
              00 00 00 00 
              00 00 00 00 
              00 00 00 00 
              00 00 00 00 
              00 00 00 00 
              00 00 00 00 
              00 00 00 00 
              00 00 00 00 
              00 00 00 00 
              00 00 00 00 
              00 00 00 00 
              00 00 00 00 
              00 00 00 00 
              00 00 00 00 
              00 00 00 00 
              00 00 00 00 
              00 00 00 00 
              00 00 00 00 
              00 00 00 00 
              00 00 00 00 
              00 00 00 00 
              00 00 00 00 
              00 00 00 00 
              00 00 00 00 
              00 00 00 00 
              00 00 00 00 
              00 00 00 00 
              00 00 00 00 
              00 00 00 00 
              00 00 00 00 
              00 00 00 00 
              00 00 00 00 
              00 00 00 00 
              00 00 00 00 
              00 00 00 00 
              00 00 00 00 
              00 00 00 00 
              00 00 00 00 
              00 00 00 00 
              00 00 00 00 
              00 00 00 00 
              00 00 00 00 
              00 00 00 00 
              00 00 00 00 
              00 00 00 00 
              00 00 00 00 
              00 00 00 00 
              00 00 00 00 
              00 00 00 00 
              00 00 00 00 
              00 00 00 00 
              00 00 00 00 
              00 00 00 00 
              00 00 00 00 
              00 00 00 00 
              00 00 00 00 
              00 00 00 00 
              00 00 00 00 
              00 00 00 00 
              00 00 00 00 
              00 00 00 00 
              00 00 00 00 
              00 00 00 00 
              00 00 00 00 
              00 00 00 00 
              00 00 00 00 
              00 00 00 00 
              00 00 00 00 
              00 00 00 00 
              00 00 00 00 
              00 00 00 00 
              00 00 00 00 
              00 00 00 00 
              00 00 00 00 
              00 00 00 00 
              00 00 00 00 
              00 00 00 00 
              00 00 00 00 
              00 00 00 00 
              00 00 00 00 
              00 00 00 00 
              00 00 00 00 
              00 00 00 00 
              00 00 00 00 
              00 00 00 00 
              00 00 00 00 
              00 00 00 00 
              00 00 00 00 
              00 00 00 00 
              00 00 00 00 
              00 00 00 00 
              00 00 00 00 
              00 00 00 00 
              00 00 00 00 
              00 00 00 00 
              00 00 00 00 
              00 00 00 00 
              00 00 00 00 
              00 00 00 00 
              00 00 00 00 
              00 00 00 00 
              00 00 00 00 
              00 00 00 00 
              00 00 00 00 
              00 00 00 00 
              00 00 00 00 
              00 00 00 00 
              00 00 00 00 
              00 00 00 00 
              00 00 00 00 
              00 00 00 00 
              00 00 00 00 
              00 00 00 00 
              00 00 00 00 
              00 00 00 00 
              00 00 00 00 
              00 00 00 00 
              00 00 00 00 
              00 00 00 00 
              00 00 00 00 
              00 00 00 00 
              00 00 00 00 
              00 00 00 00 
              00 00 00 00 
              00 00 00 00 
              00 00 00 00 
              00 00 00 00 
              00 00 00 00 
              00 00 00 00 
              00 00 00 00 
              00 00 00 00 
              00 00 00 00 
              00 00 00 00 
              00 00 00 00 
              00 00 00 00 
              00 00 00 00 
              00 00 00 00 
              00 00 00 00 
              00 00 00 00 
              00 00 00 00 
              00 00 00 00 
              00 00 00 00 
              00 00 00 00 
              00 00 00 00 
              00 00 00 00 
              00 00 00 00 
              00 00 00 00 
              00 00 00 00 
              00 00 00 00 
              00 00 00 00 
              00 00 00 00 
              00 00 00 00 
              00 00 00 00 
              00 00 00 00 
              00 00 00 00 
              00 00 00 00 
              00 00 00 00 
              00 00 00 00 
              00 00 00 00 
              00 00 00 00 
              00 00 00 00 
              00 00 00 00 
              00 00 00 00 
              00 00 00 00 
              00 00 00 00 
              00 00 00 00 
              00 00 00 00 
              00 00 00 00 
              00 00 00 00 
              00 00 00 00 
              00 00 00 00 
              00 00 00 00 
              00 00 00 00 
              00 00 00 00 
              00 00 00 00 
              00 00 00 00 
              00 00 00 00 
              00 00 00 00 
              00 00 00 00 
              00 00 00 00 
              00 00 00 00 
              00 00 00 00 
              00 00 00 00 
              00 00 00 00 
              00 00 00 00 
              00 00 00 00 
              00 00 00 00 
              00 00 00 00 
              00 00 00 00 
              00 00 00 00 
              00 00 00 00 
              00 00 00 00 
              00 00 00 00 
              00 00 00 00 
              00 00 00 00 
              00 00 00 00 
              00 00 00 00 
              00 00 00 00 
              00 00 00 00 
              00 00 00 00 
              00 00 00 00 
              00 00 00 00 
              00 00 00 00 
              00 00 00 00 
              00 00 00 00 
              00 00 00 00 
              00 00 00 00 
              00 00 00 00 
              00 00 00 00 
              00 00 00 00 
              00 00 00 00 
              00 00 00 00 
              00 00 00 00 
              00 00 00 00 
              00 00 00 00 
              00 00 00 00 
              00 00 00 00 
              00 00 00 00 
              00 00 00 00 
              00 00 00 00 
              00 00 00 00 
              00 00 00 00 
              00 00 00 00 
              00 00 00 00 
              00 00 00 00 
              00 00 00 00 
              00 00 00 00 
              00 00 00 00 
              00 00 00 00 
              00 00 00 00 
              00 00 00 00 
              00 00 00 00 
              00 00 00 00 
              00 00 00 00 
              00 00 00 00 
              00 00 00 00 
              00 00 00 00 
              00 00 00 00 
              00 00 00 00 
              00 00 00 00 
              00 00 00 00 
              00 00 00 00 
              00 00 00 00 
              00 00 00 00 
              00 00 00 00 
              00 00 00 00 
              00 00 00 00 
              00 00 00 00 
              00 00 00 00 
              00 00 00 00 
              00 00 00 00 
              00 00 00 00 
              00 00 00 00 
              00 00 00 00 
              00 00 00 00 
              00 00 00 00 
              00 00 00 00 
              00 00 00 00 
              00 00 00 00 
              00 00 00 00 
              00 00 00 00 
              00 00 00 00 
              00 00 00 00 
              00 00 00 00 
              00 00 00 00 
              00 00 00 00 
              00 00 00 00 
              00 00 00 00 
              00 00 00 00 
              00 00 00 00 
              00 00 00 00 
              00 00 00 00 
              00 00 00 00 
              00 00 00 00 
              00 00 00 00 
              00 00 00 00 
              00 00 00 00 
              00 00 00 00 
              00 00 00 00 
              00 00 00 00 
              00 00 00 00 
              00 00 00 00 
              00 00 00 00 
              00 00 00 00 
              00 00 00 00 
              00 00 00 00 
              00 00 00 00 
              00 00 00 00 
              00 00 00 00 
              00 00 00 00 
              00 00 00 00 
              00 00 00 00 
              00 00 00 00 
              00 00 00 00 
              00 00 00 00 
              00 00 00 00 
              00 00 00 00 
              00 00 00 00 
              00 00 00 00 
              00 00 00 00 
              00 00 00 00 
              00 00 00 00 
              00 00 00 00 
              00 00 00 00 
              00 00 00 00 
              00 00 00 00 
              00 00 00 00 
              00 00 00 00 
              00 00 00 00 
              00 00 00 00 
              00 00 00 00 
              00 00 00 00 
              00 00 00 00 
              00 00 00 00 
              00 00 00 00 
              00 00 00 00 
              00 00 00 00 
              00 00 00 00 
              00 00 00 00 
              00 00 00 00 
              00 00 00 00 
              00 00 00 00 
              00 00 00 00 
              00 00 00 00 
              00 00 00 00 
              00 00 00 00 
              00 00 00 00 
              00 00 00 00 
              00 00 00 00 
              00 00 00 00 
              00 00 00 00 
              00 00 00 00 
              00 00 00 00 
              00 00 00 00 
              00 00 00 00 
              00 00 00 00 
              00 00 00 00 
              00 00 00 00 
              00 00 00 00 
              00 00 00 00 
              00 00 00 00 
              00 00 00 00 
              00 00 00 00 
              00 00 00 00 
              00 00 00 00 
              00 00 00 00 
              00 00 00 00 
              00 00 00 00 
              00 00 00 00 
              00 00 00 00 
              00 00 00 00 
              00 00 00 00 
              00 00 00 00 
              00 00 00 00 
              00 00 00 00 
              00 00 00 00 
              00 00 00 00 
              00 00 00 00 
              00 00 00 00 
              00 00 00 00 
              00 00 00 00 
              00 00 00 00 
              00 00 00 00 
              00 00 00 00 
              00 00 00 00 
              00 00 00 00 
              00 00 00 00 
              00 00 00 00 
              00 00 00 00 
              00 00 00 00 
              00 00 00 00 
              00 00 00 00 
              00 00 00 00 
              00 00 00 00 
              00 00 00 00 
              00 00 00 00 
              00 00 00 00 
              00 00 00 00 
              00 00 00 00 
              00 00 00 00 
              00 00 00 00 
              00 00 00 00 
              00 00 00 00 
              00 00 00 00 
              00 00 00 00 
              00 00 00 00 
              00 00 00 00 
              00 00 00 00 
              00 00 00 00 
              00 00 00 00 
              00 00 00 00 
              00 00 00 00 
              00 00 00 00 
              00 00 00 00 
              00 00 00 00 
              00 00 00 00 
              00 00 00 00 
              00 00 00 00 
              00 00 00 00 
              00 00 00 00 
              00 00 00 00 
              00 00 00 00 
              00 00 00 00 
              00 00 00 00 
              00 00 00 00 
              00 00 00 00 
              00 00 00 00 
              00 00 00 00 
              00 00 00 00 
              00 00 00 00 
              00 00 00 00 
              00 00 00 00 
              00 00 00 00 
              00 00 00 00 
              00 00 00 00 
              00 00 00 00 
              00 00 00 00 
              00 00 00 00 
              00 00 00 00 
              00 00 00 00 
              00 00 00 00 
              00 00 00 00 
              00 00 00 00 
              00 00 00 00 
              00 00 00 00 
              00 00 00 00 
              00 00 00 00 
              00 00 00 00 
              00 00 00 00 
              00 00 00 00 
              00 00 00 00 
              00 00 00 00 
              00 00 00 00 
              00 00 00 00 
              00 00 00 00 
              00 00 00 00 
              00 00 00 00 
              00 00 00 00 
              00 00 00 00 
              00 00 00 00 
              00 00 00 00 
              00 00 00 00 
              00 00 00 00 
              00 00 00 00 
              00 00 00 00 
              00 00 00 00 
              00 00 00 00 
              00 00 00 00 
              00 00 00 00 
              00 00 00 00 
              00 00 00 00 
              00 00 00 00 
              00 00 00 00 
              00 00 00 00 
              00 00 00 00 
              00 00 00 00 
              00 00 00 00 
              00 00 00 00 
              00 00 00 00 
              00 00 00 00 
              00 00 00 00 
              00 00 00 00 
              00 00 00 00 
              00 00 00 00 
              00 00 00 00 
              00 00 00 00 
              00 00 00 00 
              00 00 00 00 
              00 00 00 00 
              00 00 00 00 
              00 00 00 00 
              00 00 00 00 
              00 00 00 00 
              00 00 00 00 
              00 00 00 00 
              00 00 00 00 
              00 00 00 00 
              00 00 00 00 
              00 00 00 00 
              00 00 00 00 
              00 00 00 00 
              00 00 00 00 
              00 00 00 00 
              00 00 00 00 
              00 00 00 00 
              00 00 00 00 
              00 00 00 00 
              00 00 00 00 	.fill	3072
   33 D1:D403 -  -  -  -  
   34 D1:D403 -  -  -  -  VX_SHADER_INTERPOLATION_COPY:
   35 D1:D403 -  -  -  -  
   36 D1:D403 -  -  -  -  .relocate VX_SHADER_INTERPOLATION_CODE
Listing for file "C:\Users\Zeromus\Documents\GitHub\Virtual3D\vxShaderInterpolation.ez80"
   37 E3:0800 -  -  -  -  
   38 E3:0800 -  -  -  -  vxTextureTriangle:
   39 E3:0800 -  -  -  -  ; issue 1 : uniform value isn't interpolated through clipping
   40 E3:0800 -  -  -  -  ; clipping doesn't have the correct position of uv
   41 E3:0800 -  -  -  -  
   42 E3:0800 -  -  -  -  ; compute average of the vertex GPI
   43 E3:0800 -  -  -  -  ;	ld	h, a
   44 E3:0800 -  -  -  -  ;	ld	l, 83
   45 E3:0800 -  -  -  -  ;	mlt	hl
   46 E3:0800 -  -  -  -  ;	ld	a, h
   47 E3:0800 -  -  -  -  ;	ld	(vxPixelShaderUniform1), a
   48 E3:0800 0A -  -  -  	ld	a, (bc)
   49 E3:0801 B6 -  -  -  	or	(hl)
   50 E3:0802 EB -  -  -  	ex	de, hl
   51 E3:0803 B6 -  -  -  	or	(hl)
   52 E3:0804 FD 21 A8 DC 
              D1 -  -  -  	ld	iy, vxTexturePolygon	; load up correct subcall routine
   53 E3:0809 C2 E9 B5 D1 	jp	nz, vxClipTriangle
   54 E3:080D -  -  -  -  vxTextureTriangleNoClip:
   55 E3:080D 23 13 03 -  	inc	hl \ inc de \ inc bc
   56 E3:0810 1A -  -  -  	ld	a, (de)
   57 E3:0811 96 -  -  -  	sub	a, (hl)
   58 E3:0812 38 01 -  -  	jr	c, vxTextureSwap0
   59 E3:0814 EB -  -  -  	ex	de, hl
   60 E3:0815 -  -  -  -  vxTextureSwap0:
   61 E3:0815 0A -  -  -  	ld	a, (bc)
   62 E3:0816 96 -  -  -  	sub	a, (hl)
   63 E3:0817 30 06 -  -  	jr	nc, vxTextureSwap1
   64 E3:0819 E5 -  -  -  	push	hl
   65 E3:081A B7 -  -  -  	or	a, a
   66 E3:081B ED 62 -  -  	sbc	hl, hl
   67 E3:081D 09 -  -  -  	add	hl, bc
   68 E3:081E C1 -  -  -  	pop	bc
   69 E3:081F -  -  -  -  vxTextureSwap1:
   70 E3:081F 1A -  -  -  	ld	a, (de)
   71 E3:0820 96 -  -  -  	sub	a, (hl)
   72 E3:0821 30 01 -  -  	jr	nc, vxTextureSwap2
   73 E3:0823 EB -  -  -  	ex	de, hl
   74 E3:0824 -  -  -  -  vxTextureSwap2:
   75 E3:0824 0A -  -  -  	ld	a, (bc)	; is this necessary with bfc ? Nope
   76 E3:0825 96 -  -  -  	sub	(hl)		; well to be safe, keep it
   77 E3:0826 C8 -  -  -  	ret	z		;
   78 E3:0827 FD 21 03 C8 
              D1 -  -  -  	ld	iy, VX_PIXEL_SHADER_DATA	; load up shader data register
   79 E3:082C -  -  -  -  ; copy u&v to constant area
   80 E3:082C C5 -  -  -  	push	bc
   81 E3:082D D5 -  -  -  	push	de
   82 E3:082E ED 13 E0 -  	lea	de, iy-32
   83 E3:0831 01 06 00 00 	ld	bc, 6		; 1+3+2
   84 E3:0835 ED B0 -  -  	ldir
   85 E3:0837 E1 -  -  -  	pop	hl
   86 E3:0838 0E 06 -  -  	ld	c, 6
   87 E3:083A ED B0 -  -  	ldir
   88 E3:083C E1 -  -  -  	pop	hl
   89 E3:083D 0E 06 -  -  	ld	c, 6
   90 E3:083F ED B0 -  -  	ldir
   91 E3:0841 -  -  -  -  ; do e0-1
   92 E3:0841 -  -  -  -  vxRegister01Interpolation:
   93 E3:0841 FD 7E E6 -  	ld	a, (iy+VX_REGISTER_Y1)
   94 E3:0844 FD 4E E0 -  	ld	c, (iy+VX_REGISTER_Y0)
   95 E3:0847 91 -  -  -  	sub	a, c
   96 E3:0848 FD 17 E1 -  	ld	de, (iy+VX_REGISTER_X0)
   97 E3:084B 52 1B 52 13 	ld	deu,0
   98 E3:084F 06 A0 -  -  	ld	b, 160
   99 E3:0851 ED 4C -  -  	mlt	bc
  100 E3:0853 2A 14 00 E3 	ld	hl, (vxFramebuffer)
  101 E3:0857 09 -  -  -  	add	hl, bc
  102 E3:0858 09 -  -  -  	add	hl, bc
  103 E3:0859 19 -  -  -  	add	hl, de
  104 E3:085A E5 -  -  -  	push	hl				; for later, edge 0-2
  105 E3:085B 01 FF FF FF 	ld	bc, $FFFFFF
  106 E3:085F 28 59 -  -  	jr	z, vxRegister01End
  107 E3:0861 ED 44 -  -  	neg
  108 E3:0863 4F -  -  -  	ld	c, a
  109 E3:0864 D5 -  -  -  	push	de
  110 E3:0865 -  -  -  -  
  111 E3:0865 EB -  -  -  	ex	de, hl
  112 E3:0866 B7 -  -  -  	or	a, a
  113 E3:0867 ED 62 -  -  	sbc	hl, hl
  114 E3:0869 ED 52 -  -  	sbc	hl, de
  115 E3:086B EB -  -  -  	ex	de, hl
  116 E3:086C DD 21 13 ED 
              68 -  -  -  	ld	ix, vxPixelShaderLengthLUT/2
  117 E3:0871 DD 19 -  -  	add	ix, de
  118 E3:0873 D1 -  -  -  	pop	de
  119 E3:0874 FD 27 E7 -  	ld	hl, (iy+VX_REGISTER_X1)		; load x1
  120 E3:0877 52 2B 52 23 	ld	hlu, 0
  121 E3:087B 3E 2B -  -  	ld	a, $2B		; dec ix
  122 E3:087D B7 -  -  -  	or	a, a
  123 E3:087E ED 52 -  -  	sbc	hl, de		; hl = x1-x0
  124 E3:0880 30 06 -  -  	jr	nc, vxRegister01Direction
  125 E3:0882 EE 08 -  -  	xor	a, $08		; inc ix	(inverted due to <0 working function)
  126 E3:0884 19 -  -  -  	add	hl, de		;
  127 E3:0885 EB -  -  -  	ex	de, hl		;
  128 E3:0886 ED 52 -  -  	sbc	hl, de		; hl = -x1+x0
  129 E3:0888 -  -  -  -  vxRegister01Direction:
  130 E3:0888 EB -  -  -  	ex	de, hl		; de = abs(x1-x0)
  131 E3:0889 32 A7 08 E3 	ld	(vxRegister01Increment), a
  132 E3:088D -  -  -  -  vxRegister01ErrorAdvance:
  133 E3:088D -  -  -  -  ; bc = y-size, ix = adress
  134 E3:088D -  -  -  -  ; de = error
  135 E3:088D ED 73 B7 08 
              E3 -  -  -  	ld	(vxRegister01SP), sp
  136 E3:0892 31 C0 FE FF 	ld	sp, -320
  137 E3:0896 79 -  -  -  	ld	a, c
  138 E3:0897 37 -  -  -  	scf
  139 E3:0898 ED 62 -  -  	sbc	hl, hl
  140 E3:089A 6F -  -  -  	ld	l, a
  141 E3:089B ED 52 -  -  	sbc	hl, de
  142 E3:089D CB 2C -  -  	sra	h
  143 E3:089F CB 1D -  -  	rr	l
  144 E3:08A1 ED 44 -  -  	neg
  145 E3:08A3 -  -  -  -  vxRegister01Loop:
  146 E3:08A3 19 -  -  -  	add	hl, de
  147 E3:08A4 30 05 -  -  	jr	nc, vxRegister01Next
  148 E3:08A6 -  -  -  -  vxRegister01Restore:
  149 E3:08A6 DD -  -  -  	.db	$DD
  150 E3:08A7 -  -  -  -  vxRegister01Increment=$
  151 E3:08A7 00 -  -  -  	nop
  152 E3:08A8 09 -  -  -  	add	hl, bc
  153 E3:08A9 38 FB -  -  	jr	c, vxRegister01Restore
  154 E3:08AB -  -  -  -  vxRegister01Next:
  155 E3:08AB FD 3E 03 -  	ld	(iy+VX_REGISTER1), ix		; this is framebuffer adress
  156 E3:08AE DD 39 -  -  	add	ix, sp
  157 E3:08B0 ED 33 0C -  	lea	iy, iy+VX_REGISTER_SIZE
  158 E3:08B3 3D -  -  -  	dec	a
  159 E3:08B4 20 ED -  -  	jr	nz, vxRegister01Loop
  160 E3:08B6 -  -  -  -  vxRegister01SP=$+1
  161 E3:08B6 31 00 00 00 	ld	sp, $000000
  162 E3:08BA -  -  -  -  vxRegister01End:
  163 E3:08BA -  -  -  -  
  164 E3:08BA 21 E9 C7 D1 	ld	hl, VX_PIXEL_SHADER_DATA-26
  165 E3:08BE 11 EF C7 D1 	ld	de, VX_PIXEL_SHADER_DATA-20
  166 E3:08C2 -  -  -  -  
  167 E3:08C2 -  -  -  -  vxRegister11Interpolation:
  168 E3:08C2 01 FF FF FF 		ld	bc, $FFFFFF
  169 E3:08C6 -  -  -  -  	; take point0 (hl) and point1 (de), point0 is the lowest point
  170 E3:08C6 1A -  -  -  		ld	a, (de)
  171 E3:08C7 4E -  -  -  		ld	c, (hl)
  172 E3:08C8 91 -  -  -  		sub	a, c
  173 E3:08C9 28 6F -  -  		jr	z, vxRegister11End
  174 E3:08CB ED 44 -  -  		neg
  175 E3:08CD 23 -  -  -  		inc	hl
  176 E3:08CE D5 -  -  -  		push	de
  177 E3:08CF ED 17 -  -  		ld	de, (hl)
  178 E3:08D1 52 1B 52 13 		ld	deu, 0
  179 E3:08D5 D5 -  -  -  		push	de
  180 E3:08D6 69 -  -  -  		ld	l, c
  181 E3:08D7 4F -  -  -  		ld	c, a
  182 E3:08D8 26 A0 -  -  		ld	h, 160
  183 E3:08DA ED 6C -  -  		mlt	hl
  184 E3:08DC 29 -  -  -  		add	hl, hl
  185 E3:08DD 19 -  -  -  		add	hl, de
  186 E3:08DE ED 5B 14 00 
              E3 -  -  -  		ld	de, (vxFramebuffer)
  187 E3:08E3 19 -  -  -  		add	hl, de
  188 E3:08E4 EB -  -  -  		ex	de, hl
  189 E3:08E5 B7 -  -  -  		or	a, a
  190 E3:08E6 ED 62 -  -  		sbc	hl, hl
  191 E3:08E8 ED 52 -  -  		sbc	hl, de
  192 E3:08EA EB -  -  -  		ex	de, hl
  193 E3:08EB DD 21 13 ED 
              68 -  -  -  		ld	ix, vxPixelShaderLengthLUT/2
  194 E3:08F0 DD 19 -  -  		add	ix, de
  195 E3:08F2 D1 -  -  -  		pop	de
  196 E3:08F3 E1 -  -  -  		pop	hl
  197 E3:08F4 23 -  -  -  		inc	hl			; fetch x coordinate
  198 E3:08F5 ED 27 -  -  		ld	hl, (hl)		; load x1
  199 E3:08F7 52 2B 52 23 		ld	hlu, 0
  200 E3:08FB 3E 2B -  -  		ld	a, $2B		; dec ix
  201 E3:08FD B7 -  -  -  		or	a, a
  202 E3:08FE ED 52 -  -  		sbc	hl, de		; hl = x1-x0
  203 E3:0900 30 06 -  -  		jr	nc, vxRegister11Direction
  204 E3:0902 EE 08 -  -  		xor	a, $08		; inc ix	(inverted due to <0 working function)
  205 E3:0904 19 -  -  -  		add	hl, de		;
  206 E3:0905 EB -  -  -  		ex	de, hl		;
  207 E3:0906 ED 52 -  -  		sbc	hl, de		; hl = -x1+x0
  208 E3:0908 -  -  -  -  vxRegister11Direction:
  209 E3:0908 EB -  -  -  		ex	de, hl		; de = abs(x1-x0)
  210 E3:0909 32 27 09 E3 		ld	(vxRegister11Increment), a
  211 E3:090D -  -  -  -  vxRegister11ErrorAdvance:
  212 E3:090D -  -  -  -  	; bc = y-size, ix = adress
  213 E3:090D -  -  -  -  	; de = error
  214 E3:090D ED 73 37 09 
              E3 -  -  -  		ld	(vxRegister11SP), sp
  215 E3:0912 31 C0 FE FF 		ld	sp, -320
  216 E3:0916 79 -  -  -  		ld	a, c
  217 E3:0917 37 -  -  -  		scf
  218 E3:0918 ED 62 -  -  		sbc	hl, hl
  219 E3:091A 6F -  -  -  		ld	l, a
  220 E3:091B ED 52 -  -  		sbc	hl, de
  221 E3:091D CB 2C -  -  		sra	h
  222 E3:091F CB 1D -  -  		rr	l
  223 E3:0921 ED 44 -  -  		neg
  224 E3:0923 -  -  -  -  vxRegister11Loop:
  225 E3:0923 19 -  -  -  		add	hl, de
  226 E3:0924 30 05 -  -  		jr	nc, vxRegister11Next
  227 E3:0926 -  -  -  -  vxRegister11Restore:
  228 E3:0926 DD -  -  -  		.db	$DD
  229 E3:0927 -  -  -  -  vxRegister11Increment=$
  230 E3:0927 00 -  -  -  		nop
  231 E3:0928 09 -  -  -  		add	hl, bc
  232 E3:0929 38 FB -  -  		jr	c, vxRegister11Restore
  233 E3:092B -  -  -  -  vxRegister11Next:
  234 E3:092B FD 3E 03 -  		ld	(iy+VX_REGISTER1), ix		; this is framebuffer adress
  235 E3:092E DD 39 -  -  		add	ix, sp
  236 E3:0930 ED 33 0C -  		lea	iy, iy+VX_REGISTER_SIZE
  237 E3:0933 3D -  -  -  		dec	a
  238 E3:0934 20 ED -  -  		jr	nz, vxRegister11Loop
  239 E3:0936 -  -  -  -  vxRegister11SP=$+1
  240 E3:0936 31 00 00 00 		ld	sp, $000000
  241 E3:093A -  -  -  -  vxRegister11End:
  242 E3:093A -  -  -  -  
  243 E3:093A FD 21 03 C8 
              D1 -  -  -  	ld	iy, VX_PIXEL_SHADER_DATA	; load up shader data register
  244 E3:093F 01 FF FF FF 	ld	bc, $FFFFFF	; not necessarily here if exit with a bc < 0 previously, may be removed (end micro-opt)
  245 E3:0943 -  -  -  -  vxRegister0Interpolation:
  246 E3:0943 -  -  -  -  ; take point0 (hl) and point1 (de), point0 is the lowest point
  247 E3:0943 FD 7E EC -  	ld	a, (iy+VX_REGISTER_Y2)
  248 E3:0946 FD 4E E0 -  	ld	c, (iy+VX_REGISTER_Y0)
  249 E3:0949 91 -  -  -  	sub	a, c
  250 E3:094A ED 44 -  -  	neg
  251 E3:094C FD 17 E1 -  	ld	de, (iy+VX_REGISTER_X0)
  252 E3:094F 52 1B 52 13 	ld	deu, 0
  253 E3:0953 4F -  -  -  	ld	c, a
  254 E3:0954 DD E1 -  -  	pop	ix
  255 E3:0956 -  -  -  -  
  256 E3:0956 FD 27 ED -  	ld	hl, (iy+VX_REGISTER_X2)		; load x1
  257 E3:0959 52 2B 52 23 	ld	hlu, 0
  258 E3:095D E5 -  -  -  	push	hl
  259 E3:095E 3E 23 -  -  	ld	a, $23		; inc ix
  260 E3:0960 B7 -  -  -  	or	a, a
  261 E3:0961 ED 52 -  -  	sbc	hl, de		; hl = x1-x0
  262 E3:0963 30 06 -  -  	jr	nc, vxRegister0Direction
  263 E3:0965 F6 08 -  -  	or	a, $08		; dec ix
  264 E3:0967 19 -  -  -  	add	hl, de		;
  265 E3:0968 EB -  -  -  	ex	de, hl		;
  266 E3:0969 ED 52 -  -  	sbc	hl, de		; hl = -x1+x0
  267 E3:096B -  -  -  -  vxRegister0Direction:
  268 E3:096B EB -  -  -  	ex	de, hl		; de = abs(x1-x0)
  269 E3:096C 32 8A 09 E3 	ld	(vxRegister0Increment), a
  270 E3:0970 -  -  -  -  vxRegister0ErrorAdvance:
  271 E3:0970 -  -  -  -  ; bc = y-size, ix = adress
  272 E3:0970 -  -  -  -  ; de= error
  273 E3:0970 ED 73 9A 09 
              E3 -  -  -  	ld	(vxRegister0SP), sp
  274 E3:0975 31 40 01 00 	ld	sp, 320
  275 E3:0979 79 -  -  -  	ld	a, c
  276 E3:097A 37 -  -  -  	scf
  277 E3:097B ED 62 -  -  	sbc	hl, hl
  278 E3:097D 6F -  -  -  	ld	l, a
  279 E3:097E ED 52 -  -  	sbc	hl, de
  280 E3:0980 CB 2C -  -  	sra	h
  281 E3:0982 CB 1D -  -  	rr	l
  282 E3:0984 ED 44 -  -  	neg
  283 E3:0986 -  -  -  -  vxRegister0Loop:
  284 E3:0986 19 -  -  -  	add	hl, de
  285 E3:0987 30 05 -  -  	jr	nc, vxRegister0Next
  286 E3:0989 -  -  -  -  vxRegister0Restore:
  287 E3:0989 DD -  -  -  	.db	$DD
  288 E3:098A -  -  -  -  vxRegister0Increment=$
  289 E3:098A 00 -  -  -  	nop
  290 E3:098B 09 -  -  -  	add	hl, bc
  291 E3:098C 38 FB -  -  	jr	c, vxRegister0Restore
  292 E3:098E -  -  -  -  vxRegister0Next:
  293 E3:098E FD 3E 00 -  	ld	(iy+VX_REGISTER0), ix		; this is framebuffer adress
  294 E3:0991 DD 39 -  -  	add	ix, sp
  295 E3:0993 ED 33 0C -  	lea	iy, iy+VX_REGISTER_SIZE
  296 E3:0996 3D -  -  -  	dec	a
  297 E3:0997 20 ED -  -  	jr	nz, vxRegister0Loop
  298 E3:0999 -  -  -  -  ; magic end bytes - write x2 ?
  299 E3:0999 -  -  -  -  vxRegister0SP=$+1
  300 E3:0999 31 00 00 00 	ld	sp, $000000
  301 E3:099D C1 -  -  -  	pop	bc
  302 E3:099E -  -  -  -  
  303 E3:099E FD 0F 00 -  	ld	(iy+VX_REGISTER0), bc
  304 E3:09A1 21 53 EE 68 	ld	hl, vxPixelShaderExitLUT/2
  305 E3:09A5 ED 42 -  -  	sbc hl,bc
  306 E3:09A7 FD 2F 03 -  	ld	(iy+VX_REGISTER1), hl
  307 E3:09AA -  -  -  -  vxRegister0End:
  308 E3:09AA -  -  -  -  
  309 E3:09AA -  -  -  -  ; compute dudy
  310 E3:09AA -  -  -  -  ; compute dudx
  311 E3:09AA -  -  -  -  ; compute dvdy
  312 E3:09AA -  -  -  -  ; compute dvdx
  313 E3:09AA -  -  -  -  ; offset and compute register2&3
  314 E3:09AA -  -  -  -  vxRegisterDerivative:
  315 E3:09AA FD 21 03 C8 
              D1 -  -  -  	ld	iy, VX_PIXEL_SHADER_DATA
  316 E3:09AF ED 23 E0 -  	lea hl, iy+VX_REGISTER_Y0
  317 E3:09B2 ED 13 E6 -  	lea de, iy+VX_REGISTER_Y1
  318 E3:09B5 ED 03 EC -  	lea bc, iy+VX_REGISTER_Y2
  319 E3:09B8 -  -  -  -  
  320 E3:09B8 -  -  -  -  ; compute dxdv,dydv and dxdu,dydu
  321 E3:09B8 -  -  -  -  ; (hl), (de), (bc) = point0, 1,2
  322 E3:09B8 1A -  -  -  	ld	a, (de)
  323 E3:09B9 96 -  -  -  	sub	a, (hl)
  324 E3:09BA 32 DD 09 E3 	ld	(vxRegisterDerivativeDY0), a
  325 E3:09BE 32 42 0A E3 	ld	(vxRegisterDerivativeDY1), a
  326 E3:09C2 32 A2 0A E3 	ld	(vxRegisterDerivativeDY2), a
  327 E3:09C6 -  -  -  -  
  328 E3:09C6 0A -  -  -  	ld	a, (bc)
  329 E3:09C7 96 -  -  -  	sub	(hl)
  330 E3:09C8 F5 -  -  -  	push	af
  331 E3:09C9 ED 62 -  -  	sbc	hl, hl
  332 E3:09CB 6F -  -  -  	ld	l, a
  333 E3:09CC 29 -  -  -  	add	hl, hl
  334 E3:09CD 0A -  -  -  	ld	a, (bc)
  335 E3:09CE 01 D3 DC D1 	ld	bc, VX_INVERSE_TABLE
  336 E3:09D2 09 -  -  -  	add	hl, bc
  337 E3:09D3 ED 27 -  -  	ld	hl, (hl)
  338 E3:09D5 52 23 -  -  	inc.s	hl	; essential, table have (value-1)
  339 E3:09D7 -  -  -  -  ; hl = 65536/(y2-y0)
  340 E3:09D7 -  -  -  -  ; FIXME : SAVE HL HERE FOR LATER
  341 E3:09D7 E5 -  -  -  	push	hl
  342 E3:09D8 EB -  -  -  	ex	de, hl
  343 E3:09D9 56 -  -  -  	ld	d, (hl)	; substracted by y0 else it isn't correct
  344 E3:09DA 92 -  -  -  	sub	a, d
  345 E3:09DB 7A -  -  -  	ld	a, d
  346 E3:09DC -  -  -  -  vxRegisterDerivativeDY0=$+1
  347 E3:09DC 16 00 -  -  	ld	d, $00
  348 E3:09DE 1E 0C -  -  	ld	e, 12
  349 E3:09E0 ED 5C -  -  	mlt	de
  350 E3:09E2 FD 19 -  -  	add	iy, de	; doesn't modify z
  351 E3:09E4 -  -  -  -  ; (iy) register0 hold y*320+x+framebuffer (or x2), register2 and 3 hold value u and v
  352 E3:09E4 -  -  -  -  ; I have x1 ready too. If z flag set, y1=y2
  353 E3:09E4 23 -  -  -  	inc	hl
  354 E3:09E5 ED 27 -  -  	ld hl,(hl)
  355 E3:09E7 52 2B 52 23 	ld hlu, 0
  356 E3:09EB 28 0D -  -  	jr z, vxRegisterDerivativeNull
  357 E3:09ED 5F -  -  -  	ld e, a
  358 E3:09EE 16 A0 -  -  	ld d, 160
  359 E3:09F0 ED 5C -  -  	mlt	de
  360 E3:09F2 19 -  -  -  	add hl, de
  361 E3:09F3 19 -  -  -  	add	hl, de
  362 E3:09F4 ED 5B 14 00 
              E3 -  -  -  	ld	de, (vxFramebuffer)
  363 E3:09F9 19 -  -  -  	add	hl, de
  364 E3:09FA -  -  -  -  vxRegisterDerivativeNull:
  365 E3:09FA FD 17 00 -  	ld	de, (iy+VX_REGISTER0)
  366 E3:09FD 3E 13 -  -  	ld	a, $13
  367 E3:09FF B7 -  -  -  	or	a, a
  368 E3:0A00 ED 52 -  -  	sbc	hl, de		; x1-rx
  369 E3:0A02 -  -  -  -  ; I have here interpolated dx=x1-rx value, sign is correct
  370 E3:0A02 -  -  -  -  ; if dx < 0, make abs() and change to dec de mode (rx is at right, x1 is at left) ;; ISSUE 1 : need to correct sign based on sign of X ?
  371 E3:0A02 F2 0D 0A E3 	jp	p, vxRegisterDerivativeAbs
  372 E3:0A06 EB -  -  -  	ex	de, hl
  373 E3:0A07 F6 08 -  -  	or	a, $08
  374 E3:0A09 ED 62 -  -  	sbc	hl, hl
  375 E3:0A0B ED 52 -  -  	sbc hl, de
  376 E3:0A0D -  -  -  -  vxRegisterDerivativeAbs:
  377 E3:0A0D -  -  -  -  ; write inc/dec
  378 E3:0A0D FD 21 03 C8 
              D1 -  -  -  	ld	iy, VX_PIXEL_SHADER_DATA
  379 E3:0A12 32 19 00 E1 	ld	(VX_PIXEL_SHADER_SUBSIZE-1+VX_PIXEL_SHADER_CODE), a
  380 E3:0A16 32 23 00 E1 	ld	(VX_PIXEL_SHADER_SUBSIZE*2-1+VX_PIXEL_SHADER_CODE), a
  381 E3:0A1A 29 -  -  -  	add	hl, hl
  382 E3:0A1B 09 -  -  -  	add	hl, bc		; bc =VX_INVERE_TABLE
  383 E3:0A1C ED 27 -  -  	ld	hl, (hl)
  384 E3:0A1E 52 23 -  -  	inc.s	hl	; essential, table have (value-1)
  385 E3:0A20 -  -  -  -  ; FIXME SAVE HL AND RESTORE PREVIOUS HL
  386 E3:0A20 E3 -  -  -  	ex	(sp), hl
  387 E3:0A21 EB -  -  -  	ex	de, hl
  388 E3:0A22 -  -  -  -  ; de = ratio
  389 E3:0A22 FD 7E F0 -  	ld	a, (iy+VX_REGISTER_V2)
  390 E3:0A25 FD 96 E4 -  	sub	(iy+VX_REGISTER_V0)
  391 E3:0A28 62 -  -  -  	ld	h, d
  392 E3:0A29 6F -  -  -  	ld	l, a
  393 E3:0A2A ED 6C -  -  	mlt	hl
  394 E3:0A2C 30 03 -  -  	jr	nc, $+5
  395 E3:0A2E B7 -  -  -  	or	a, a
  396 E3:0A2F ED 52 -  -  	sbc	hl, de
  397 E3:0A31 43 -  -  -  	ld	b, e
  398 E3:0A32 4F -  -  -  	ld	c, a
  399 E3:0A33 ED 4C -  -  	mlt	bc
  400 E3:0A35 48 -  -  -  	ld	c, b
  401 E3:0A36 06 00 -  -  	ld	b, 0
  402 E3:0A38 09 -  -  -  	add	hl, bc
  403 E3:0A39 FD 2F F4 -  	ld	(iy+VX_FDVDY), hl
  404 E3:0A3C -  -  -  -  ; de = du/dy
  405 E3:0A3C -  -  -  -  ; now do hl*(y1-y0)/256
  406 E3:0A3C -  -  -  -  ; hl is fixed point 8.8 signed, a is unsigned.
  407 E3:0A3C EB -  -  -  	ex	de, hl
  408 E3:0A3D E3 -  -  -  	ex	(sp), hl
  409 E3:0A3E EB -  -  -  	ex	de, hl
  410 E3:0A3F CB 7C -  -  	bit	7, h		;check sign of ratio
  411 E3:0A41 -  -  -  -  ; de = new ratio
  412 E3:0A41 -  -  -  -  vxRegisterDerivativeDY1=$+1
  413 E3:0A41 3E 00 -  -  	ld	a, 0
  414 E3:0A43 47 -  -  -  	ld	b, a
  415 E3:0A44 4C -  -  -  	ld	c, h
  416 E3:0A45 ED 4C -  -  	mlt	bc
  417 E3:0A47 CB 14 -  -  	rl	h
  418 E3:0A49 67 -  -  -  	ld	h, a
  419 E3:0A4A 30 03 -  -  	jr	nc, $+5
  420 E3:0A4C 2F -  -  -  	cpl
  421 E3:0A4D 88 -  -  -  	adc	a, b
  422 E3:0A4E 47 -  -  -  	ld	b, a
  423 E3:0A4F ED 6C -  -  	mlt	hl
  424 E3:0A51 6C -  -  -  	ld	l, h
  425 E3:0A52 26 00 -  -  	ld	h, 0
  426 E3:0A54 09 -  -  -  	add	hl, bc
  427 E3:0A55 -  -  -  -  ; interesting value is l
  428 E3:0A55 FD 4E E4 -  	ld	c, (iy+VX_REGISTER_V0)
  429 E3:0A58 06 00 -  -  	ld	b, 0
  430 E3:0A5A 09 -  -  -  	add	hl, bc
  431 E3:0A5B CB 7C -  -  	bit	7, h
  432 E3:0A5D 28 02 -  -  	jr	z, $+4
  433 E3:0A5F 2E 00 -  -  	ld	l, 0
  434 E3:0A61 -  -  -  -  ; in theory the value here is >0
  435 E3:0A61 FD 7E EA -  	ld	a, (iy+VX_REGISTER_V1)
  436 E3:0A64 95 -  -  -  	sub	a, l
  437 E3:0A65 62 -  -  -  	ld	h, d
  438 E3:0A66 6F -  -  -  	ld	l, a
  439 E3:0A67 ED 6C -  -  	mlt	hl
  440 E3:0A69 30 03 -  -  	jr	nc, $+5
  441 E3:0A6B B7 -  -  -  	or	a, a
  442 E3:0A6C ED 52 -  -  	sbc	hl, de
  443 E3:0A6E 43 -  -  -  	ld	b, e
  444 E3:0A6F 4F -  -  -  	ld	c, a
  445 E3:0A70 ED 4C -  -  	mlt	bc
  446 E3:0A72 -  -  -  -  ; divide by 256
  447 E3:0A72 48 -  -  -  	ld	c, b
  448 E3:0A73 06 00 -  -  	ld	b, 0
  449 E3:0A75 09 -  -  -  	add	hl, bc
  450 E3:0A76 FD 2F FA -  	ld	(iy+VX_FDVDX), hl
  451 E3:0A79 -  -  -  -  
  452 E3:0A79 EB -  -  -  	ex	de, hl
  453 E3:0A7A E3 -  -  -  	ex	(sp), hl
  454 E3:0A7B EB -  -  -  	ex	de, hl
  455 E3:0A7C -  -  -  -  ; now compute gradient for v paramater
  456 E3:0A7C FD 7E EF -  	ld	a, (iy+VX_REGISTER_U2)
  457 E3:0A7F FD 96 E3 -  	sub	(iy+VX_REGISTER_U0)
  458 E3:0A82 62 -  -  -  	ld	h, d
  459 E3:0A83 6F -  -  -  	ld	l, a
  460 E3:0A84 ED 6C -  -  	mlt	hl
  461 E3:0A86 30 03 -  -  	jr	nc, $+5
  462 E3:0A88 B7 -  -  -  	or	a, a
  463 E3:0A89 ED 52 -  -  	sbc	hl, de
  464 E3:0A8B 43 -  -  -  	ld	b, e
  465 E3:0A8C 4F -  -  -  	ld	c, a
  466 E3:0A8D ED 4C -  -  	mlt	bc
  467 E3:0A8F 48 -  -  -  	ld	c, b
  468 E3:0A90 06 00 -  -  	ld	b, 0
  469 E3:0A92 52 09 -  -  	add.s	hl, bc
  470 E3:0A94 FD 17 F4 -  	ld	de, (iy+VX_FDVDY)
  471 E3:0A97 CB 7A -  -  	bit	7, d
  472 E3:0A99 28 02 -  -  	jr	z, $+4
  473 E3:0A9B 52 2B -  -  	dec.s	hl
  474 E3:0A9D FD 2F F6 -  	ld	(iy+VX_FDUDY), hl
  475 E3:0AA0 D1 -  -  -  	pop	de
  476 E3:0AA1 -  -  -  -  ; hl = dv/dy
  477 E3:0AA1 -  -  -  -  ; now do hl*(y1-y0)/256
  478 E3:0AA1 -  -  -  -  ; hl is fixed point 8.8 signed, a is unsigned.
  479 E3:0AA1 -  -  -  -  ; de = new ratio
  480 E3:0AA1 -  -  -  -  vxRegisterDerivativeDY2=$+1
  481 E3:0AA1 3E 00 -  -  	ld	a, 0
  482 E3:0AA3 -  -  -  -  
  483 E3:0AA3 47 -  -  -  	ld	b, a
  484 E3:0AA4 4C -  -  -  	ld	c, h
  485 E3:0AA5 ED 4C -  -  	mlt	bc
  486 E3:0AA7 CB 14 -  -  	rl	h
  487 E3:0AA9 67 -  -  -  	ld	h, a
  488 E3:0AAA 30 03 -  -  	jr	nc, $+5
  489 E3:0AAC 2F -  -  -  	cpl
  490 E3:0AAD 88 -  -  -  	adc	a, b
  491 E3:0AAE 47 -  -  -  	ld	b, a
  492 E3:0AAF ED 6C -  -  	mlt	hl
  493 E3:0AB1 6C -  -  -  	ld	l, h
  494 E3:0AB2 26 00 -  -  	ld	h, 0
  495 E3:0AB4 09 -  -  -  	add	hl, bc
  496 E3:0AB5 -  -  -  -  ; interesting value is l
  497 E3:0AB5 FD 4E E3 -  	ld	c, (iy+VX_REGISTER_U0)
  498 E3:0AB8 06 00 -  -  	ld	b, 0
  499 E3:0ABA 09 -  -  -  	add	hl, bc
  500 E3:0ABB CB 7C -  -  	bit	7, h
  501 E3:0ABD 28 02 -  -  	jr	z, $+4
  502 E3:0ABF 2E 00 -  -  	ld	l, 0
  503 E3:0AC1 FD 7E E9 -  	ld	a, (iy+VX_REGISTER_U1)
  504 E3:0AC4 95 -  -  -  	sub	a, l
  505 E3:0AC5 62 -  -  -  	ld	h, d
  506 E3:0AC6 6F -  -  -  	ld	l, a
  507 E3:0AC7 ED 6C -  -  	mlt	hl
  508 E3:0AC9 30 03 -  -  	jr	nc, $+5
  509 E3:0ACB B7 -  -  -  	or	a, a
  510 E3:0ACC ED 52 -  -  	sbc	hl, de
  511 E3:0ACE 43 -  -  -  	ld	b, e
  512 E3:0ACF 4F -  -  -  	ld	c, a
  513 E3:0AD0 ED 4C -  -  	mlt	bc
  514 E3:0AD2 -  -  -  -  ; divide by 256
  515 E3:0AD2 48 -  -  -  	ld	c, b
  516 E3:0AD3 06 00 -  -  	ld	b, 0
  517 E3:0AD5 52 09 -  -  	add.s	hl, bc
  518 E3:0AD7 -  -  -  -  ; sign correction for interpolation
  519 E3:0AD7 FD 17 FA -  	ld	de, (iy+VX_FDVDX)
  520 E3:0ADA CB 7A -  -  	bit	7, d
  521 E3:0ADC 28 02 -  -  	jr	z, $+4
  522 E3:0ADE 52 2B -  -  	dec.s	hl
  523 E3:0AE0 FD 2F FC -  	ld	(iy+VX_FDUDX), hl
  524 E3:0AE3 -  -  -  -  ; interpolate u,v register2 and register3, and initialise drawing
  525 E3:0AE3 -  -  -  -  
  526 E3:0AE3 -  -  -  -  ; hl = u0*256+(dudy+dudx)/2, ix=v0*256+(dvdy+dvdx)/2
  527 E3:0AE3 FD 27 F4 -  	ld	hl, (iy+VX_FDVDY)
  528 E3:0AE6 FD 17 FA -  	ld	de, (iy+VX_FDVDX)
  529 E3:0AE9 52 19 -  -  	add.s	hl, de
  530 E3:0AEB CB 2C CB 1D 	sra	h \ rr l
  531 E3:0AEF EB -  -  -  	ex	de, hl
  532 E3:0AF0 FD 27 F6 -  	ld	hl, (iy+VX_FDUDY)
  533 E3:0AF3 FD 07 FC -  	ld	bc, (iy+VX_FDUDX)
  534 E3:0AF6 52 09 -  -  	add.s	hl, bc
  535 E3:0AF8 CB 2C CB 1D 	sra	h \ rr  l
  536 E3:0AFC 7D -  -  -  	ld	a, l
  537 E3:0AFD 32 0F 0B E3 	ld	(vxShaderOffset+2), a
  538 E3:0B01 7C -  -  -  	ld	a, h
  539 E3:0B02 -  -  -  -  
  540 E3:0B02 -  -  -  -  vxShaderTexturePage=$+1
  541 E3:0B02 21 00 00 D3 	ld	hl, $D30000
  542 E3:0B06 FD 6E E3 -  	ld	l, (iy+VX_REGISTER_U0)
  543 E3:0B09 85 -  -  -  	add	a, l
  544 E3:0B0A 6F -  -  -  	ld	l, a
  545 E3:0B0B -  -  -  -  vxShaderOffset=$+2
  546 E3:0B0B DD 21 00 00 
              00 -  -  -  	ld	ix, $000000
  547 E3:0B10 FD 7E E4 -  	ld	a, (iy+VX_REGISTER_V0)
  548 E3:0B13 82 -  -  -  	add	a, d
  549 E3:0B14 DD 67 -  -  	ld	ixh, a
  550 E3:0B16 DD 6B -  -  	ld	ixl, e
  551 E3:0B18 -  -  -  -  ; load de and bc
  552 E3:0B18 FD 07 F4 -  	ld	bc, (iy+VX_FDVDY)
  553 E3:0B1B FD 17 F7 -  	ld	de, (iy+VX_FDUDY+1)
  554 E3:0B1E -  -  -  -  ; ready to interpolate
  555 E3:0B1E F1 -  -  -  	pop	af
  556 E3:0B1F -  -  -  -  vxRegisterGradientLoop:
  557 E3:0B1F FD 3E 06 -  	ld	(iy+VX_REGISTER2), ix
  558 E3:0B22 FD 2F 09 -  	ld	(iy+VX_REGISTER3), hl
  559 E3:0B25 DD 09 -  -  	add	ix, bc	; v interpolation on y
  560 E3:0B27 ED 5A -  -  	adc	hl, de	; u interpolation on y
  561 E3:0B29 3D -  -  -  	dec	a
  562 E3:0B2A 28 10 -  -  	jr	z, vxRegisterGradientEnd
  563 E3:0B2C FD 3E 12 -  	ld	(iy+VX_REGISTER2+VX_REGISTER_SIZE), ix
  564 E3:0B2F FD 2F 15 -  	ld	(iy+VX_REGISTER3+VX_REGISTER_SIZE), hl
  565 E3:0B32 DD 09 -  -  	add	ix, bc	; v interpolation on y
  566 E3:0B34 ED 5A -  -  	adc	hl, de	; u interpolation on y
  567 E3:0B36 ED 33 18 -  	lea	iy, iy+(VX_REGISTER_SIZE*2)
  568 E3:0B39 3D -  -  -  	dec	a
  569 E3:0B3A 20 E3 -  -  	jr	nz, vxRegisterGradientLoop
  570 E3:0B3C -  -  -  -  vxRegisterGradientEnd:
  571 E3:0B3C -  -  -  -  ; initialise drawing
  572 E3:0B3C DD 21 10 00 
              E1 -  -  -  	ld	ix, VX_PIXEL_SHADER_CODE
  573 E3:0B41 FD 21 03 C8 
              D1 -  -  -  	ld	iy, VX_PIXEL_SHADER_DATA
  574 E3:0B46 -  -  -  -  ; hl'= texture page and accumulator for dux	LOADED
  575 E3:0B46 -  -  -  -  ; de'= low byte is dux											INIT
  576 E3:0B46 -  -  -  -  ; sp = dux*65536+dvx												INIT
  577 E3:0B46 -  -  -  -  ; bc'= undefined														INIT
  578 E3:0B46 -  -  -  -  ; hl = accumulator for dux									LOADED
  579 E3:0B46 -  -  -  -  ; de = screen adress												LOADED
  580 E3:0B46 -  -  -  -  ; bc = djnz size														LOADED
  581 E3:0B46 ED 73 5C 0B 
              E3 -  -  -  	ld	(vxPixelShaderExit+1), sp
  582 E3:0B4B -  -  -  -  vxShaderUniform0=$+1
  583 E3:0B4B 01 00 00 D0 	ld	bc, VX_PIXEL_SHADER_CONSTANT
  584 E3:0B4F FD 27 FA -  	ld	hl, (iy+VX_FDVDX)
  585 E3:0B52 F9 -  -  -  	ld	sp, hl
  586 E3:0B53 FD 17 FD -  	ld	de, (iy+VX_FDUDX+1)
  587 E3:0B56 D9 -  -  -  	exx
  588 E3:0B57 C3 26 00 E1 	jp	vxShaderGeneralInterpolation
  589 E3:0B5B -  -  -  -  vxPixelShaderExit:
  590 E3:0B5B 31 00 00 00 	ld	sp, $000000
  591 E3:0B5F C9 -  -  -  	ret
  592 E3:0B60 -  -  -  -  
  593 E3:0B60 -  -  -  -  .endrelocate
Listing for file "include\\relocate.inc"
Listing for file "C:\Users\Zeromus\Documents\GitHub\Virtual3D\vxShaderInterpolation.ez80"
  594 D1:D763 -  -  -  -  
  595 D1:D763 -  -  -  -  #include "vxPixelShader.inc"
Listing for file "C:\Users\Zeromus\Documents\GitHub\Virtual3D\vxPixelShader.inc"
    1 D1:D763 -  -  -  -  #define	VX_PIXEL_SHADER_CODE		$E10010
    2 D1:D763 -  -  -  -  #define	VX_PIXEL_SHADER_SIZE		64
    3 D1:D763 -  -  -  -  #define	VX_PIXEL_SHADER_CONSTANT	$D00000
    4 D1:D763 -  -  -  -  #define	VX_PIXEL_SHADER_SUBSIZE	10
    5 D1:D763 -  -  -  -  
    6 D1:D763 -  -  -  -  #define	VX_REGISTER_SIZE			12
    7 D1:D763 -  -  -  -  #define	VX_REGISTER0			0
    8 D1:D763 -  -  -  -  #define	VX_REGISTER1			3
    9 D1:D763 -  -  -  -  #define	VX_REGISTER2			6
   10 D1:D763 -  -  -  -  #define	VX_REGISTER3			9
   11 D1:D763 -  -  -  -  
   12 D1:D763 -  -  -  -  ; locate write area as vxPixelShader + SUB_SIZE - 1, 1 byte to write
   13 D1:D763 -  -  -  -  ; for killing pixel, do a jr cc,$+3 for ld, jr cc, $+5 for other
   14 D1:D763 -  -  -  -  
   15 D1:D763 -  -  -  -  
   16 D1:D763 -  -  -  -  VX_PIXEL_SHADER_COPY:
   17 D1:D763 -  -  -  -  
   18 D1:D763 -  -  -  -  .relocate	VX_PIXEL_SHADER_CODE
Listing for file "C:\Users\Zeromus\Documents\GitHub\Virtual3D\vxPixelShader.inc"
   19 E1:0010 -  -  -  -  
   20 E1:0010 -  -  -  -  vxPixelShader:
   21 E1:0010 7C -  -  -  	ld	a, h
   22 E1:0011 39 -  -  -  	add	hl, sp
   23 E1:0012 D9 -  -  -  	exx
   24 E1:0013 67 -  -  -  	ld	h, a
   25 E1:0014 -  -  -  -  ;	ld	c, (hl)
   26 E1:0014 7E -  -  -  	ld	a, (hl)
   27 E1:0015 ED 5A -  -  	adc	hl, de
   28 E1:0017 -  -  -  -  ;	ld	a, c
   29 E1:0017 -  -  -  -  ;	cp	$FF
   30 E1:0017 -  -  -  -  ;	ld	a, (bc)
   31 E1:0017 D9 -  -  -  	exx
   32 E1:0018 -  -  -  -  ;	jr	z, $+3
   33 E1:0018 12 13 -  -  	ldi	(de), a
   34 E1:001A 7C -  -  -  	ld	a, h
   35 E1:001B 39 -  -  -  	add	hl, sp
   36 E1:001C D9 -  -  -  	exx
   37 E1:001D 67 -  -  -  	ld	h, a
   38 E1:001E -  -  -  -  ;	ld	c, (hl)
   39 E1:001E 7E -  -  -  	ld	a, (hl)
   40 E1:001F ED 5A -  -  	adc	hl, de
   41 E1:0021 -  -  -  -  ;	ld	a, c
   42 E1:0021 -  -  -  -  ;	cp	$FF
   43 E1:0021 -  -  -  -  ;	ld	a, (bc)
   44 E1:0021 D9 -  -  -  	exx
   45 E1:0022 -  -  -  -  ;	jr	z, $+3
   46 E1:0022 12 13 -  -  	ldi	(de), a
   47 E1:0024 10 EA -  -  	djnz	vxPixelShader
   48 E1:0026 -  -  -  -  vxShaderGeneralInterpolation:
   49 E1:0026 FD 27 03 -  	ld	hl, (iy+VX_REGISTER1)
   50 E1:0029 FD 17 00 -  	ld	de, (iy+VX_REGISTER0)
   51 E1:002C 19 -  -  -  	add	hl, de
   52 E1:002D 29 -  -  -  	add	hl, hl
   53 E1:002E 7E -  -  -  	ld	a, (hl)
   54 E1:002F DD 6F -  -  	ld	ixl, a
   55 E1:0031 23 -  -  -  	inc	hl
   56 E1:0032 46 -  -  -  	ld	b, (hl)
   57 E1:0033 FD 27 06 -  	ld	hl, (iy+VX_REGISTER2)	; v
   58 E1:0036 D9 -  -  -  	exx
   59 E1:0037 FD 27 09 -  	ld	hl, (iy+VX_REGISTER3)	; u
   60 E1:003A D9 -  -  -  	exx
   61 E1:003B ED 33 0C -  	lea	iy, iy+VX_REGISTER_SIZE
   62 E1:003E DD E9 -  -  	jp	(ix)
   63 E1:0040 00 00 00 00 
              00 00 00 00 
              00 00 00 00 .align $E1004C
   64 E1:004C C3 5B 0B E3 	jp	vxPixelShaderExit
   65 E1:0050 -  -  -  -  ; exactly 64 bytes
   66 E1:0050 -  -  -  -  
   67 E1:0050 -  -  -  -  .endrelocate
Listing for file "include\\relocate.inc"
Listing for file "C:\Users\Zeromus\Documents\GitHub\Virtual3D\vxPixelShader.inc"
   68 D1:D7A3 -  -  -  -  
   69 D1:D7A3 -  -  -  -  #define	VX_CALL0_POS	(VX_PIXEL_SHADER_SUBSIZE*2-1+VX_PIXEL_SHADER_CODE)%256
   70 D1:D7A3 -  -  -  -  #define	VX_CALL1_POS	(VX_PIXEL_SHADER_SUBSIZE-1+VX_PIXEL_SHADER_CODE)%256
   71 D1:D7A3 -  -  -  -  #define	VX_CALL_NULL	((VX_PIXEL_SHADER_SUBSIZE+1)*2+VX_PIXEL_SHADER_CODE)%256
   72 D1:D7A3 -  -  -  -  #define	VX_CALL1_NEG	(VX_PIXEL_SHADER_SUBSIZE+VX_PIXEL_SHADER_CODE)%256
   73 D1:D7A3 -  -  -  -  #define	VX_CALL0_NEG	(VX_PIXEL_SHADER_CODE)%256
   74 D1:D7A3 -  -  -  -  #define	VX_CALL_EXIT	(VX_PIXEL_SHADER_CODE+60)%256
   75 D1:D7A3 -  -  -  -  
   76 D1:D7A3 -  -  -  -  ; pad to two bytes
   77 D1:D7A3 00 -  -  -     .align  2
   78 D1:D7A4 1A A1 -  -     .db VX_CALL1_NEG, 161
   79 D1:D7A6 10 A0 -  -     .db VX_CALL0_NEG, 160
   80 D1:D7A8 1A A0 -  -     .db VX_CALL1_NEG, 160
   81 D1:D7AA 10 9F -  -     .db VX_CALL0_NEG, 159
   82 D1:D7AC 1A 9F -  -     .db VX_CALL1_NEG, 159
   83 D1:D7AE 10 9E -  -     .db VX_CALL0_NEG, 158
   84 D1:D7B0 1A 9E -  -     .db VX_CALL1_NEG, 158
   85 D1:D7B2 10 9D -  -     .db VX_CALL0_NEG, 157
   86 D1:D7B4 1A 9D -  -     .db VX_CALL1_NEG, 157
   87 D1:D7B6 10 9C -  -     .db VX_CALL0_NEG, 156
   88 D1:D7B8 1A 9C -  -     .db VX_CALL1_NEG, 156
   89 D1:D7BA 10 9B -  -     .db VX_CALL0_NEG, 155
   90 D1:D7BC 1A 9B -  -     .db VX_CALL1_NEG, 155
   91 D1:D7BE 10 9A -  -     .db VX_CALL0_NEG, 154
   92 D1:D7C0 1A 9A -  -     .db VX_CALL1_NEG, 154
   93 D1:D7C2 10 99 -  -     .db VX_CALL0_NEG, 153
   94 D1:D7C4 1A 99 -  -     .db VX_CALL1_NEG, 153
   95 D1:D7C6 10 98 -  -     .db VX_CALL0_NEG, 152
   96 D1:D7C8 1A 98 -  -     .db VX_CALL1_NEG, 152
   97 D1:D7CA 10 97 -  -     .db VX_CALL0_NEG, 151
   98 D1:D7CC 1A 97 -  -     .db VX_CALL1_NEG, 151
   99 D1:D7CE 10 96 -  -     .db VX_CALL0_NEG, 150
  100 D1:D7D0 1A 96 -  -     .db VX_CALL1_NEG, 150
  101 D1:D7D2 10 95 -  -     .db VX_CALL0_NEG, 149
  102 D1:D7D4 1A 95 -  -     .db VX_CALL1_NEG, 149
  103 D1:D7D6 10 94 -  -     .db VX_CALL0_NEG, 148
  104 D1:D7D8 1A 94 -  -     .db VX_CALL1_NEG, 148
  105 D1:D7DA 10 93 -  -     .db VX_CALL0_NEG, 147
  106 D1:D7DC 1A 93 -  -     .db VX_CALL1_NEG, 147
  107 D1:D7DE 10 92 -  -     .db VX_CALL0_NEG, 146
  108 D1:D7E0 1A 92 -  -     .db VX_CALL1_NEG, 146
  109 D1:D7E2 10 91 -  -     .db VX_CALL0_NEG, 145
  110 D1:D7E4 1A 91 -  -     .db VX_CALL1_NEG, 145
  111 D1:D7E6 10 90 -  -     .db VX_CALL0_NEG, 144
  112 D1:D7E8 1A 90 -  -     .db VX_CALL1_NEG, 144
  113 D1:D7EA 10 8F -  -     .db VX_CALL0_NEG, 143
  114 D1:D7EC 1A 8F -  -     .db VX_CALL1_NEG, 143
  115 D1:D7EE 10 8E -  -     .db VX_CALL0_NEG, 142
  116 D1:D7F0 1A 8E -  -     .db VX_CALL1_NEG, 142
  117 D1:D7F2 10 8D -  -     .db VX_CALL0_NEG, 141
  118 D1:D7F4 1A 8D -  -     .db VX_CALL1_NEG, 141
  119 D1:D7F6 10 8C -  -     .db VX_CALL0_NEG, 140
  120 D1:D7F8 1A 8C -  -     .db VX_CALL1_NEG, 140
  121 D1:D7FA 10 8B -  -     .db VX_CALL0_NEG, 139
  122 D1:D7FC 1A 8B -  -     .db VX_CALL1_NEG, 139
  123 D1:D7FE 10 8A -  -     .db VX_CALL0_NEG, 138
  124 D1:D800 1A 8A -  -     .db VX_CALL1_NEG, 138
  125 D1:D802 10 89 -  -     .db VX_CALL0_NEG, 137
  126 D1:D804 1A 89 -  -     .db VX_CALL1_NEG, 137
  127 D1:D806 10 88 -  -     .db VX_CALL0_NEG, 136
  128 D1:D808 1A 88 -  -     .db VX_CALL1_NEG, 136
  129 D1:D80A 10 87 -  -     .db VX_CALL0_NEG, 135
  130 D1:D80C 1A 87 -  -     .db VX_CALL1_NEG, 135
  131 D1:D80E 10 86 -  -     .db VX_CALL0_NEG, 134
  132 D1:D810 1A 86 -  -     .db VX_CALL1_NEG, 134
  133 D1:D812 10 85 -  -     .db VX_CALL0_NEG, 133
  134 D1:D814 1A 85 -  -     .db VX_CALL1_NEG, 133
  135 D1:D816 10 84 -  -     .db VX_CALL0_NEG, 132
  136 D1:D818 1A 84 -  -     .db VX_CALL1_NEG, 132
  137 D1:D81A 10 83 -  -     .db VX_CALL0_NEG, 131
  138 D1:D81C 1A 83 -  -     .db VX_CALL1_NEG, 131
  139 D1:D81E 10 82 -  -     .db VX_CALL0_NEG, 130
  140 D1:D820 1A 82 -  -     .db VX_CALL1_NEG, 130
  141 D1:D822 10 81 -  -     .db VX_CALL0_NEG, 129
  142 D1:D824 1A 81 -  -     .db VX_CALL1_NEG, 129
  143 D1:D826 10 80 -  -     .db VX_CALL0_NEG, 128
  144 D1:D828 1A 80 -  -     .db VX_CALL1_NEG, 128
  145 D1:D82A 10 7F -  -     .db VX_CALL0_NEG, 127
  146 D1:D82C 1A 7F -  -     .db VX_CALL1_NEG, 127
  147 D1:D82E 10 7E -  -     .db VX_CALL0_NEG, 126
  148 D1:D830 1A 7E -  -     .db VX_CALL1_NEG, 126
  149 D1:D832 10 7D -  -     .db VX_CALL0_NEG, 125
  150 D1:D834 1A 7D -  -     .db VX_CALL1_NEG, 125
  151 D1:D836 10 7C -  -     .db VX_CALL0_NEG, 124
  152 D1:D838 1A 7C -  -     .db VX_CALL1_NEG, 124
  153 D1:D83A 10 7B -  -     .db VX_CALL0_NEG, 123
  154 D1:D83C 1A 7B -  -     .db VX_CALL1_NEG, 123
  155 D1:D83E 10 7A -  -     .db VX_CALL0_NEG, 122
  156 D1:D840 1A 7A -  -     .db VX_CALL1_NEG, 122
  157 D1:D842 10 79 -  -     .db VX_CALL0_NEG, 121
  158 D1:D844 1A 79 -  -     .db VX_CALL1_NEG, 121
  159 D1:D846 10 78 -  -     .db VX_CALL0_NEG, 120
  160 D1:D848 1A 78 -  -     .db VX_CALL1_NEG, 120
  161 D1:D84A 10 77 -  -     .db VX_CALL0_NEG, 119
  162 D1:D84C 1A 77 -  -     .db VX_CALL1_NEG, 119
  163 D1:D84E 10 76 -  -     .db VX_CALL0_NEG, 118
  164 D1:D850 1A 76 -  -     .db VX_CALL1_NEG, 118
  165 D1:D852 10 75 -  -     .db VX_CALL0_NEG, 117
  166 D1:D854 1A 75 -  -     .db VX_CALL1_NEG, 117
  167 D1:D856 10 74 -  -     .db VX_CALL0_NEG, 116
  168 D1:D858 1A 74 -  -     .db VX_CALL1_NEG, 116
  169 D1:D85A 10 73 -  -     .db VX_CALL0_NEG, 115
  170 D1:D85C 1A 73 -  -     .db VX_CALL1_NEG, 115
  171 D1:D85E 10 72 -  -     .db VX_CALL0_NEG, 114
  172 D1:D860 1A 72 -  -     .db VX_CALL1_NEG, 114
  173 D1:D862 10 71 -  -     .db VX_CALL0_NEG, 113
  174 D1:D864 1A 71 -  -     .db VX_CALL1_NEG, 113
  175 D1:D866 10 70 -  -     .db VX_CALL0_NEG, 112
  176 D1:D868 1A 70 -  -     .db VX_CALL1_NEG, 112
  177 D1:D86A 10 6F -  -     .db VX_CALL0_NEG, 111
  178 D1:D86C 1A 6F -  -     .db VX_CALL1_NEG, 111
  179 D1:D86E 10 6E -  -     .db VX_CALL0_NEG, 110
  180 D1:D870 1A 6E -  -     .db VX_CALL1_NEG, 110
  181 D1:D872 10 6D -  -     .db VX_CALL0_NEG, 109
  182 D1:D874 1A 6D -  -     .db VX_CALL1_NEG, 109
  183 D1:D876 10 6C -  -     .db VX_CALL0_NEG, 108
  184 D1:D878 1A 6C -  -     .db VX_CALL1_NEG, 108
  185 D1:D87A 10 6B -  -     .db VX_CALL0_NEG, 107
  186 D1:D87C 1A 6B -  -     .db VX_CALL1_NEG, 107
  187 D1:D87E 10 6A -  -     .db VX_CALL0_NEG, 106
  188 D1:D880 1A 6A -  -     .db VX_CALL1_NEG, 106
  189 D1:D882 10 69 -  -     .db VX_CALL0_NEG, 105
  190 D1:D884 1A 69 -  -     .db VX_CALL1_NEG, 105
  191 D1:D886 10 68 -  -     .db VX_CALL0_NEG, 104
  192 D1:D888 1A 68 -  -     .db VX_CALL1_NEG, 104
  193 D1:D88A 10 67 -  -     .db VX_CALL0_NEG, 103
  194 D1:D88C 1A 67 -  -     .db VX_CALL1_NEG, 103
  195 D1:D88E 10 66 -  -     .db VX_CALL0_NEG, 102
  196 D1:D890 1A 66 -  -     .db VX_CALL1_NEG, 102
  197 D1:D892 10 65 -  -     .db VX_CALL0_NEG, 101
  198 D1:D894 1A 65 -  -     .db VX_CALL1_NEG, 101
  199 D1:D896 10 64 -  -     .db VX_CALL0_NEG, 100
  200 D1:D898 1A 64 -  -     .db VX_CALL1_NEG, 100
  201 D1:D89A 10 63 -  -     .db VX_CALL0_NEG, 99
  202 D1:D89C 1A 63 -  -     .db VX_CALL1_NEG, 99
  203 D1:D89E 10 62 -  -     .db VX_CALL0_NEG, 98
  204 D1:D8A0 1A 62 -  -     .db VX_CALL1_NEG, 98
  205 D1:D8A2 10 61 -  -     .db VX_CALL0_NEG, 97
  206 D1:D8A4 1A 61 -  -     .db VX_CALL1_NEG, 97
  207 D1:D8A6 10 60 -  -     .db VX_CALL0_NEG, 96
  208 D1:D8A8 1A 60 -  -     .db VX_CALL1_NEG, 96
  209 D1:D8AA 10 5F -  -     .db VX_CALL0_NEG, 95
  210 D1:D8AC 1A 5F -  -     .db VX_CALL1_NEG, 95
  211 D1:D8AE 10 5E -  -     .db VX_CALL0_NEG, 94
  212 D1:D8B0 1A 5E -  -     .db VX_CALL1_NEG, 94
  213 D1:D8B2 10 5D -  -     .db VX_CALL0_NEG, 93
  214 D1:D8B4 1A 5D -  -     .db VX_CALL1_NEG, 93
  215 D1:D8B6 10 5C -  -     .db VX_CALL0_NEG, 92
  216 D1:D8B8 1A 5C -  -     .db VX_CALL1_NEG, 92
  217 D1:D8BA 10 5B -  -     .db VX_CALL0_NEG, 91
  218 D1:D8BC 1A 5B -  -     .db VX_CALL1_NEG, 91
  219 D1:D8BE 10 5A -  -     .db VX_CALL0_NEG, 90
  220 D1:D8C0 1A 5A -  -     .db VX_CALL1_NEG, 90
  221 D1:D8C2 10 59 -  -     .db VX_CALL0_NEG, 89
  222 D1:D8C4 1A 59 -  -     .db VX_CALL1_NEG, 89
  223 D1:D8C6 10 58 -  -     .db VX_CALL0_NEG, 88
  224 D1:D8C8 1A 58 -  -     .db VX_CALL1_NEG, 88
  225 D1:D8CA 10 57 -  -     .db VX_CALL0_NEG, 87
  226 D1:D8CC 1A 57 -  -     .db VX_CALL1_NEG, 87
  227 D1:D8CE 10 56 -  -     .db VX_CALL0_NEG, 86
  228 D1:D8D0 1A 56 -  -     .db VX_CALL1_NEG, 86
  229 D1:D8D2 10 55 -  -     .db VX_CALL0_NEG, 85
  230 D1:D8D4 1A 55 -  -     .db VX_CALL1_NEG, 85
  231 D1:D8D6 10 54 -  -     .db VX_CALL0_NEG, 84
  232 D1:D8D8 1A 54 -  -     .db VX_CALL1_NEG, 84
  233 D1:D8DA 10 53 -  -     .db VX_CALL0_NEG, 83
  234 D1:D8DC 1A 53 -  -     .db VX_CALL1_NEG, 83
  235 D1:D8DE 10 52 -  -     .db VX_CALL0_NEG, 82
  236 D1:D8E0 1A 52 -  -     .db VX_CALL1_NEG, 82
  237 D1:D8E2 10 51 -  -     .db VX_CALL0_NEG, 81
  238 D1:D8E4 1A 51 -  -     .db VX_CALL1_NEG, 81
  239 D1:D8E6 10 50 -  -     .db VX_CALL0_NEG, 80
  240 D1:D8E8 1A 50 -  -     .db VX_CALL1_NEG, 80
  241 D1:D8EA 10 4F -  -     .db VX_CALL0_NEG, 79
  242 D1:D8EC 1A 4F -  -     .db VX_CALL1_NEG, 79
  243 D1:D8EE 10 4E -  -     .db VX_CALL0_NEG, 78
  244 D1:D8F0 1A 4E -  -     .db VX_CALL1_NEG, 78
  245 D1:D8F2 10 4D -  -     .db VX_CALL0_NEG, 77
  246 D1:D8F4 1A 4D -  -     .db VX_CALL1_NEG, 77
  247 D1:D8F6 10 4C -  -     .db VX_CALL0_NEG, 76
  248 D1:D8F8 1A 4C -  -     .db VX_CALL1_NEG, 76
  249 D1:D8FA 10 4B -  -     .db VX_CALL0_NEG, 75
  250 D1:D8FC 1A 4B -  -     .db VX_CALL1_NEG, 75
  251 D1:D8FE 10 4A -  -     .db VX_CALL0_NEG, 74
  252 D1:D900 1A 4A -  -     .db VX_CALL1_NEG, 74
  253 D1:D902 10 49 -  -     .db VX_CALL0_NEG, 73
  254 D1:D904 1A 49 -  -     .db VX_CALL1_NEG, 73
  255 D1:D906 10 48 -  -     .db VX_CALL0_NEG, 72
  256 D1:D908 1A 48 -  -     .db VX_CALL1_NEG, 72
  257 D1:D90A 10 47 -  -     .db VX_CALL0_NEG, 71
  258 D1:D90C 1A 47 -  -     .db VX_CALL1_NEG, 71
  259 D1:D90E 10 46 -  -     .db VX_CALL0_NEG, 70
  260 D1:D910 1A 46 -  -     .db VX_CALL1_NEG, 70
  261 D1:D912 10 45 -  -     .db VX_CALL0_NEG, 69
  262 D1:D914 1A 45 -  -     .db VX_CALL1_NEG, 69
  263 D1:D916 10 44 -  -     .db VX_CALL0_NEG, 68
  264 D1:D918 1A 44 -  -     .db VX_CALL1_NEG, 68
  265 D1:D91A 10 43 -  -     .db VX_CALL0_NEG, 67
  266 D1:D91C 1A 43 -  -     .db VX_CALL1_NEG, 67
  267 D1:D91E 10 42 -  -     .db VX_CALL0_NEG, 66
  268 D1:D920 1A 42 -  -     .db VX_CALL1_NEG, 66
  269 D1:D922 10 41 -  -     .db VX_CALL0_NEG, 65
  270 D1:D924 1A 41 -  -     .db VX_CALL1_NEG, 65
  271 D1:D926 10 40 -  -     .db VX_CALL0_NEG, 64
  272 D1:D928 1A 40 -  -     .db VX_CALL1_NEG, 64
  273 D1:D92A 10 3F -  -     .db VX_CALL0_NEG, 63
  274 D1:D92C 1A 3F -  -     .db VX_CALL1_NEG, 63
  275 D1:D92E 10 3E -  -     .db VX_CALL0_NEG, 62
  276 D1:D930 1A 3E -  -     .db VX_CALL1_NEG, 62
  277 D1:D932 10 3D -  -     .db VX_CALL0_NEG, 61
  278 D1:D934 1A 3D -  -     .db VX_CALL1_NEG, 61
  279 D1:D936 10 3C -  -     .db VX_CALL0_NEG, 60
  280 D1:D938 1A 3C -  -     .db VX_CALL1_NEG, 60
  281 D1:D93A 10 3B -  -     .db VX_CALL0_NEG, 59
  282 D1:D93C 1A 3B -  -     .db VX_CALL1_NEG, 59
  283 D1:D93E 10 3A -  -     .db VX_CALL0_NEG, 58
  284 D1:D940 1A 3A -  -     .db VX_CALL1_NEG, 58
  285 D1:D942 10 39 -  -     .db VX_CALL0_NEG, 57
  286 D1:D944 1A 39 -  -     .db VX_CALL1_NEG, 57
  287 D1:D946 10 38 -  -     .db VX_CALL0_NEG, 56
  288 D1:D948 1A 38 -  -     .db VX_CALL1_NEG, 56
  289 D1:D94A 10 37 -  -     .db VX_CALL0_NEG, 55
  290 D1:D94C 1A 37 -  -     .db VX_CALL1_NEG, 55
  291 D1:D94E 10 36 -  -     .db VX_CALL0_NEG, 54
  292 D1:D950 1A 36 -  -     .db VX_CALL1_NEG, 54
  293 D1:D952 10 35 -  -     .db VX_CALL0_NEG, 53
  294 D1:D954 1A 35 -  -     .db VX_CALL1_NEG, 53
  295 D1:D956 10 34 -  -     .db VX_CALL0_NEG, 52
  296 D1:D958 1A 34 -  -     .db VX_CALL1_NEG, 52
  297 D1:D95A 10 33 -  -     .db VX_CALL0_NEG, 51
  298 D1:D95C 1A 33 -  -     .db VX_CALL1_NEG, 51
  299 D1:D95E 10 32 -  -     .db VX_CALL0_NEG, 50
  300 D1:D960 1A 32 -  -     .db VX_CALL1_NEG, 50
  301 D1:D962 10 31 -  -     .db VX_CALL0_NEG, 49
  302 D1:D964 1A 31 -  -     .db VX_CALL1_NEG, 49
  303 D1:D966 10 30 -  -     .db VX_CALL0_NEG, 48
  304 D1:D968 1A 30 -  -     .db VX_CALL1_NEG, 48
  305 D1:D96A 10 2F -  -     .db VX_CALL0_NEG, 47
  306 D1:D96C 1A 2F -  -     .db VX_CALL1_NEG, 47
  307 D1:D96E 10 2E -  -     .db VX_CALL0_NEG, 46
  308 D1:D970 1A 2E -  -     .db VX_CALL1_NEG, 46
  309 D1:D972 10 2D -  -     .db VX_CALL0_NEG, 45
  310 D1:D974 1A 2D -  -     .db VX_CALL1_NEG, 45
  311 D1:D976 10 2C -  -     .db VX_CALL0_NEG, 44
  312 D1:D978 1A 2C -  -     .db VX_CALL1_NEG, 44
  313 D1:D97A 10 2B -  -     .db VX_CALL0_NEG, 43
  314 D1:D97C 1A 2B -  -     .db VX_CALL1_NEG, 43
  315 D1:D97E 10 2A -  -     .db VX_CALL0_NEG, 42
  316 D1:D980 1A 2A -  -     .db VX_CALL1_NEG, 42
  317 D1:D982 10 29 -  -     .db VX_CALL0_NEG, 41
  318 D1:D984 1A 29 -  -     .db VX_CALL1_NEG, 41
  319 D1:D986 10 28 -  -     .db VX_CALL0_NEG, 40
  320 D1:D988 1A 28 -  -     .db VX_CALL1_NEG, 40
  321 D1:D98A 10 27 -  -     .db VX_CALL0_NEG, 39
  322 D1:D98C 1A 27 -  -     .db VX_CALL1_NEG, 39
  323 D1:D98E 10 26 -  -     .db VX_CALL0_NEG, 38
  324 D1:D990 1A 26 -  -     .db VX_CALL1_NEG, 38
  325 D1:D992 10 25 -  -     .db VX_CALL0_NEG, 37
  326 D1:D994 1A 25 -  -     .db VX_CALL1_NEG, 37
  327 D1:D996 10 24 -  -     .db VX_CALL0_NEG, 36
  328 D1:D998 1A 24 -  -     .db VX_CALL1_NEG, 36
  329 D1:D99A 10 23 -  -     .db VX_CALL0_NEG, 35
  330 D1:D99C 1A 23 -  -     .db VX_CALL1_NEG, 35
  331 D1:D99E 10 22 -  -     .db VX_CALL0_NEG, 34
  332 D1:D9A0 1A 22 -  -     .db VX_CALL1_NEG, 34
  333 D1:D9A2 10 21 -  -     .db VX_CALL0_NEG, 33
  334 D1:D9A4 1A 21 -  -     .db VX_CALL1_NEG, 33
  335 D1:D9A6 10 20 -  -     .db VX_CALL0_NEG, 32
  336 D1:D9A8 1A 20 -  -     .db VX_CALL1_NEG, 32
  337 D1:D9AA 10 1F -  -     .db VX_CALL0_NEG, 31
  338 D1:D9AC 1A 1F -  -     .db VX_CALL1_NEG, 31
  339 D1:D9AE 10 1E -  -     .db VX_CALL0_NEG, 30
  340 D1:D9B0 1A 1E -  -     .db VX_CALL1_NEG, 30
  341 D1:D9B2 10 1D -  -     .db VX_CALL0_NEG, 29
  342 D1:D9B4 1A 1D -  -     .db VX_CALL1_NEG, 29
  343 D1:D9B6 10 1C -  -     .db VX_CALL0_NEG, 28
  344 D1:D9B8 1A 1C -  -     .db VX_CALL1_NEG, 28
  345 D1:D9BA 10 1B -  -     .db VX_CALL0_NEG, 27
  346 D1:D9BC 1A 1B -  -     .db VX_CALL1_NEG, 27
  347 D1:D9BE 10 1A -  -     .db VX_CALL0_NEG, 26
  348 D1:D9C0 1A 1A -  -     .db VX_CALL1_NEG, 26
  349 D1:D9C2 10 19 -  -     .db VX_CALL0_NEG, 25
  350 D1:D9C4 1A 19 -  -     .db VX_CALL1_NEG, 25
  351 D1:D9C6 10 18 -  -     .db VX_CALL0_NEG, 24
  352 D1:D9C8 1A 18 -  -     .db VX_CALL1_NEG, 24
  353 D1:D9CA 10 17 -  -     .db VX_CALL0_NEG, 23
  354 D1:D9CC 1A 17 -  -     .db VX_CALL1_NEG, 23
  355 D1:D9CE 10 16 -  -     .db VX_CALL0_NEG, 22
  356 D1:D9D0 1A 16 -  -     .db VX_CALL1_NEG, 22
  357 D1:D9D2 10 15 -  -     .db VX_CALL0_NEG, 21
  358 D1:D9D4 1A 15 -  -     .db VX_CALL1_NEG, 21
  359 D1:D9D6 10 14 -  -     .db VX_CALL0_NEG, 20
  360 D1:D9D8 1A 14 -  -     .db VX_CALL1_NEG, 20
  361 D1:D9DA 10 13 -  -     .db VX_CALL0_NEG, 19
  362 D1:D9DC 1A 13 -  -     .db VX_CALL1_NEG, 19
  363 D1:D9DE 10 12 -  -     .db VX_CALL0_NEG, 18
  364 D1:D9E0 1A 12 -  -     .db VX_CALL1_NEG, 18
  365 D1:D9E2 10 11 -  -     .db VX_CALL0_NEG, 17
  366 D1:D9E4 1A 11 -  -     .db VX_CALL1_NEG, 17
  367 D1:D9E6 10 10 -  -     .db VX_CALL0_NEG, 16
  368 D1:D9E8 1A 10 -  -     .db VX_CALL1_NEG, 16
  369 D1:D9EA 10 0F -  -     .db VX_CALL0_NEG, 15
  370 D1:D9EC 1A 0F -  -     .db VX_CALL1_NEG, 15
  371 D1:D9EE 10 0E -  -     .db VX_CALL0_NEG, 14
  372 D1:D9F0 1A 0E -  -     .db VX_CALL1_NEG, 14
  373 D1:D9F2 10 0D -  -     .db VX_CALL0_NEG, 13
  374 D1:D9F4 1A 0D -  -     .db VX_CALL1_NEG, 13
  375 D1:D9F6 10 0C -  -     .db VX_CALL0_NEG, 12
  376 D1:D9F8 1A 0C -  -     .db VX_CALL1_NEG, 12
  377 D1:D9FA 10 0B -  -     .db VX_CALL0_NEG, 11
  378 D1:D9FC 1A 0B -  -     .db VX_CALL1_NEG, 11
  379 D1:D9FE 10 0A -  -     .db VX_CALL0_NEG, 10
  380 D1:DA00 1A 0A -  -     .db VX_CALL1_NEG, 10
  381 D1:DA02 10 09 -  -     .db VX_CALL0_NEG, 9
  382 D1:DA04 1A 09 -  -     .db VX_CALL1_NEG, 9
  383 D1:DA06 10 08 -  -     .db VX_CALL0_NEG, 8
  384 D1:DA08 1A 08 -  -     .db VX_CALL1_NEG, 8
  385 D1:DA0A 10 07 -  -     .db VX_CALL0_NEG, 7
  386 D1:DA0C 1A 07 -  -     .db VX_CALL1_NEG, 7
  387 D1:DA0E 10 06 -  -     .db VX_CALL0_NEG, 6
  388 D1:DA10 1A 06 -  -     .db VX_CALL1_NEG, 6
  389 D1:DA12 10 05 -  -     .db VX_CALL0_NEG, 5
  390 D1:DA14 1A 05 -  -     .db VX_CALL1_NEG, 5
  391 D1:DA16 10 04 -  -     .db VX_CALL0_NEG, 4
  392 D1:DA18 1A 04 -  -     .db VX_CALL1_NEG, 4
  393 D1:DA1A 10 03 -  -     .db VX_CALL0_NEG, 3
  394 D1:DA1C 1A 03 -  -     .db VX_CALL1_NEG, 3
  395 D1:DA1E 10 02 -  -     .db VX_CALL0_NEG, 2
  396 D1:DA20 1A 02 -  -     .db VX_CALL1_NEG, 2
  397 D1:DA22 10 01 -  -     .db VX_CALL0_NEG, 1
  398 D1:DA24 1A 01 -  -  	 .db VX_CALL1_NEG, 1
  399 D1:DA26 -  -  -  -  vxPixelShaderLengthLUT:
  400 D1:DA26 26 01 -  -     .db VX_CALL_NULL, 1
  401 D1:DA28 19 01 -  -     .db VX_CALL1_POS, 1
  402 D1:DA2A 23 02 -  -     .db VX_CALL0_POS, 2
  403 D1:DA2C 19 02 -  -     .db VX_CALL1_POS, 2
  404 D1:DA2E 23 03 -  -     .db VX_CALL0_POS, 3
  405 D1:DA30 19 03 -  -     .db VX_CALL1_POS, 3
  406 D1:DA32 23 04 -  -     .db VX_CALL0_POS, 4
  407 D1:DA34 19 04 -  -     .db VX_CALL1_POS, 4
  408 D1:DA36 23 05 -  -     .db VX_CALL0_POS, 5
  409 D1:DA38 19 05 -  -     .db VX_CALL1_POS, 5
  410 D1:DA3A 23 06 -  -     .db VX_CALL0_POS, 6
  411 D1:DA3C 19 06 -  -     .db VX_CALL1_POS, 6
  412 D1:DA3E 23 07 -  -     .db VX_CALL0_POS, 7
  413 D1:DA40 19 07 -  -     .db VX_CALL1_POS, 7
  414 D1:DA42 23 08 -  -     .db VX_CALL0_POS, 8
  415 D1:DA44 19 08 -  -     .db VX_CALL1_POS, 8
  416 D1:DA46 23 09 -  -     .db VX_CALL0_POS, 9
  417 D1:DA48 19 09 -  -     .db VX_CALL1_POS, 9
  418 D1:DA4A 23 0A -  -     .db VX_CALL0_POS, 10
  419 D1:DA4C 19 0A -  -     .db VX_CALL1_POS, 10
  420 D1:DA4E 23 0B -  -     .db VX_CALL0_POS, 11
  421 D1:DA50 19 0B -  -     .db VX_CALL1_POS, 11
  422 D1:DA52 23 0C -  -     .db VX_CALL0_POS, 12
  423 D1:DA54 19 0C -  -     .db VX_CALL1_POS, 12
  424 D1:DA56 23 0D -  -     .db VX_CALL0_POS, 13
  425 D1:DA58 19 0D -  -     .db VX_CALL1_POS, 13
  426 D1:DA5A 23 0E -  -     .db VX_CALL0_POS, 14
  427 D1:DA5C 19 0E -  -     .db VX_CALL1_POS, 14
  428 D1:DA5E 23 0F -  -     .db VX_CALL0_POS, 15
  429 D1:DA60 19 0F -  -     .db VX_CALL1_POS, 15
  430 D1:DA62 23 10 -  -     .db VX_CALL0_POS, 16
  431 D1:DA64 19 10 -  -     .db VX_CALL1_POS, 16
  432 D1:DA66 23 11 -  -     .db VX_CALL0_POS, 17
  433 D1:DA68 19 11 -  -     .db VX_CALL1_POS, 17
  434 D1:DA6A 23 12 -  -     .db VX_CALL0_POS, 18
  435 D1:DA6C 19 12 -  -     .db VX_CALL1_POS, 18
  436 D1:DA6E 23 13 -  -     .db VX_CALL0_POS, 19
  437 D1:DA70 19 13 -  -     .db VX_CALL1_POS, 19
  438 D1:DA72 23 14 -  -     .db VX_CALL0_POS, 20
  439 D1:DA74 19 14 -  -     .db VX_CALL1_POS, 20
  440 D1:DA76 23 15 -  -     .db VX_CALL0_POS, 21
  441 D1:DA78 19 15 -  -     .db VX_CALL1_POS, 21
  442 D1:DA7A 23 16 -  -     .db VX_CALL0_POS, 22
  443 D1:DA7C 19 16 -  -     .db VX_CALL1_POS, 22
  444 D1:DA7E 23 17 -  -     .db VX_CALL0_POS, 23
  445 D1:DA80 19 17 -  -     .db VX_CALL1_POS, 23
  446 D1:DA82 23 18 -  -     .db VX_CALL0_POS, 24
  447 D1:DA84 19 18 -  -     .db VX_CALL1_POS, 24
  448 D1:DA86 23 19 -  -     .db VX_CALL0_POS, 25
  449 D1:DA88 19 19 -  -     .db VX_CALL1_POS, 25
  450 D1:DA8A 23 1A -  -     .db VX_CALL0_POS, 26
  451 D1:DA8C 19 1A -  -     .db VX_CALL1_POS, 26
  452 D1:DA8E 23 1B -  -     .db VX_CALL0_POS, 27
  453 D1:DA90 19 1B -  -     .db VX_CALL1_POS, 27
  454 D1:DA92 23 1C -  -     .db VX_CALL0_POS, 28
  455 D1:DA94 19 1C -  -     .db VX_CALL1_POS, 28
  456 D1:DA96 23 1D -  -     .db VX_CALL0_POS, 29
  457 D1:DA98 19 1D -  -     .db VX_CALL1_POS, 29
  458 D1:DA9A 23 1E -  -     .db VX_CALL0_POS, 30
  459 D1:DA9C 19 1E -  -     .db VX_CALL1_POS, 30
  460 D1:DA9E 23 1F -  -     .db VX_CALL0_POS, 31
  461 D1:DAA0 19 1F -  -     .db VX_CALL1_POS, 31
  462 D1:DAA2 23 20 -  -     .db VX_CALL0_POS, 32
  463 D1:DAA4 19 20 -  -     .db VX_CALL1_POS, 32
  464 D1:DAA6 23 21 -  -     .db VX_CALL0_POS, 33
  465 D1:DAA8 19 21 -  -     .db VX_CALL1_POS, 33
  466 D1:DAAA 23 22 -  -     .db VX_CALL0_POS, 34
  467 D1:DAAC 19 22 -  -     .db VX_CALL1_POS, 34
  468 D1:DAAE 23 23 -  -     .db VX_CALL0_POS, 35
  469 D1:DAB0 19 23 -  -     .db VX_CALL1_POS, 35
  470 D1:DAB2 23 24 -  -     .db VX_CALL0_POS, 36
  471 D1:DAB4 19 24 -  -     .db VX_CALL1_POS, 36
  472 D1:DAB6 23 25 -  -     .db VX_CALL0_POS, 37
  473 D1:DAB8 19 25 -  -     .db VX_CALL1_POS, 37
  474 D1:DABA 23 26 -  -     .db VX_CALL0_POS, 38
  475 D1:DABC 19 26 -  -     .db VX_CALL1_POS, 38
  476 D1:DABE 23 27 -  -     .db VX_CALL0_POS, 39
  477 D1:DAC0 19 27 -  -     .db VX_CALL1_POS, 39
  478 D1:DAC2 23 28 -  -     .db VX_CALL0_POS, 40
  479 D1:DAC4 19 28 -  -     .db VX_CALL1_POS, 40
  480 D1:DAC6 23 29 -  -     .db VX_CALL0_POS, 41
  481 D1:DAC8 19 29 -  -     .db VX_CALL1_POS, 41
  482 D1:DACA 23 2A -  -     .db VX_CALL0_POS, 42
  483 D1:DACC 19 2A -  -     .db VX_CALL1_POS, 42
  484 D1:DACE 23 2B -  -     .db VX_CALL0_POS, 43
  485 D1:DAD0 19 2B -  -     .db VX_CALL1_POS, 43
  486 D1:DAD2 23 2C -  -     .db VX_CALL0_POS, 44
  487 D1:DAD4 19 2C -  -     .db VX_CALL1_POS, 44
  488 D1:DAD6 23 2D -  -     .db VX_CALL0_POS, 45
  489 D1:DAD8 19 2D -  -     .db VX_CALL1_POS, 45
  490 D1:DADA 23 2E -  -     .db VX_CALL0_POS, 46
  491 D1:DADC 19 2E -  -     .db VX_CALL1_POS, 46
  492 D1:DADE 23 2F -  -     .db VX_CALL0_POS, 47
  493 D1:DAE0 19 2F -  -     .db VX_CALL1_POS, 47
  494 D1:DAE2 23 30 -  -     .db VX_CALL0_POS, 48
  495 D1:DAE4 19 30 -  -     .db VX_CALL1_POS, 48
  496 D1:DAE6 23 31 -  -     .db VX_CALL0_POS, 49
  497 D1:DAE8 19 31 -  -     .db VX_CALL1_POS, 49
  498 D1:DAEA 23 32 -  -     .db VX_CALL0_POS, 50
  499 D1:DAEC 19 32 -  -     .db VX_CALL1_POS, 50
  500 D1:DAEE 23 33 -  -     .db VX_CALL0_POS, 51
  501 D1:DAF0 19 33 -  -     .db VX_CALL1_POS, 51
  502 D1:DAF2 23 34 -  -     .db VX_CALL0_POS, 52
  503 D1:DAF4 19 34 -  -     .db VX_CALL1_POS, 52
  504 D1:DAF6 23 35 -  -     .db VX_CALL0_POS, 53
  505 D1:DAF8 19 35 -  -     .db VX_CALL1_POS, 53
  506 D1:DAFA 23 36 -  -     .db VX_CALL0_POS, 54
  507 D1:DAFC 19 36 -  -     .db VX_CALL1_POS, 54
  508 D1:DAFE 23 37 -  -     .db VX_CALL0_POS, 55
  509 D1:DB00 19 37 -  -     .db VX_CALL1_POS, 55
  510 D1:DB02 23 38 -  -     .db VX_CALL0_POS, 56
  511 D1:DB04 19 38 -  -     .db VX_CALL1_POS, 56
  512 D1:DB06 23 39 -  -     .db VX_CALL0_POS, 57
  513 D1:DB08 19 39 -  -     .db VX_CALL1_POS, 57
  514 D1:DB0A 23 3A -  -     .db VX_CALL0_POS, 58
  515 D1:DB0C 19 3A -  -     .db VX_CALL1_POS, 58
  516 D1:DB0E 23 3B -  -     .db VX_CALL0_POS, 59
  517 D1:DB10 19 3B -  -     .db VX_CALL1_POS, 59
  518 D1:DB12 23 3C -  -     .db VX_CALL0_POS, 60
  519 D1:DB14 19 3C -  -     .db VX_CALL1_POS, 60
  520 D1:DB16 23 3D -  -     .db VX_CALL0_POS, 61
  521 D1:DB18 19 3D -  -     .db VX_CALL1_POS, 61
  522 D1:DB1A 23 3E -  -     .db VX_CALL0_POS, 62
  523 D1:DB1C 19 3E -  -     .db VX_CALL1_POS, 62
  524 D1:DB1E 23 3F -  -     .db VX_CALL0_POS, 63
  525 D1:DB20 19 3F -  -     .db VX_CALL1_POS, 63
  526 D1:DB22 23 40 -  -     .db VX_CALL0_POS, 64
  527 D1:DB24 19 40 -  -     .db VX_CALL1_POS, 64
  528 D1:DB26 23 41 -  -     .db VX_CALL0_POS, 65
  529 D1:DB28 19 41 -  -     .db VX_CALL1_POS, 65
  530 D1:DB2A 23 42 -  -     .db VX_CALL0_POS, 66
  531 D1:DB2C 19 42 -  -     .db VX_CALL1_POS, 66
  532 D1:DB2E 23 43 -  -     .db VX_CALL0_POS, 67
  533 D1:DB30 19 43 -  -     .db VX_CALL1_POS, 67
  534 D1:DB32 23 44 -  -     .db VX_CALL0_POS, 68
  535 D1:DB34 19 44 -  -     .db VX_CALL1_POS, 68
  536 D1:DB36 23 45 -  -     .db VX_CALL0_POS, 69
  537 D1:DB38 19 45 -  -     .db VX_CALL1_POS, 69
  538 D1:DB3A 23 46 -  -     .db VX_CALL0_POS, 70
  539 D1:DB3C 19 46 -  -     .db VX_CALL1_POS, 70
  540 D1:DB3E 23 47 -  -     .db VX_CALL0_POS, 71
  541 D1:DB40 19 47 -  -     .db VX_CALL1_POS, 71
  542 D1:DB42 23 48 -  -     .db VX_CALL0_POS, 72
  543 D1:DB44 19 48 -  -     .db VX_CALL1_POS, 72
  544 D1:DB46 23 49 -  -     .db VX_CALL0_POS, 73
  545 D1:DB48 19 49 -  -     .db VX_CALL1_POS, 73
  546 D1:DB4A 23 4A -  -     .db VX_CALL0_POS, 74
  547 D1:DB4C 19 4A -  -     .db VX_CALL1_POS, 74
  548 D1:DB4E 23 4B -  -     .db VX_CALL0_POS, 75
  549 D1:DB50 19 4B -  -     .db VX_CALL1_POS, 75
  550 D1:DB52 23 4C -  -     .db VX_CALL0_POS, 76
  551 D1:DB54 19 4C -  -     .db VX_CALL1_POS, 76
  552 D1:DB56 23 4D -  -     .db VX_CALL0_POS, 77
  553 D1:DB58 19 4D -  -     .db VX_CALL1_POS, 77
  554 D1:DB5A 23 4E -  -     .db VX_CALL0_POS, 78
  555 D1:DB5C 19 4E -  -     .db VX_CALL1_POS, 78
  556 D1:DB5E 23 4F -  -     .db VX_CALL0_POS, 79
  557 D1:DB60 19 4F -  -     .db VX_CALL1_POS, 79
  558 D1:DB62 23 50 -  -     .db VX_CALL0_POS, 80
  559 D1:DB64 19 50 -  -     .db VX_CALL1_POS, 80
  560 D1:DB66 23 51 -  -     .db VX_CALL0_POS, 81
  561 D1:DB68 19 51 -  -     .db VX_CALL1_POS, 81
  562 D1:DB6A 23 52 -  -     .db VX_CALL0_POS, 82
  563 D1:DB6C 19 52 -  -     .db VX_CALL1_POS, 82
  564 D1:DB6E 23 53 -  -     .db VX_CALL0_POS, 83
  565 D1:DB70 19 53 -  -     .db VX_CALL1_POS, 83
  566 D1:DB72 23 54 -  -     .db VX_CALL0_POS, 84
  567 D1:DB74 19 54 -  -     .db VX_CALL1_POS, 84
  568 D1:DB76 23 55 -  -     .db VX_CALL0_POS, 85
  569 D1:DB78 19 55 -  -     .db VX_CALL1_POS, 85
  570 D1:DB7A 23 56 -  -     .db VX_CALL0_POS, 86
  571 D1:DB7C 19 56 -  -     .db VX_CALL1_POS, 86
  572 D1:DB7E 23 57 -  -     .db VX_CALL0_POS, 87
  573 D1:DB80 19 57 -  -     .db VX_CALL1_POS, 87
  574 D1:DB82 23 58 -  -     .db VX_CALL0_POS, 88
  575 D1:DB84 19 58 -  -     .db VX_CALL1_POS, 88
  576 D1:DB86 23 59 -  -     .db VX_CALL0_POS, 89
  577 D1:DB88 19 59 -  -     .db VX_CALL1_POS, 89
  578 D1:DB8A 23 5A -  -     .db VX_CALL0_POS, 90
  579 D1:DB8C 19 5A -  -     .db VX_CALL1_POS, 90
  580 D1:DB8E 23 5B -  -     .db VX_CALL0_POS, 91
  581 D1:DB90 19 5B -  -     .db VX_CALL1_POS, 91
  582 D1:DB92 23 5C -  -     .db VX_CALL0_POS, 92
  583 D1:DB94 19 5C -  -     .db VX_CALL1_POS, 92
  584 D1:DB96 23 5D -  -     .db VX_CALL0_POS, 93
  585 D1:DB98 19 5D -  -     .db VX_CALL1_POS, 93
  586 D1:DB9A 23 5E -  -     .db VX_CALL0_POS, 94
  587 D1:DB9C 19 5E -  -     .db VX_CALL1_POS, 94
  588 D1:DB9E 23 5F -  -     .db VX_CALL0_POS, 95
  589 D1:DBA0 19 5F -  -     .db VX_CALL1_POS, 95
  590 D1:DBA2 23 60 -  -     .db VX_CALL0_POS, 96
  591 D1:DBA4 19 60 -  -     .db VX_CALL1_POS, 96
  592 D1:DBA6 23 61 -  -     .db VX_CALL0_POS, 97
  593 D1:DBA8 19 61 -  -     .db VX_CALL1_POS, 97
  594 D1:DBAA 23 62 -  -     .db VX_CALL0_POS, 98
  595 D1:DBAC 19 62 -  -     .db VX_CALL1_POS, 98
  596 D1:DBAE 23 63 -  -     .db VX_CALL0_POS, 99
  597 D1:DBB0 19 63 -  -     .db VX_CALL1_POS, 99
  598 D1:DBB2 23 64 -  -     .db VX_CALL0_POS, 100
  599 D1:DBB4 19 64 -  -     .db VX_CALL1_POS, 100
  600 D1:DBB6 23 65 -  -     .db VX_CALL0_POS, 101
  601 D1:DBB8 19 65 -  -     .db VX_CALL1_POS, 101
  602 D1:DBBA 23 66 -  -     .db VX_CALL0_POS, 102
  603 D1:DBBC 19 66 -  -     .db VX_CALL1_POS, 102
  604 D1:DBBE 23 67 -  -     .db VX_CALL0_POS, 103
  605 D1:DBC0 19 67 -  -     .db VX_CALL1_POS, 103
  606 D1:DBC2 23 68 -  -     .db VX_CALL0_POS, 104
  607 D1:DBC4 19 68 -  -     .db VX_CALL1_POS, 104
  608 D1:DBC6 23 69 -  -     .db VX_CALL0_POS, 105
  609 D1:DBC8 19 69 -  -     .db VX_CALL1_POS, 105
  610 D1:DBCA 23 6A -  -     .db VX_CALL0_POS, 106
  611 D1:DBCC 19 6A -  -     .db VX_CALL1_POS, 106
  612 D1:DBCE 23 6B -  -     .db VX_CALL0_POS, 107
  613 D1:DBD0 19 6B -  -     .db VX_CALL1_POS, 107
  614 D1:DBD2 23 6C -  -     .db VX_CALL0_POS, 108
  615 D1:DBD4 19 6C -  -     .db VX_CALL1_POS, 108
  616 D1:DBD6 23 6D -  -     .db VX_CALL0_POS, 109
  617 D1:DBD8 19 6D -  -     .db VX_CALL1_POS, 109
  618 D1:DBDA 23 6E -  -     .db VX_CALL0_POS, 110
  619 D1:DBDC 19 6E -  -     .db VX_CALL1_POS, 110
  620 D1:DBDE 23 6F -  -     .db VX_CALL0_POS, 111
  621 D1:DBE0 19 6F -  -     .db VX_CALL1_POS, 111
  622 D1:DBE2 23 70 -  -     .db VX_CALL0_POS, 112
  623 D1:DBE4 19 70 -  -     .db VX_CALL1_POS, 112
  624 D1:DBE6 23 71 -  -     .db VX_CALL0_POS, 113
  625 D1:DBE8 19 71 -  -     .db VX_CALL1_POS, 113
  626 D1:DBEA 23 72 -  -     .db VX_CALL0_POS, 114
  627 D1:DBEC 19 72 -  -     .db VX_CALL1_POS, 114
  628 D1:DBEE 23 73 -  -     .db VX_CALL0_POS, 115
  629 D1:DBF0 19 73 -  -     .db VX_CALL1_POS, 115
  630 D1:DBF2 23 74 -  -     .db VX_CALL0_POS, 116
  631 D1:DBF4 19 74 -  -     .db VX_CALL1_POS, 116
  632 D1:DBF6 23 75 -  -     .db VX_CALL0_POS, 117
  633 D1:DBF8 19 75 -  -     .db VX_CALL1_POS, 117
  634 D1:DBFA 23 76 -  -     .db VX_CALL0_POS, 118
  635 D1:DBFC 19 76 -  -     .db VX_CALL1_POS, 118
  636 D1:DBFE 23 77 -  -     .db VX_CALL0_POS, 119
  637 D1:DC00 19 77 -  -     .db VX_CALL1_POS, 119
  638 D1:DC02 23 78 -  -     .db VX_CALL0_POS, 120
  639 D1:DC04 19 78 -  -     .db VX_CALL1_POS, 120
  640 D1:DC06 23 79 -  -     .db VX_CALL0_POS, 121
  641 D1:DC08 19 79 -  -     .db VX_CALL1_POS, 121
  642 D1:DC0A 23 7A -  -     .db VX_CALL0_POS, 122
  643 D1:DC0C 19 7A -  -     .db VX_CALL1_POS, 122
  644 D1:DC0E 23 7B -  -     .db VX_CALL0_POS, 123
  645 D1:DC10 19 7B -  -     .db VX_CALL1_POS, 123
  646 D1:DC12 23 7C -  -     .db VX_CALL0_POS, 124
  647 D1:DC14 19 7C -  -     .db VX_CALL1_POS, 124
  648 D1:DC16 23 7D -  -     .db VX_CALL0_POS, 125
  649 D1:DC18 19 7D -  -     .db VX_CALL1_POS, 125
  650 D1:DC1A 23 7E -  -     .db VX_CALL0_POS, 126
  651 D1:DC1C 19 7E -  -     .db VX_CALL1_POS, 126
  652 D1:DC1E 23 7F -  -     .db VX_CALL0_POS, 127
  653 D1:DC20 19 7F -  -     .db VX_CALL1_POS, 127
  654 D1:DC22 23 80 -  -     .db VX_CALL0_POS, 128
  655 D1:DC24 19 80 -  -     .db VX_CALL1_POS, 128
  656 D1:DC26 23 81 -  -     .db VX_CALL0_POS, 129
  657 D1:DC28 19 81 -  -     .db VX_CALL1_POS, 129
  658 D1:DC2A 23 82 -  -     .db VX_CALL0_POS, 130
  659 D1:DC2C 19 82 -  -     .db VX_CALL1_POS, 130
  660 D1:DC2E 23 83 -  -     .db VX_CALL0_POS, 131
  661 D1:DC30 19 83 -  -     .db VX_CALL1_POS, 131
  662 D1:DC32 23 84 -  -     .db VX_CALL0_POS, 132
  663 D1:DC34 19 84 -  -     .db VX_CALL1_POS, 132
  664 D1:DC36 23 85 -  -     .db VX_CALL0_POS, 133
  665 D1:DC38 19 85 -  -     .db VX_CALL1_POS, 133
  666 D1:DC3A 23 86 -  -     .db VX_CALL0_POS, 134
  667 D1:DC3C 19 86 -  -     .db VX_CALL1_POS, 134
  668 D1:DC3E 23 87 -  -     .db VX_CALL0_POS, 135
  669 D1:DC40 19 87 -  -     .db VX_CALL1_POS, 135
  670 D1:DC42 23 88 -  -     .db VX_CALL0_POS, 136
  671 D1:DC44 19 88 -  -     .db VX_CALL1_POS, 136
  672 D1:DC46 23 89 -  -     .db VX_CALL0_POS, 137
  673 D1:DC48 19 89 -  -     .db VX_CALL1_POS, 137
  674 D1:DC4A 23 8A -  -     .db VX_CALL0_POS, 138
  675 D1:DC4C 19 8A -  -     .db VX_CALL1_POS, 138
  676 D1:DC4E 23 8B -  -     .db VX_CALL0_POS, 139
  677 D1:DC50 19 8B -  -     .db VX_CALL1_POS, 139
  678 D1:DC52 23 8C -  -     .db VX_CALL0_POS, 140
  679 D1:DC54 19 8C -  -     .db VX_CALL1_POS, 140
  680 D1:DC56 23 8D -  -     .db VX_CALL0_POS, 141
  681 D1:DC58 19 8D -  -     .db VX_CALL1_POS, 141
  682 D1:DC5A 23 8E -  -     .db VX_CALL0_POS, 142
  683 D1:DC5C 19 8E -  -     .db VX_CALL1_POS, 142
  684 D1:DC5E 23 8F -  -     .db VX_CALL0_POS, 143
  685 D1:DC60 19 8F -  -     .db VX_CALL1_POS, 143
  686 D1:DC62 23 90 -  -     .db VX_CALL0_POS, 144
  687 D1:DC64 19 90 -  -     .db VX_CALL1_POS, 144
  688 D1:DC66 23 91 -  -     .db VX_CALL0_POS, 145
  689 D1:DC68 19 91 -  -     .db VX_CALL1_POS, 145
  690 D1:DC6A 23 92 -  -     .db VX_CALL0_POS, 146
  691 D1:DC6C 19 92 -  -     .db VX_CALL1_POS, 146
  692 D1:DC6E 23 93 -  -     .db VX_CALL0_POS, 147
  693 D1:DC70 19 93 -  -     .db VX_CALL1_POS, 147
  694 D1:DC72 23 94 -  -     .db VX_CALL0_POS, 148
  695 D1:DC74 19 94 -  -     .db VX_CALL1_POS, 148
  696 D1:DC76 23 95 -  -     .db VX_CALL0_POS, 149
  697 D1:DC78 19 95 -  -     .db VX_CALL1_POS, 149
  698 D1:DC7A 23 96 -  -     .db VX_CALL0_POS, 150
  699 D1:DC7C 19 96 -  -     .db VX_CALL1_POS, 150
  700 D1:DC7E 23 97 -  -     .db VX_CALL0_POS, 151
  701 D1:DC80 19 97 -  -     .db VX_CALL1_POS, 151
  702 D1:DC82 23 98 -  -     .db VX_CALL0_POS, 152
  703 D1:DC84 19 98 -  -     .db VX_CALL1_POS, 152
  704 D1:DC86 23 99 -  -     .db VX_CALL0_POS, 153
  705 D1:DC88 19 99 -  -     .db VX_CALL1_POS, 153
  706 D1:DC8A 23 9A -  -     .db VX_CALL0_POS, 154
  707 D1:DC8C 19 9A -  -     .db VX_CALL1_POS, 154
  708 D1:DC8E 23 9B -  -     .db VX_CALL0_POS, 155
  709 D1:DC90 19 9B -  -     .db VX_CALL1_POS, 155
  710 D1:DC92 23 9C -  -     .db VX_CALL0_POS, 156
  711 D1:DC94 19 9C -  -     .db VX_CALL1_POS, 156
  712 D1:DC96 23 9D -  -     .db VX_CALL0_POS, 157
  713 D1:DC98 19 9D -  -     .db VX_CALL1_POS, 157
  714 D1:DC9A 23 9E -  -     .db VX_CALL0_POS, 158
  715 D1:DC9C 19 9E -  -     .db VX_CALL1_POS, 158
  716 D1:DC9E 23 9F -  -     .db VX_CALL0_POS, 159
  717 D1:DCA0 19 9F -  -     .db VX_CALL1_POS, 159
  718 D1:DCA2 23 A0 -  -     .db VX_CALL0_POS, 160
  719 D1:DCA4 19 A0 -  -     .db VX_CALL1_POS, 160
  720 D1:DCA6 -  -  -  -  vxPixelShaderExitLUT:
  721 D1:DCA6 4C 00 -  -     .db VX_CALL_EXIT, 0
  722 D1:DCA8 -  -  -  -  #comment
  723 D1:DCA8             
  724 D1:DCA8             lut table :
  725 D1:DCA8             ; aligned to 2 boundary
  726 D1:DCA8             ; call is within vxPixelShader and vxPixelShader+VX_PIXEL_SHADER_SUBSIZE
  727 D1:DCA8             ; for length = 0 jump to vxPixelShader+VX_PIXEL_SHADER_SUBSIZE*2+2
  728 D1:DCA8             ; for length < 0 jump to vxPixelShader+VX_PIXEL_SHADER_SUBSIZE-1 and VX_PIXEL_SHADER_SUBSIZE*2+vxPixelShader-1
  729 D1:DCA8             
  730 D1:DCA8             
  731 D1:DCA8             
  732 D1:DCA8             define	ld (de+)	ld (de),a \ inc de
  733 D1:DCA8             #define	or (de+)	ex de,hl \ or (hl) \ ex de,hl \ inc de
  734 D1:DCA8             #define	and (de+)	ex de,hl \ and (hl) \ ex de,hl \ inc de
  735 D1:DCA8             #define	xor (de+)	ex de,hl \ xor (hl) \ ex de,hl \ inc de
  736 D1:DCA8             
  737 D1:DCA8             ; lightning : 11 bytes, 32 cycles/pixel
  738 D1:DCA8                 ld  a, h    ; get v to pass to next part
  739 D1:DCA8                 add hl, sp  ; v=v+dv (du on high)
  740 D1:DCA8                 exx		; swap
  741 D1:DCA8                 ld  h, a    ; paste v on high byte
  742 D1:DCA8                 ld  c, (hl) ; fetch texture, and get index to color table in same time
  743 D1:DCA8                 adc hl, de  ; u=u+du (on low)
  744 D1:DCA8                 ld  a, (bc) ; fetch lighted color
  745 D1:DCA8                 exx		; swap
  746 D1:DCA8                 ldpx		; write pixel and next
  747 D1:DCA8             
  748 D1:DCA8             
  749 D1:DCA8             vxRegister0Interpolation:
  750 D1:DCA8             ; bc = y-size, ix = adress
  751 D1:DCA8             ; de= error , iy = position
  752 D1:DCA8             ; sp= 320, sps = stack
  753 D1:DCA8             	ld	a, c
  754 D1:DCA8             ; compute error
  755 D1:DCA8             	scf
  756 D1:DCA8             	sbc	hl, hl
  757 D1:DCA8             	ld	l, a
  758 D1:DCA8             	sbc	hl, de
  759 D1:DCA8             	sra	h
  760 D1:DCA8             	rr	l
  761 D1:DCA8             	neg
  762 D1:DCA8             vxRegister0Loop:
  763 D1:DCA8             	add	hl, de
  764 D1:DCA8             	jr	nc, vxRegister0Next
  765 D1:DCA8             vxRegister0Restore:
  766 D1:DCA8             	.db	$DD
  767 D1:DCA8             vxRegister0Increment=$
  768 D1:DCA8             	nop
  769 D1:DCA8             	add	hl, bc
  770 D1:DCA8             	jr	c, vxRegister0Restore
  771 D1:DCA8             vxRegister0Next:
  772 D1:DCA8             	ld	(iy+VX_REGISTER0), ix		; this is framebuffer adress
  773 D1:DCA8             	add	ix, sp
  774 D1:DCA8             	lea	iy, iy+12
  775 D1:DCA8             	dec	a
  776 D1:DCA8             	jr	nz, vxRegister0Loop
  777 D1:DCA8             ; magic end bytes
  778 D1:DCA8             	ld	bc, vxPixelShaderExitLUT/2+1
  779 D1:DCA8             	ld	(iy+VX_REGISTER1), bc
  780 D1:DCA8             	ld	bc, -1
  781 D1:DCA8             	ld	(iy+VX_REGISTER0), bc
  782 D1:DCA8             
  783 D1:DCA8             ;; lutadress = (-fb_reg1+LUTbase/2+fb_reg0)*2 = (fb_reg0-fb_reg1)*2+LUTbase
  784 D1:DCA8             
  785 D1:DCA8             ; do calculation for longest-smallest
  786 D1:DCA8             ; if length > 0, longest is at right, so draw right to left
  787 D1:DCA8             
  788 D1:DCA8             
  789 D1:DCA8             #endcomment
Listing for file "C:\Users\Zeromus\Documents\GitHub\Virtual3D\vxShaderInterpolation.ez80"
  596 D1:DCA8 -  -  -  -  
  597 D1:DCA8 -  -  -  -  
  598 D1:DCA8 -  -  -  -  vxTexturePolygon:
  599 D1:DCA8 D6 02 -  -  	sub	a, 2
  600 D1:DCAA 47 -  -  -  	ld	b, a
  601 D1:DCAB FD 27 00 -  	ld	hl, (iy+0)
  602 D1:DCAE -  -  -  -  vxTextureCyclicLoop:
  603 D1:DCAE C5 -  -  -  	push	bc
  604 D1:DCAF FD 07 03 -  	ld	bc, (iy+3)
  605 D1:DCB2 FD 17 06 -  	ld	de, (iy+6)
  606 D1:DCB5 E5 -  -  -  	push	hl
  607 D1:DCB6 FD E5 -  -  	push	iy
  608 D1:DCB8 E5 -  -  -  	push	hl
  609 D1:DCB9 C5 -  -  -  	push	bc
  610 D1:DCBA D5 -  -  -  	push	de
  611 D1:DCBB CD 55 BD D1 	call	vxNClip
  612 D1:DCBF D1 -  -  -  	pop	de
  613 D1:DCC0 C1 -  -  -  	pop	bc
  614 D1:DCC1 E1 -  -  -  	pop	hl
  615 D1:DCC2 D4 0D 08 E3 	call	nc,vxTextureTriangleNoClip
  616 D1:DCC6 FD E1 -  -  	pop	iy
  617 D1:DCC8 ED 33 03 -  	lea	iy, iy+3
  618 D1:DCCB E1 -  -  -  	pop	hl
  619 D1:DCCC C1 -  -  -  	pop	bc
  620 D1:DCCD 05 -  -  -  	dec	b
  621 D1:DCCE C2 AE DC D1 	jp	nz, vxTextureCyclicLoop
  622 D1:DCD2 C9 -  -  -  	ret
  623 D1:DCD3 -  -  -  -  
  624 D1:DCD3 -  -  -  -  VX_INVERSE_TABLE:
  625 D1:DCD3 FE FF -  -  .dw 65534	; position 0, so nothing in fact (div by 0)
  626 D1:DCD5 FE FF -  -  .dw 65534	; corrected
  627 D1:DCD7 FF 7F -  -  .dw 32767
  628 D1:DCD9 54 55 -  -  .dw 21844
  629 D1:DCDB FF 3F -  -  .dw 16383
  630 D1:DCDD 32 33 -  -  .dw 13106
  631 D1:DCDF A9 2A -  -  .dw 10921
  632 D1:DCE1 91 24 -  -  .dw 9361
  633 D1:DCE3 FF 1F -  -  .dw 8191
  634 D1:DCE5 70 1C -  -  .dw 7280
  635 D1:DCE7 98 19 -  -  .dw 6552
  636 D1:DCE9 44 17 -  -  .dw 5956
  637 D1:DCEB 54 15 -  -  .dw 5460
  638 D1:DCED B0 13 -  -  .dw 5040
  639 D1:DCEF 48 12 -  -  .dw 4680
  640 D1:DCF1 10 11 -  -  .dw 4368
  641 D1:DCF3 FF 0F -  -  .dw 4095
  642 D1:DCF5 0E 0F -  -  .dw 3854
  643 D1:DCF7 37 0E -  -  .dw 3639
  644 D1:DCF9 78 0D -  -  .dw 3448
  645 D1:DCFB CB 0C -  -  .dw 3275
  646 D1:DCFD 2F 0C -  -  .dw 3119
  647 D1:DCFF A1 0B -  -  .dw 2977
  648 D1:DD01 20 0B -  -  .dw 2848
  649 D1:DD03 A9 0A -  -  .dw 2729
  650 D1:DD05 3C 0A -  -  .dw 2620
  651 D1:DD07 D7 09 -  -  .dw 2519
  652 D1:DD09 7A 09 -  -  .dw 2426
  653 D1:DD0B 23 09 -  -  .dw 2339
  654 D1:DD0D D2 08 -  -  .dw 2258
  655 D1:DD0F 87 08 -  -  .dw 2183
  656 D1:DD11 41 08 -  -  .dw 2113
  657 D1:DD13 FF 07 -  -  .dw 2047
  658 D1:DD15 C0 07 -  -  .dw 1984
  659 D1:DD17 86 07 -  -  .dw 1926
  660 D1:DD19 4F 07 -  -  .dw 1871
  661 D1:DD1B 1B 07 -  -  .dw 1819
  662 D1:DD1D EA 06 -  -  .dw 1770
  663 D1:DD1F BB 06 -  -  .dw 1723
  664 D1:DD21 8F 06 -  -  .dw 1679
  665 D1:DD23 65 06 -  -  .dw 1637
  666 D1:DD25 3D 06 -  -  .dw 1597
  667 D1:DD27 17 06 -  -  .dw 1559
  668 D1:DD29 F3 05 -  -  .dw 1523
  669 D1:DD2B D0 05 -  -  .dw 1488
  670 D1:DD2D AF 05 -  -  .dw 1455
  671 D1:DD2F 8F 05 -  -  .dw 1423
  672 D1:DD31 71 05 -  -  .dw 1393
  673 D1:DD33 54 05 -  -  .dw 1364
  674 D1:DD35 38 05 -  -  .dw 1336
  675 D1:DD37 1D 05 -  -  .dw 1309
  676 D1:DD39 04 05 -  -  .dw 1284
  677 D1:DD3B EB 04 -  -  .dw 1259
  678 D1:DD3D D3 04 -  -  .dw 1235
  679 D1:DD3F BC 04 -  -  .dw 1212
  680 D1:DD41 A6 04 -  -  .dw 1190
  681 D1:DD43 91 04 -  -  .dw 1169
  682 D1:DD45 7C 04 -  -  .dw 1148
  683 D1:DD47 68 04 -  -  .dw 1128
  684 D1:DD49 55 04 -  -  .dw 1109
  685 D1:DD4B 43 04 -  -  .dw 1091
  686 D1:DD4D 31 04 -  -  .dw 1073
  687 D1:DD4F 20 04 -  -  .dw 1056
  688 D1:DD51 0F 04 -  -  .dw 1039
  689 D1:DD53 FF 03 -  -  .dw 1023
  690 D1:DD55 EF 03 -  -  .dw 1007
  691 D1:DD57 DF 03 -  -  .dw 991
  692 D1:DD59 D1 03 -  -  .dw 977
  693 D1:DD5B C2 03 -  -  .dw 962
  694 D1:DD5D B4 03 -  -  .dw 948
  695 D1:DD5F A7 03 -  -  .dw 935
  696 D1:DD61 9A 03 -  -  .dw 922
  697 D1:DD63 8D 03 -  -  .dw 909
  698 D1:DD65 80 03 -  -  .dw 896
  699 D1:DD67 74 03 -  -  .dw 884
  700 D1:DD69 68 03 -  -  .dw 872
  701 D1:DD6B 5D 03 -  -  .dw 861
  702 D1:DD6D 52 03 -  -  .dw 850
  703 D1:DD6F 47 03 -  -  .dw 839
  704 D1:DD71 3C 03 -  -  .dw 828
  705 D1:DD73 32 03 -  -  .dw 818
  706 D1:DD75 28 03 -  -  .dw 808
  707 D1:DD77 1E 03 -  -  .dw 798
  708 D1:DD79 14 03 -  -  .dw 788
  709 D1:DD7B 0B 03 -  -  .dw 779
  710 D1:DD7D 02 03 -  -  .dw 770
  711 D1:DD7F F9 02 -  -  .dw 761
  712 D1:DD81 F0 02 -  -  .dw 752
  713 D1:DD83 E7 02 -  -  .dw 743
  714 D1:DD85 DF 02 -  -  .dw 735
  715 D1:DD87 D7 02 -  -  .dw 727
  716 D1:DD89 CF 02 -  -  .dw 719
  717 D1:DD8B C7 02 -  -  .dw 711
  718 D1:DD8D BF 02 -  -  .dw 703
  719 D1:DD8F B8 02 -  -  .dw 696
  720 D1:DD91 B0 02 -  -  .dw 688
  721 D1:DD93 A9 02 -  -  .dw 681
  722 D1:DD95 A2 02 -  -  .dw 674
  723 D1:DD97 9B 02 -  -  .dw 667
  724 D1:DD99 94 02 -  -  .dw 660
  725 D1:DD9B 8E 02 -  -  .dw 654
  726 D1:DD9D 87 02 -  -  .dw 647
  727 D1:DD9F 81 02 -  -  .dw 641
  728 D1:DDA1 7B 02 -  -  .dw 635
  729 D1:DDA3 75 02 -  -  .dw 629
  730 D1:DDA5 6F 02 -  -  .dw 623
  731 D1:DDA7 69 02 -  -  .dw 617
  732 D1:DDA9 63 02 -  -  .dw 611
  733 D1:DDAB 5D 02 -  -  .dw 605
  734 D1:DDAD 58 02 -  -  .dw 600
  735 D1:DDAF 52 02 -  -  .dw 594
  736 D1:DDB1 4D 02 -  -  .dw 589
  737 D1:DDB3 48 02 -  -  .dw 584
  738 D1:DDB5 42 02 -  -  .dw 578
  739 D1:DDB7 3D 02 -  -  .dw 573
  740 D1:DDB9 38 02 -  -  .dw 568
  741 D1:DDBB 33 02 -  -  .dw 563
  742 D1:DDBD 2F 02 -  -  .dw 559
  743 D1:DDBF 2A 02 -  -  .dw 554
  744 D1:DDC1 25 02 -  -  .dw 549
  745 D1:DDC3 21 02 -  -  .dw 545
  746 D1:DDC5 1C 02 -  -  .dw 540
  747 D1:DDC7 18 02 -  -  .dw 536
  748 D1:DDC9 13 02 -  -  .dw 531
  749 D1:DDCB 0F 02 -  -  .dw 527
  750 D1:DDCD 0B 02 -  -  .dw 523
  751 D1:DDCF 07 02 -  -  .dw 519
  752 D1:DDD1 03 02 -  -  .dw 515
  753 D1:DDD3 FF 01 -  -  .dw 511
  754 D1:DDD5 FB 01 -  -  .dw 507
  755 D1:DDD7 F7 01 -  -  .dw 503
  756 D1:DDD9 F3 01 -  -  .dw 499
  757 D1:DDDB EF 01 -  -  .dw 495
  758 D1:DDDD EB 01 -  -  .dw 491
  759 D1:DDDF E8 01 -  -  .dw 488
  760 D1:DDE1 E4 01 -  -  .dw 484
  761 D1:DDE3 E0 01 -  -  .dw 480
  762 D1:DDE5 DD 01 -  -  .dw 477
  763 D1:DDE7 D9 01 -  -  .dw 473
  764 D1:DDE9 D6 01 -  -  .dw 470
  765 D1:DDEB D3 01 -  -  .dw 467
  766 D1:DDED CF 01 -  -  .dw 463
  767 D1:DDEF CC 01 -  -  .dw 460
  768 D1:DDF1 C9 01 -  -  .dw 457
  769 D1:DDF3 C6 01 -  -  .dw 454
  770 D1:DDF5 C2 01 -  -  .dw 450
  771 D1:DDF7 BF 01 -  -  .dw 447
  772 D1:DDF9 BC 01 -  -  .dw 444
  773 D1:DDFB B9 01 -  -  .dw 441
  774 D1:DDFD B6 01 -  -  .dw 438
  775 D1:DDFF B3 01 -  -  .dw 435
  776 D1:DE01 B1 01 -  -  .dw 433
  777 D1:DE03 AE 01 -  -  .dw 430
  778 D1:DE05 AB 01 -  -  .dw 427
  779 D1:DE07 A8 01 -  -  .dw 424
  780 D1:DE09 A5 01 -  -  .dw 421
  781 D1:DE0B A3 01 -  -  .dw 419
  782 D1:DE0D A0 01 -  -  .dw 416
  783 D1:DE0F 9D 01 -  -  .dw 413
  784 D1:DE11 9B 01 -  -  .dw 411
  785 D1:DE13 98 01 -  -  .dw 408
  786 D1:DE15 96 01 -  -  .dw 406
  787 D1:DE17 93 01 -  -  .dw 403
  788 D1:DE19 91 01 -  -  .dw 401
  789 D1:DE1B 8E 01 -  -  .dw 398
  790 D1:DE1D 8C 01 -  -  .dw 396
  791 D1:DE1F 89 01 -  -  .dw 393
  792 D1:DE21 87 01 -  -  .dw 391
  793 D1:DE23 85 01 -  -  .dw 389
  794 D1:DE25 82 01 -  -  .dw 386
  795 D1:DE27 80 01 -  -  .dw 384
  796 D1:DE29 7E 01 -  -  .dw 382
  797 D1:DE2B 7C 01 -  -  .dw 380
  798 D1:DE2D 79 01 -  -  .dw 377
  799 D1:DE2F 77 01 -  -  .dw 375
  800 D1:DE31 75 01 -  -  .dw 373
  801 D1:DE33 73 01 -  -  .dw 371
  802 D1:DE35 71 01 -  -  .dw 369
  803 D1:DE37 6F 01 -  -  .dw 367
  804 D1:DE39 6D 01 -  -  .dw 365
  805 D1:DE3B 6B 01 -  -  .dw 363
  806 D1:DE3D 69 01 -  -  .dw 361
  807 D1:DE3F 67 01 -  -  .dw 359
  808 D1:DE41 65 01 -  -  .dw 357
  809 D1:DE43 63 01 -  -  .dw 355
  810 D1:DE45 61 01 -  -  .dw 353
  811 D1:DE47 5F 01 -  -  .dw 351
  812 D1:DE49 5D 01 -  -  .dw 349
  813 D1:DE4B 5B 01 -  -  .dw 347
  814 D1:DE4D 59 01 -  -  .dw 345
  815 D1:DE4F 57 01 -  -  .dw 343
  816 D1:DE51 56 01 -  -  .dw 342
  817 D1:DE53 54 01 -  -  .dw 340
  818 D1:DE55 52 01 -  -  .dw 338
  819 D1:DE57 50 01 -  -  .dw 336
  820 D1:DE59 4F 01 -  -  .dw 335
  821 D1:DE5B 4D 01 -  -  .dw 333
  822 D1:DE5D 4B 01 -  -  .dw 331
  823 D1:DE5F 49 01 -  -  .dw 329
  824 D1:DE61 48 01 -  -  .dw 328
  825 D1:DE63 46 01 -  -  .dw 326
  826 D1:DE65 45 01 -  -  .dw 325
  827 D1:DE67 43 01 -  -  .dw 323
  828 D1:DE69 41 01 -  -  .dw 321
  829 D1:DE6B 40 01 -  -  .dw 320
  830 D1:DE6D 3E 01 -  -  .dw 318
  831 D1:DE6F 3D 01 -  -  .dw 317
  832 D1:DE71 3B 01 -  -  .dw 315
  833 D1:DE73 3A 01 -  -  .dw 314
  834 D1:DE75 38 01 -  -  .dw 312
  835 D1:DE77 37 01 -  -  .dw 311
  836 D1:DE79 35 01 -  -  .dw 309
  837 D1:DE7B 34 01 -  -  .dw 308
  838 D1:DE7D 32 01 -  -  .dw 306
  839 D1:DE7F 31 01 -  -  .dw 305
  840 D1:DE81 2F 01 -  -  .dw 303
  841 D1:DE83 2E 01 -  -  .dw 302
  842 D1:DE85 2D 01 -  -  .dw 301
  843 D1:DE87 2B 01 -  -  .dw 299
  844 D1:DE89 2A 01 -  -  .dw 298
  845 D1:DE8B 28 01 -  -  .dw 296
  846 D1:DE8D 27 01 -  -  .dw 295
  847 D1:DE8F 26 01 -  -  .dw 294
  848 D1:DE91 24 01 -  -  .dw 292
  849 D1:DE93 23 01 -  -  .dw 291
  850 D1:DE95 22 01 -  -  .dw 290
  851 D1:DE97 20 01 -  -  .dw 288
  852 D1:DE99 1F 01 -  -  .dw 287
  853 D1:DE9B 1E 01 -  -  .dw 286
  854 D1:DE9D 1D 01 -  -  .dw 285
  855 D1:DE9F 1B 01 -  -  .dw 283
  856 D1:DEA1 1A 01 -  -  .dw 282
  857 D1:DEA3 19 01 -  -  .dw 281
  858 D1:DEA5 18 01 -  -  .dw 280
  859 D1:DEA7 17 01 -  -  .dw 279
  860 D1:DEA9 15 01 -  -  .dw 277
  861 D1:DEAB 14 01 -  -  .dw 276
  862 D1:DEAD 13 01 -  -  .dw 275
  863 D1:DEAF 12 01 -  -  .dw 274
  864 D1:DEB1 11 01 -  -  .dw 273
  865 D1:DEB3 10 01 -  -  .dw 272
  866 D1:DEB5 0E 01 -  -  .dw 270
  867 D1:DEB7 0D 01 -  -  .dw 269
  868 D1:DEB9 0C 01 -  -  .dw 268
  869 D1:DEBB 0B 01 -  -  .dw 267
  870 D1:DEBD 0A 01 -  -  .dw 266
  871 D1:DEBF 09 01 -  -  .dw 265
  872 D1:DEC1 08 01 -  -  .dw 264
  873 D1:DEC3 07 01 -  -  .dw 263
  874 D1:DEC5 06 01 -  -  .dw 262
  875 D1:DEC7 05 01 -  -  .dw 261
  876 D1:DEC9 04 01 -  -  .dw 260
  877 D1:DECB 03 01 -  -  .dw 259
  878 D1:DECD 02 01 -  -  .dw 258
  879 D1:DECF 01 01 -  -  .dw 257
  880 D1:DED1 00 01 -  -  .dw 256
  881 D1:DED3 FF 00 -  -  .dw 255
  882 D1:DED5 FE 00 -  -  .dw 254
  883 D1:DED7 FD 00 -  -  .dw 253
  884 D1:DED9 FC 00 -  -  .dw 252
  885 D1:DEDB FB 00 -  -  .dw 251
  886 D1:DEDD FA 00 -  -  .dw 250
  887 D1:DEDF F9 00 -  -  .dw 249
  888 D1:DEE1 F8 00 -  -  .dw 248
  889 D1:DEE3 F7 00 -  -  .dw 247
  890 D1:DEE5 F6 00 -  -  .dw 246
  891 D1:DEE7 F5 00 -  -  .dw 245
  892 D1:DEE9 F4 00 -  -  .dw 244
  893 D1:DEEB F3 00 -  -  .dw 243
  894 D1:DEED F2 00 -  -  .dw 242
  895 D1:DEEF F1 00 -  -  .dw 241
  896 D1:DEF1 F0 00 -  -  .dw 240
  897 D1:DEF3 EF 00 -  -  .dw 239
  898 D1:DEF5 EF 00 -  -  .dw 239
  899 D1:DEF7 EE 00 -  -  .dw 238
  900 D1:DEF9 ED 00 -  -  .dw 237
  901 D1:DEFB EC 00 -  -  .dw 236
  902 D1:DEFD EB 00 -  -  .dw 235
  903 D1:DEFF EA 00 -  -  .dw 234
  904 D1:DF01 E9 00 -  -  .dw 233
  905 D1:DF03 E9 00 -  -  .dw 233
  906 D1:DF05 E8 00 -  -  .dw 232
  907 D1:DF07 E7 00 -  -  .dw 231
  908 D1:DF09 E6 00 -  -  .dw 230
  909 D1:DF0B E5 00 -  -  .dw 229
  910 D1:DF0D E4 00 -  -  .dw 228
  911 D1:DF0F E4 00 -  -  .dw 228
  912 D1:DF11 E3 00 -  -  .dw 227
  913 D1:DF13 E2 00 -  -  .dw 226
  914 D1:DF15 E1 00 -  -  .dw 225
  915 D1:DF17 E0 00 -  -  .dw 224
  916 D1:DF19 E0 00 -  -  .dw 224
  917 D1:DF1B DF 00 -  -  .dw 223
  918 D1:DF1D DE 00 -  -  .dw 222
  919 D1:DF1F DD 00 -  -  .dw 221
  920 D1:DF21 DD 00 -  -  .dw 221
  921 D1:DF23 DC 00 -  -  .dw 220
  922 D1:DF25 DB 00 -  -  .dw 219
  923 D1:DF27 DA 00 -  -  .dw 218
  924 D1:DF29 DA 00 -  -  .dw 218
  925 D1:DF2B D9 00 -  -  .dw 217
  926 D1:DF2D D8 00 -  -  .dw 216
  927 D1:DF2F D8 00 -  -  .dw 216
  928 D1:DF31 D7 00 -  -  .dw 215
  929 D1:DF33 D6 00 -  -  .dw 214
  930 D1:DF35 D5 00 -  -  .dw 213
  931 D1:DF37 D5 00 -  -  .dw 213
  932 D1:DF39 D4 00 -  -  .dw 212
  933 D1:DF3B D3 00 -  -  .dw 211
  934 D1:DF3D D3 00 -  -  .dw 211
  935 D1:DF3F D2 00 -  -  .dw 210
  936 D1:DF41 D1 00 -  -  .dw 209
  937 D1:DF43 D1 00 -  -  .dw 209
  938 D1:DF45 D0 00 -  -  .dw 208
  939 D1:DF47 CF 00 -  -  .dw 207
  940 D1:DF49 CF 00 -  -  .dw 207
  941 D1:DF4B CE 00 -  -  .dw 206
  942 D1:DF4D CD 00 -  -  .dw 205
  943 D1:DF4F CD 00 -  -  .dw 205
  944 D1:DF51 CC 00 -  -  .dw 204
Listing for file "C:\Users\Zeromus\Documents\GitHub\Virtual3D\vxMain.ez80"
   13 D1:DF53 -  -  -  -  #include	"vxData.inc"
Listing for file "C:\Users\Zeromus\Documents\GitHub\Virtual3D\vxData.inc"
    1 D1:DF53 -  -  -  -  ; lightmap
    2 D1:DF53 -  -  -  -  #define	db	.db
    3 D1:DF53 -  -  -  -  VX_COLOR_LUT_DATA:
    4 D1:DF53 00 00 00 00 
              00 00 00 00 
              00 00 00 00 
              00 00 00 00 
              00 00 00 00 
              00 00 00 00 
              00 00 00 00 
              00 00 00 00 
              00 00 00 00 
              00 00 00 00 
              00 00 00 00 
              00 00 00 00 
              00 00 00 00 
              00 00 00 00 
              00 00 00 00 
              00 00 00 00 
              00 00 00 00 
              00 00 00 00 
              00 00 00 00 
              00 00 00 00 
              00 00 00 00 
              00 00 00 00 
              00 00 00 00 
              00 00 00 00 
              00 00 00 00 
              00 00 00 00 
              00 00 00 00 
              00 00 00 00 
              00 00 00 00 
              00 00 00 00 
              00 00 00 00 
              00 00 00 00 
              00 00 00 00 
              00 00 00 00 
              00 00 00 00 
              00 00 00 00 
              00 00 00 00 
              00 00 00 00 
              00 00 00 00 
              00 00 00 00 
              00 00 00 00 
              00 00 00 00 
              00 00 00 00 
              00 00 00 00 
              00 00 00 00 
              00 00 00 00 
              00 00 00 00 
              00 00 00 00 
              00 00 00 00 
              00 00 00 00 
              00 00 00 00 
              00 00 00 00 
              00 00 00 00 
              00 00 00 00 
              00 00 00 00 
              00 00 00 00 
              00 00 00 00 
              00 00 00 00 
              00 00 00 00 
              00 00 00 00 
              00 00 00 00 
              00 00 00 00 
              00 00 00 00 
              00 00 00 00 
              00 00 00 00 
              00 00 00 00 
              00 00 00 00 
              00 00 00 00 
              00 00 00 00 
              00 00 00 00 
              00 00 00 00 
              00 00 00 00 
              00 00 00 00 
              00 00 00 00 
              00 00 00 00 
              00 00 00 00 
              00 00 00 00 
              00 00 00 00 
              00 00 00 00 
              00 00 00 00 
              00 00 00 00 
              00 00 00 00 
              00 00 00 00 
              00 00 00 00 
              00 00 00 00 
              00 00 00 00 
              00 00 00 00 
              00 00 00 00 
              00 00 00 00 
              00 00 00 00 
              00 00 00 00 
              00 00 00 00 
              00 00 00 00 
              00 00 00 00 
              00 00 00 00 
              00 00 00 00 
              00 00 00 00 
              00 00 00 00 
              00 00 00 00 
              00 00 00 00 
              00 00 00 00 
              00 00 00 00 
              00 00 00 00 
              00 00 00 00 
              00 00 00 00 
              00 00 00 00 
              00 00 00 00 
              00 00 00 00 
              00 00 00 00 
              00 00 00 00 
              00 00 00 00 
              00 00 00 00 
              00 00 00 00 
              00 00 00 00 
              00 00 00 00 
              00 00 00 00 
              00 00 00 00 
              00 00 00 00 
              00 00 00 00 
              00 00 00 00 
              00 00 00 00 
              00 00 00 00 
              00 00 00 00 
              00 00 00 00 
              00 00 00 00 
              00 00 00 00 
              00 00 00 00 
              00 00 00 00 
              00 00 00 00 
              00 00 00 01 
              00 00 00 00 
              00 00 00 01 
              00 00 00 00 
              00 00 00 01 
              00 00 00 00 
              00 00 00 01 
              00 00 00 00 
              00 00 00 01 
              00 00 00 00 
              00 00 00 01 
              00 00 00 00 
              00 00 00 01 
              00 00 00 00 
              00 00 00 01 
              00 00 00 00 
              00 00 00 01 
              00 00 00 00 
              00 00 00 01 
              00 00 00 00 
              00 00 00 01 
              00 00 00 00 
              00 00 00 01 
              00 00 00 00 
              00 00 00 01 
              00 00 00 00 
              00 00 00 01 
              00 00 00 00 
              00 00 00 01 
              00 00 00 00 
              00 00 00 01 
              00 00 00 00 
              00 00 00 01 
              00 00 00 00 
              00 00 00 01 
              00 00 00 00 
              00 00 00 01 
              00 00 00 00 
              00 00 00 01 
              00 00 00 00 
              00 00 00 01 
              00 00 00 00 
              00 00 00 01 
              00 00 00 00 
              00 00 00 01 
              00 00 00 00 
              00 00 00 01 
              00 00 00 00 
              00 00 00 01 
              00 00 00 00 
              00 00 00 01 
              00 00 00 00 
              00 00 00 01 
              00 00 00 00 
              00 00 00 01 
              20 20 20 20 
              20 20 20 21 
              20 20 20 20 
              20 20 20 21 
              20 20 20 20 
              20 20 20 21 
              20 20 20 20 
              20 20 20 21 
              00 00 00 00 
              00 01 01 01 
              00 00 00 00 
              00 01 01 01 
              00 00 00 00 
              00 01 01 01 
              00 00 00 00 
              00 01 01 01 
              00 00 00 00 
              00 01 01 01 
              00 00 00 00 
              00 01 01 01 
              00 00 00 00 
              00 01 01 01 
              00 00 00 00 
              00 01 01 01 
              00 00 00 00 
              00 01 01 01 
              00 00 00 00 
              00 01 01 01 
              00 00 00 00 
              00 01 01 01 
              00 00 00 00 
              00 01 01 01 
              00 00 00 00 
              00 01 01 01 
              00 00 00 00 
              00 01 01 01 
              00 00 00 00 
              00 01 01 01 
              00 00 00 00 
              00 01 01 01 
              00 00 00 00 
              00 01 01 01 
              00 00 00 00 
              00 01 01 01 
              00 00 00 00 
              00 01 01 01 
              00 00 00 00 
              00 01 01 01 
              20 20 20 20 
              20 21 21 21 
              20 20 20 20 
              20 21 21 21 
              20 20 20 20 
              20 21 21 21 
              20 20 20 20 
              20 21 21 21 
              20 20 20 20 
              20 21 21 21 
              20 20 20 20 
              20 21 21 21 
              20 20 20 20 
              20 21 21 21 
              20 20 20 20 
              20 21 21 21 
              20 20 20 20 
              20 21 21 21 
              20 20 20 20 
              20 21 21 21 
              20 20 20 20 
              20 21 21 21 
              20 20 20 20 
              20 21 21 21 
              00 00 00 00 
              01 01 01 01 
              00 00 00 00 
              01 01 01 01 
              00 00 00 00 
              01 01 01 01 
              00 00 00 00 
              01 01 01 01 
              00 00 00 00 
              01 01 01 01 
              00 00 00 00 
              01 01 01 01 
              00 00 00 00 
              01 01 01 01 
              00 00 00 00 
              01 01 01 01 
              00 00 00 00 
              01 01 01 01 
              00 00 00 00 
              01 01 01 01 
              00 00 00 00 
              01 01 01 01 
              00 00 00 00 
              01 01 01 01 
              00 00 00 00 
              01 01 01 01 
              00 00 00 00 
              01 01 01 01 
              00 00 00 00 
              01 01 01 01 
              00 00 00 00 
              01 01 01 01 
              20 20 20 20 
              21 21 21 21 
              20 20 20 20 
              21 21 21 21 
              20 20 20 20 
              21 21 21 21 
              20 20 20 20 
              21 21 21 21 
              20 20 20 20 
              21 21 21 21 
              20 20 20 20 
              21 21 21 21 
              20 20 20 20 
              21 21 21 21 
              20 20 20 20 
              21 21 21 21 
              20 20 20 20 
              21 21 21 21 
              20 20 20 20 
              21 21 21 21 
              20 20 20 20 
              21 21 21 21 
              20 20 20 20 
              21 21 21 21 
              20 20 20 20 
              21 21 21 21 
              20 20 20 20 
              21 21 21 21 
              20 20 20 20 
              21 21 21 21 
              20 20 20 20 
              21 21 21 21 
              00 00 00 01 
              01 01 02 02 
              00 00 00 01 
              01 01 02 02 
              00 00 00 01 
              01 01 02 02 
              08 08 08 09 
              09 09 0A 0A 
              00 00 00 01 
              01 01 02 02 
              00 00 00 01 
              01 01 02 02 
              00 00 00 01 
              01 01 02 02 
              08 08 08 09 
              09 09 0A 0A 
              00 00 00 01 
              01 01 02 02 
              00 00 00 01 
              01 01 02 02 
              00 00 00 01 
              01 01 02 02 
              08 08 08 09 
              09 09 0A 0A 
              20 20 20 21 
              21 21 22 22 
              20 20 20 21 
              21 21 22 22 
              20 20 20 21 
              21 21 22 22 
              28 28 28 29 
              29 29 2A 2A 
              20 20 20 21 
              21 21 22 22 
              20 20 20 21 
              21 21 22 22 
              20 20 20 21 
              21 21 22 22 
              28 28 28 29 
              29 29 2A 2A 
              20 20 20 21 
              21 21 22 22 
              20 20 20 21 
              21 21 22 22 
              20 20 20 21 
              21 21 22 22 
              28 28 28 29 
              29 29 2A 2A 
              40 40 40 41 
              41 41 42 42 
              40 40 40 41 
              41 41 42 42 
              40 40 40 41 
              41 41 42 42 
              48 48 48 49 
              49 49 4A 4A 
              40 40 40 41 
              41 41 42 42 
              40 40 40 41 
              41 41 42 42 
              40 40 40 41 
              41 41 42 42 
              48 48 48 49 
              49 49 4A 4A 
              00 00 00 01 
              01 02 02 02 
              00 00 00 01 
              01 02 02 02 
              00 00 00 01 
              01 02 02 02 
              08 08 08 09 
              09 0A 0A 0A 
              00 00 00 01 
              01 02 02 02 
              00 00 00 01 
              01 02 02 02 
              00 00 00 01 
              01 02 02 02 
              08 08 08 09 
              09 0A 0A 0A 
              00 00 00 01 
              01 02 02 02 
              00 00 00 01 
              01 02 02 02 
              00 00 00 01 
              01 02 02 02 
              08 08 08 09 
              09 0A 0A 0A 
              20 20 20 21 
              21 22 22 22 
              20 20 20 21 
              21 22 22 22 
              20 20 20 21 
              21 22 22 22 
              28 28 28 29 
              29 2A 2A 2A 
              20 20 20 21 
              21 22 22 22 
              20 20 20 21 
              21 22 22 22 
              20 20 20 21 
              21 22 22 22 
              28 28 28 29 
              29 2A 2A 2A 
              40 40 40 41 
              41 42 42 42 
              40 40 40 41 
              41 42 42 42 
              40 40 40 41 
              41 42 42 42 
              48 48 48 49 
              49 4A 4A 4A 
              40 40 40 41 
              41 42 42 42 
              40 40 40 41 
              41 42 42 42 
              40 40 40 41 
              41 42 42 42 
              48 48 48 49 
              49 4A 4A 4A 
              40 40 40 41 
              41 42 42 42 
              40 40 40 41 
              41 42 42 42 
              40 40 40 41 
              41 42 42 42 
              48 48 48 49 
              49 4A 4A 4A 
              00 00 01 01 
              01 02 02 03 
              00 00 01 01 
              01 02 02 03 
              08 08 09 09 
              09 0A 0A 0B 
              08 08 09 09 
              09 0A 0A 0B 
              00 00 01 01 
              01 02 02 03 
              00 00 01 01 
              01 02 02 03 
              08 08 09 09 
              09 0A 0A 0B 
              08 08 09 09 
              09 0A 0A 0B 
              20 20 21 21 
              21 22 22 23 
              20 20 21 21 
              21 22 22 23 
              28 28 29 29 
              29 2A 2A 2B 
              28 28 29 29 
              29 2A 2A 2B 
              20 20 21 21 
              21 22 22 23 
              20 20 21 21 
              21 22 22 23 
              28 28 29 29 
              29 2A 2A 2B 
              28 28 29 29 
              29 2A 2A 2B 
              20 20 21 21 
              21 22 22 23 
              20 20 21 21 
              21 22 22 23 
              28 28 29 29 
              29 2A 2A 2B 
              28 28 29 29 
              29 2A 2A 2B 
              40 40 41 41 
              41 42 42 43 
              40 40 41 41 
              41 42 42 43 
              48 48 49 49 
              49 4A 4A 4B 
              48 48 49 49 
              49 4A 4A 4B 
              40 40 41 41 
              41 42 42 43 
              40 40 41 41 
              41 42 42 43 
              48 48 49 49 
              49 4A 4A 4B 
              48 48 49 49 
              49 4A 4A 4B 
              60 60 61 61 
              61 62 62 63 
              60 60 61 61 
              61 62 62 63 
              68 68 69 69 
              69 6A 6A 6B 
              68 68 69 69 
              69 6A 6A 6B 
              00 00 01 01 
              02 02 03 03 
              00 00 01 01 
              02 02 03 03 
              08 08 09 09 
              0A 0A 0B 0B 
              08 08 09 09 
              0A 0A 0B 0B 
              00 00 01 01 
              02 02 03 03 
              00 00 01 01 
              02 02 03 03 
              08 08 09 09 
              0A 0A 0B 0B 
              08 08 09 09 
              0A 0A 0B 0B 
              20 20 21 21 
              22 22 23 23 
              20 20 21 21 
              22 22 23 23 
              28 28 29 29 
              2A 2A 2B 2B 
              28 28 29 29 
              2A 2A 2B 2B 
              20 20 21 21 
              22 22 23 23 
              20 20 21 21 
              22 22 23 23 
              28 28 29 29 
              2A 2A 2B 2B 
              28 28 29 29 
              2A 2A 2B 2B 
              40 40 41 41 
              42 42 43 43 
              40 40 41 41 
              42 42 43 43 
              48 48 49 49 
              4A 4A 4B 4B 
              48 48 49 49 
              4A 4A 4B 4B 
              40 40 41 41 
              42 42 43 43 
              40 40 41 41 
              42 42 43 43 
              48 48 49 49 
              4A 4A 4B 4B 
              48 48 49 49 
              4A 4A 4B 4B 
              60 60 61 61 
              62 62 63 63 
              60 60 61 61 
              62 62 63 63 
              68 68 69 69 
              6A 6A 6B 6B 
              68 68 69 69 
              6A 6A 6B 6B 
              60 60 61 61 
              62 62 63 63 
              60 60 61 61 
              62 62 63 63 
              68 68 69 69 
              6A 6A 6B 6B 
              68 68 69 69 
              6A 6A 6B 6B 
              00 00 01 01 
              02 02 03 04 
              00 00 01 01 
              02 02 03 04 
              08 08 09 09 
              0A 0A 0B 0C 
              08 08 09 09 
              0A 0A 0B 0C 
              00 00 01 01 
              02 02 03 04 
              00 00 01 01 
              02 02 03 04 
              08 08 09 09 
              0A 0A 0B 0C 
              08 08 09 09 
              0A 0A 0B 0C 
              20 20 21 21 
              22 22 23 24 
              20 20 21 21 
              22 22 23 24 
              28 28 29 29 
              2A 2A 2B 2C 
              28 28 29 29 
              2A 2A 2B 2C 
              20 20 21 21 
              22 22 23 24 
              20 20 21 21 
              22 22 23 24 
              28 28 29 29 
              2A 2A 2B 2C 
              28 28 29 29 
              2A 2A 2B 2C 
              40 40 41 41 
              42 42 43 44 
              40 40 41 41 
              42 42 43 44 
              48 48 49 49 
              4A 4A 4B 4C 
              48 48 49 49 
              4A 4A 4B 4C 
              40 40 41 41 
              42 42 43 44 
              40 40 41 41 
              42 42 43 44 
              48 48 49 49 
              4A 4A 4B 4C 
              48 48 49 49 
              4A 4A 4B 4C 
              60 60 61 61 
              62 62 63 64 
              60 60 61 61 
              62 62 63 64 
              68 68 69 69 
              6A 6A 6B 6C 
              68 68 69 69 
              6A 6A 6B 6C 
              80 80 81 81 
              82 82 83 84 
              80 80 81 81 
              82 82 83 84 
              88 88 89 89 
              8A 8A 8B 8C 
              88 88 89 89 
              8A 8A 8B 8C 
              00 00 01 02 
              02 03 03 04 
              00 00 01 02 
              02 03 03 04 
              08 08 09 0A 
              0A 0B 0B 0C 
              10 10 11 12 
              12 13 13 14 
              00 00 01 02 
              02 03 03 04 
              00 00 01 02 
              02 03 03 04 
              08 08 09 0A 
              0A 0B 0B 0C 
              10 10 11 12 
              12 13 13 14 
              20 20 21 22 
              22 23 23 24 
              20 20 21 22 
              22 23 23 24 
              28 28 29 2A 
              2A 2B 2B 2C 
              30 30 31 32 
              32 33 33 34 
              40 40 41 42 
              42 43 43 44 
              40 40 41 42 
              42 43 43 44 
              48 48 49 4A 
              4A 4B 4B 4C 
              50 50 51 52 
              52 53 53 54 
              40 40 41 42 
              42 43 43 44 
              40 40 41 42 
              42 43 43 44 
              48 48 49 4A 
              4A 4B 4B 4C 
              50 50 51 52 
              52 53 53 54 
              60 60 61 62 
              62 63 63 64 
              60 60 61 62 
              62 63 63 64 
              68 68 69 6A 
              6A 6B 6B 6C 
              70 70 71 72 
              72 73 73 74 
              60 60 61 62 
              62 63 63 64 
              60 60 61 62 
              62 63 63 64 
              68 68 69 6A 
              6A 6B 6B 6C 
              70 70 71 72 
              72 73 73 74 
              80 80 81 82 
              82 83 83 84 
              80 80 81 82 
              82 83 83 84 
              88 88 89 8A 
              8A 8B 8B 8C 
              90 90 91 92 
              92 93 93 94 
              00 00 01 02 
              02 03 04 04 
              00 00 01 02 
              02 03 04 04 
              08 08 09 0A 
              0A 0B 0C 0C 
              10 10 11 12 
              12 13 14 14 
              00 00 01 02 
              02 03 04 04 
              00 00 01 02 
              02 03 04 04 
              08 08 09 0A 
              0A 0B 0C 0C 
              10 10 11 12 
              12 13 14 14 
              20 20 21 22 
              22 23 24 24 
              20 20 21 22 
              22 23 24 24 
              28 28 29 2A 
              2A 2B 2C 2C 
              30 30 31 32 
              32 33 34 34 
              40 40 41 42 
              42 43 44 44 
              40 40 41 42 
              42 43 44 44 
              48 48 49 4A 
              4A 4B 4C 4C 
              50 50 51 52 
              52 53 54 54 
              40 40 41 42 
              42 43 44 44 
              40 40 41 42 
              42 43 44 44 
              48 48 49 4A 
              4A 4B 4C 4C 
              50 50 51 52 
              52 53 54 54 
              60 60 61 62 
              62 63 64 64 
              60 60 61 62 
              62 63 64 64 
              68 68 69 6A 
              6A 6B 6C 6C 
              70 70 71 72 
              72 73 74 74 
              80 80 81 82 
              82 83 84 84 
              80 80 81 82 
              82 83 84 84 
              88 88 89 8A 
              8A 8B 8C 8C 
              90 90 91 92 
              92 93 94 94 
              80 80 81 82 
              82 83 84 84 
              80 80 81 82 
              82 83 84 84 
              88 88 89 8A 
              8A 8B 8C 8C 
              90 90 91 92 
              92 93 94 94 
              00 00 01 02 
              03 03 04 05 
              00 00 01 02 
              03 03 04 05 
              08 08 09 0A 
              0B 0B 0C 0D 
              10 10 11 12 
              13 13 14 15 
              00 00 01 02 
              03 03 04 05 
              00 00 01 02 
              03 03 04 05 
              08 08 09 0A 
              0B 0B 0C 0D 
              10 10 11 12 
              13 13 14 15 
              20 20 21 22 
              23 23 24 25 
              20 20 21 22 
              23 23 24 25 
              28 28 29 2A 
              2B 2B 2C 2D 
              30 30 31 32 
              33 33 34 35 
              40 40 41 42 
              43 43 44 45 
              40 40 41 42 
              43 43 44 45 
              48 48 49 4A 
              4B 4B 4C 4D 
              50 50 51 52 
              53 53 54 55 
              60 60 61 62 
              63 63 64 65 
              60 60 61 62 
              63 63 64 65 
              68 68 69 6A 
              6B 6B 6C 6D 
              70 70 71 72 
              73 73 74 75 
              60 60 61 62 
              63 63 64 65 
              60 60 61 62 
              63 63 64 65 
              68 68 69 6A 
              6B 6B 6C 6D 
              70 70 71 72 
              73 73 74 75 
              80 80 81 82 
              83 83 84 85 
              80 80 81 82 
              83 83 84 85 
              88 88 89 8A 
              8B 8B 8C 8D 
              90 90 91 92 
              93 93 94 95 
              A0 A0 A1 A2 
              A3 A3 A4 A5 
              A0 A0 A1 A2 
              A3 A3 A4 A5 
              A8 A8 A9 AA 
              AB AB AC AD 
              B0 B0 B1 B2 
              B3 B3 B4 B5 
              00 00 01 02 
              03 04 05 05 
              00 00 01 02 
              03 04 05 05 
              08 08 09 0A 
              0B 0C 0D 0D 
              10 10 11 12 
              13 14 15 15 
              00 00 01 02 
              03 04 05 05 
              00 00 01 02 
              03 04 05 05 
              08 08 09 0A 
              0B 0C 0D 0D 
              10 10 11 12 
              13 14 15 15 
              20 20 21 22 
              23 24 25 25 
              20 20 21 22 
              23 24 25 25 
              28 28 29 2A 
              2B 2C 2D 2D 
              30 30 31 32 
              33 34 35 35 
              40 40 41 42 
              43 44 45 45 
              40 40 41 42 
              43 44 45 45 
              48 48 49 4A 
              4B 4C 4D 4D 
              50 50 51 52 
              53 54 55 55 
              60 60 61 62 
              63 64 65 65 
              60 60 61 62 
              63 64 65 65 
              68 68 69 6A 
              6B 6C 6D 6D 
              70 70 71 72 
              73 74 75 75 
              80 80 81 82 
              83 84 85 85 
              80 80 81 82 
              83 84 85 85 
              88 88 89 8A 
              8B 8C 8D 8D 
              90 90 91 92 
              93 94 95 95 
              A0 A0 A1 A2 
              A3 A4 A5 A5 
              A0 A0 A1 A2 
              A3 A4 A5 A5 
              A8 A8 A9 AA 
              AB AC AD AD 
              B0 B0 B1 B2 
              B3 B4 B5 B5 
              A0 A0 A1 A2 
              A3 A4 A5 A5 
              A0 A0 A1 A2 
              A3 A4 A5 A5 
              A8 A8 A9 AA 
              AB AC AD AD 
              B0 B0 B1 B2 
              B3 B4 B5 B5 
              00 01 01 02 
              03 04 05 06 
              08 09 09 0A 
              0B 0C 0D 0E 
              08 09 09 0A 
              0B 0C 0D 0E 
              10 11 11 12 
              13 14 15 16 
              20 21 21 22 
              23 24 25 26 
              28 29 29 2A 
              2B 2C 2D 2E 
              28 29 29 2A 
              2B 2C 2D 2E 
              30 31 31 32 
              33 34 35 36 
              20 21 21 22 
              23 24 25 26 
              28 29 29 2A 
              2B 2C 2D 2E 
              28 29 29 2A 
              2B 2C 2D 2E 
              30 31 31 32 
              33 34 35 36 
              40 41 41 42 
              43 44 45 46 
              48 49 49 4A 
              4B 4C 4D 4E 
              48 49 49 4A 
              4B 4C 4D 4E 
              50 51 51 52 
              53 54 55 56 
              60 61 61 62 
              63 64 65 66 
              68 69 69 6A 
              6B 6C 6D 6E 
              68 69 69 6A 
              6B 6C 6D 6E 
              70 71 71 72 
              73 74 75 76 
              80 81 81 82 
              83 84 85 86 
              88 89 89 8A 
              8B 8C 8D 8E 
              88 89 89 8A 
              8B 8C 8D 8E 
              90 91 91 92 
              93 94 95 96 
              A0 A1 A1 A2 
              A3 A4 A5 A6 
              A8 A9 A9 AA 
              AB AC AD AE 
              A8 A9 A9 AA 
              AB AC AD AE 
              B0 B1 B1 B2 
              B3 B4 B5 B6 
              C0 C1 C1 C2 
              C3 C4 C5 C6 
              C8 C9 C9 CA 
              CB CC CD CE 
              C8 C9 C9 CA 
              CB CC CD CE 
              D0 D1 D1 D2 
              D3 D4 D5 D6 
              00 01 02 02 
              03 04 05 06 
              08 09 0A 0A 
              0B 0C 0D 0E 
              10 11 12 12 
              13 14 15 16 
              10 11 12 12 
              13 14 15 16 
              20 21 22 22 
              23 24 25 26 
              28 29 2A 2A 
              2B 2C 2D 2E 
              30 31 32 32 
              33 34 35 36 
              30 31 32 32 
              33 34 35 36 
              40 41 42 42 
              43 44 45 46 
              48 49 4A 4A 
              4B 4C 4D 4E 
              50 51 52 52 
              53 54 55 56 
              50 51 52 52 
              53 54 55 56 
              40 41 42 42 
              43 44 45 46 
              48 49 4A 4A 
              4B 4C 4D 4E 
              50 51 52 52 
              53 54 55 56 
              50 51 52 52 
              53 54 55 56 
              60 61 62 62 
              63 64 65 66 
              68 69 6A 6A 
              6B 6C 6D 6E 
              70 71 72 72 
              73 74 75 76 
              70 71 72 72 
              73 74 75 76 
              80 81 82 82 
              83 84 85 86 
              88 89 8A 8A 
              8B 8C 8D 8E 
              90 91 92 92 
              93 94 95 96 
              90 91 92 92 
              93 94 95 96 
              A0 A1 A2 A2 
              A3 A4 A5 A6 
              A8 A9 AA AA 
              AB AC AD AE 
              B0 B1 B2 B2 
              B3 B4 B5 B6 
              B0 B1 B2 B2 
              B3 B4 B5 B6 
              C0 C1 C2 C2 
              C3 C4 C5 C6 
              C8 C9 CA CA 
              CB CC CD CE 
              D0 D1 D2 D2 
              D3 D4 D5 D6 
              D0 D1 D2 D2 
              D3 D4 D5 D6 
              00 01 02 03 
              04 05 06 07 
              08 09 0A 0B 
              0C 0D 0E 0F 
              10 11 12 13 
              14 15 16 17 
              18 19 1A 1B 
              1C 1D 1E 1F 
              20 21 22 23 
              24 25 26 27 
              28 29 2A 2B 
              2C 2D 2E 2F 
              30 31 32 33 
              34 35 36 37 
              38 39 3A 3B 
              3C 3D 3E 3F 
              40 41 42 43 
              44 45 46 47 
              48 49 4A 4B 
              4C 4D 4E 4F 
              50 51 52 53 
              54 55 56 57 
              58 59 5A 5B 
              5C 5D 5E 5F 
              60 61 62 63 
              64 65 66 67 
              68 69 6A 6B 
              6C 6D 6E 6F 
              70 71 72 73 
              74 75 76 77 
              78 79 7A 7B 
              7C 7D 7E 7F 
              80 81 82 83 
              84 85 86 87 
              88 89 8A 8B 
              8C 8D 8E 8F 
              90 91 92 93 
              94 95 96 97 
              98 99 9A 9B 
              9C 9D 9E 9F 
              A0 A1 A2 A3 
              A4 A5 A6 A7 
              A8 A9 AA AB 
              AC AD AE AF 
              B0 B1 B2 B3 
              B4 B5 B6 B7 
              B8 B9 BA BB 
              BC BD BE BF 
              C0 C1 C2 C3 
              C4 C5 C6 C7 
              C8 C9 CA CB 
              CC CD CE CF 
              D0 D1 D2 D3 
              D4 D5 D6 D7 
              D8 D9 DA DB 
              DC DD DE DF 
              E0 E1 E2 E3 
              E4 E5 E6 E7 
              E8 E9 EA EB 
              EC ED EE EF 
              F0 F1 F2 F3 
              F4 F5 F6 F7 
              F8 F9 FA FB 
              FC FD FE FF 
              00 01 02 03 
              04 05 06 07 
              08 09 0A 0B 
              0C 0D 0E 0F 
              10 11 12 13 
              14 15 16 17 
              18 19 1A 1B 
              1C 1D 1E 1F 
              20 21 22 23 
              24 25 26 27 
              28 29 2A 2B 
              2C 2D 2E 2F 
              30 31 32 33 
              34 35 36 37 
              38 39 3A 3B 
              3C 3D 3E 3F 
              40 41 42 43 
              44 45 46 47 
              48 49 4A 4B 
              4C 4D 4E 4F 
              50 51 52 53 
              54 55 56 57 
              58 59 5A 5B 
              5C 5D 5E 5F 
              60 61 62 63 
              64 65 66 67 
              68 69 6A 6B 
              6C 6D 6E 6F 
              70 71 72 73 
              74 75 76 77 
              78 79 7A 7B 
              7C 7D 7E 7F 
              80 81 82 83 
              84 85 86 87 
              88 89 8A 8B 
              8C 8D 8E 8F 
              90 91 92 93 
              94 95 96 97 
              98 99 9A 9B 
              9C 9D 9E 9F 
              A0 A1 A2 A3 
              A4 A5 A6 A7 
              A8 A9 AA AB 
              AC AD AE AF 
              B0 B1 B2 B3 
              B4 B5 B6 B7 
              B8 B9 BA BB 
              BC BD BE BF 
              C0 C1 C2 C3 
              C4 C5 C6 C7 
              C8 C9 CA CB 
              CC CD CE CF 
              D0 D1 D2 D3 
              D4 D5 D6 D7 
              D8 D9 DA DB 
              DC DD DE DF 
              E0 E1 E2 E3 
              E4 E5 E6 E7 
              E8 E9 EA EB 
              EC ED EE EF 
              F0 F1 F2 F3 
              F4 F5 F6 F7 
              F8 F9 FA FB 
              FC FD FE FF 
              00 01 02 03 
              04 05 06 07 
              08 09 0A 0B 
              0C 0D 0E 0F 
              10 11 12 13 
              14 15 16 17 
              18 19 1A 1B 
              1C 1D 1E 1F 
              20 21 22 23 
              24 25 26 27 
              28 29 2A 2B 
              2C 2D 2E 2F 
              30 31 32 33 
              34 35 36 37 
              38 39 3A 3B 
              3C 3D 3E 3F 
              40 41 42 43 
              44 45 46 47 
              48 49 4A 4B 
              4C 4D 4E 4F 
              50 51 52 53 
              54 55 56 57 
              58 59 5A 5B 
              5C 5D 5E 5F 
              60 61 62 63 
              64 65 66 67 
              68 69 6A 6B 
              6C 6D 6E 6F 
              70 71 72 73 
              74 75 76 77 
              78 79 7A 7B 
              7C 7D 7E 7F 
              80 81 82 83 
              84 85 86 87 
              88 89 8A 8B 
              8C 8D 8E 8F 
              90 91 92 93 
              94 95 96 97 
              98 99 9A 9B 
              9C 9D 9E 9F 
              A0 A1 A2 A3 
              A4 A5 A6 A7 
              A8 A9 AA AB 
              AC AD AE AF 
              B0 B1 B2 B3 
              B4 B5 B6 B7 
              B8 B9 BA BB 
              BC BD BE BF 
              C0 C1 C2 C3 
              C4 C5 C6 C7 
              C8 C9 CA CB 
              CC CD CE CF 
              D0 D1 D2 D3 
              D4 D5 D6 D7 
              D8 D9 DA DB 
              DC DD DE DF 
              E0 E1 E2 E3 
              E4 E5 E6 E7 
              E8 E9 EA EB 
              EC ED EE EF 
              F0 F1 F2 F3 
              F4 F5 F6 F7 
              F8 F9 FA FB 
              FC FD FE FF 
              00 01 02 03 
              04 06 07 07 
              08 09 0A 0B 
              0C 0E 0F 0F 
              10 11 12 13 
              14 16 17 17 
              18 19 1A 1B 
              1C 1E 1F 1F 
              20 21 22 23 
              24 26 27 27 
              28 29 2A 2B 
              2C 2E 2F 2F 
              30 31 32 33 
              34 36 37 37 
              38 39 3A 3B 
              3C 3E 3F 3F 
              40 41 42 43 
              44 46 47 47 
              48 49 4A 4B 
              4C 4E 4F 4F 
              50 51 52 53 
              54 56 57 57 
              58 59 5A 5B 
              5C 5E 5F 5F 
              60 61 62 63 
              64 66 67 67 
              68 69 6A 6B 
              6C 6E 6F 6F 
              70 71 72 73 
              74 76 77 77 
              78 79 7A 7B 
              7C 7E 7F 7F 
              80 81 82 83 
              84 86 87 87 
              88 89 8A 8B 
              8C 8E 8F 8F 
              90 91 92 93 
              94 96 97 97 
              98 99 9A 9B 
              9C 9E 9F 9F 
              C0 C1 C2 C3 
              C4 C6 C7 C7 
              C8 C9 CA CB 
              CC CE CF CF 
              D0 D1 D2 D3 
              D4 D6 D7 D7 
              D8 D9 DA DB 
              DC DE DF DF 
              E0 E1 E2 E3 
              E4 E6 E7 E7 
              E8 E9 EA EB 
              EC EE EF EF 
              F0 F1 F2 F3 
              F4 F6 F7 F7 
              F8 F9 FA FB 
              FC FE FF FF 
              E0 E1 E2 E3 
              E4 E6 E7 E7 
              E8 E9 EA EB 
              EC EE EF EF 
              F0 F1 F2 F3 
              F4 F6 F7 F7 
              F8 F9 FA FB 
              FC FE FF FF 
              00 01 02 03 
              05 06 07 07 
              08 09 0A 0B 
              0D 0E 0F 0F 
              10 11 12 13 
              15 16 17 17 
              18 19 1A 1B 
              1D 1E 1F 1F 
              20 21 22 23 
              25 26 27 27 
              28 29 2A 2B 
              2D 2E 2F 2F 
              30 31 32 33 
              35 36 37 37 
              38 39 3A 3B 
              3D 3E 3F 3F 
              40 41 42 43 
              45 46 47 47 
              48 49 4A 4B 
              4D 4E 4F 4F 
              50 51 52 53 
              55 56 57 57 
              58 59 5A 5B 
              5D 5E 5F 5F 
              60 61 62 63 
              65 66 67 67 
              68 69 6A 6B 
              6D 6E 6F 6F 
              70 71 72 73 
              75 76 77 77 
              78 79 7A 7B 
              7D 7E 7F 7F 
              A0 A1 A2 A3 
              A5 A6 A7 A7 
              A8 A9 AA AB 
              AD AE AF AF 
              B0 B1 B2 B3 
              B5 B6 B7 B7 
              B8 B9 BA BB 
              BD BE BF BF 
              C0 C1 C2 C3 
              C5 C6 C7 C7 
              C8 C9 CA CB 
              CD CE CF CF 
              D0 D1 D2 D3 
              D5 D6 D7 D7 
              D8 D9 DA DB 
              DD DE DF DF 
              E0 E1 E2 E3 
              E5 E6 E7 E7 
              E8 E9 EA EB 
              ED EE EF EF 
              F0 F1 F2 F3 
              F5 F6 F7 F7 
              F8 F9 FA FB 
              FD FE FF FF 
              E0 E1 E2 E3 
              E5 E6 E7 E7 
              E8 E9 EA EB 
              ED EE EF EF 
              F0 F1 F2 F3 
              F5 F6 F7 F7 
              F8 F9 FA FB 
              FD FE FF FF 
              00 01 02 04 
              05 06 07 07 
              08 09 0A 0C 
              0D 0E 0F 0F 
              10 11 12 14 
              15 16 17 17 
              18 19 1A 1C 
              1D 1E 1F 1F 
              20 21 22 24 
              25 26 27 27 
              28 29 2A 2C 
              2D 2E 2F 2F 
              30 31 32 34 
              35 36 37 37 
              38 39 3A 3C 
              3D 3E 3F 3F 
              40 41 42 44 
              45 46 47 47 
              48 49 4A 4C 
              4D 4E 4F 4F 
              50 51 52 54 
              55 56 57 57 
              58 59 5A 5C 
              5D 5E 5F 5F 
              80 81 82 84 
              85 86 87 87 
              88 89 8A 8C 
              8D 8E 8F 8F 
              90 91 92 94 
              95 96 97 97 
              98 99 9A 9C 
              9D 9E 9F 9F 
              A0 A1 A2 A4 
              A5 A6 A7 A7 
              A8 A9 AA AC 
              AD AE AF AF 
              B0 B1 B2 B4 
              B5 B6 B7 B7 
              B8 B9 BA BC 
              BD BE BF BF 
              C0 C1 C2 C4 
              C5 C6 C7 C7 
              C8 C9 CA CC 
              CD CE CF CF 
              D0 D1 D2 D4 
              D5 D6 D7 D7 
              D8 D9 DA DC 
              DD DE DF DF 
              E0 E1 E2 E4 
              E5 E6 E7 E7 
              E8 E9 EA EC 
              ED EE EF EF 
              F0 F1 F2 F4 
              F5 F6 F7 F7 
              F8 F9 FA FC 
              FD FE FF FF 
              E0 E1 E2 E4 
              E5 E6 E7 E7 
              E8 E9 EA EC 
              ED EE EF EF 
              F0 F1 F2 F4 
              F5 F6 F7 F7 
              F8 F9 FA FC 
              FD FE FF FF 
              00 01 02 04 
              05 07 07 07 
              08 09 0A 0C 
              0D 0F 0F 0F 
              10 11 12 14 
              15 17 17 17 
              18 19 1A 1C 
              1D 1F 1F 1F 
              20 21 22 24 
              25 27 27 27 
              28 29 2A 2C 
              2D 2F 2F 2F 
              30 31 32 34 
              35 37 37 37 
              38 39 3A 3C 
              3D 3F 3F 3F 
              40 41 42 44 
              45 47 47 47 
              48 49 4A 4C 
              4D 4F 4F 4F 
              50 51 52 54 
              55 57 57 57 
              58 59 5A 5C 
              5D 5F 5F 5F 
              80 81 82 84 
              85 87 87 87 
              88 89 8A 8C 
              8D 8F 8F 8F 
              90 91 92 94 
              95 97 97 97 
              98 99 9A 9C 
              9D 9F 9F 9F 
              A0 A1 A2 A4 
              A5 A7 A7 A7 
              A8 A9 AA AC 
              AD AF AF AF 
              B0 B1 B2 B4 
              B5 B7 B7 B7 
              B8 B9 BA BC 
              BD BF BF BF 
              E0 E1 E2 E4 
              E5 E7 E7 E7 
              E8 E9 EA EC 
              ED EF EF EF 
              F0 F1 F2 F4 
              F5 F7 F7 F7 
              F8 F9 FA FC 
              FD FF FF FF 
              E0 E1 E2 E4 
              E5 E7 E7 E7 
              E8 E9 EA EC 
              ED EF EF EF 
              F0 F1 F2 F4 
              F5 F7 F7 F7 
              F8 F9 FA FC 
              FD FF FF FF 
              E0 E1 E2 E4 
              E5 E7 E7 E7 
              E8 E9 EA EC 
              ED EF EF EF 
              F0 F1 F2 F4 
              F5 F7 F7 F7 
              F8 F9 FA FC 
              FD FF FF FF 
              00 01 03 04 
              05 07 07 07 
              08 09 0B 0C 
              0D 0F 0F 0F 
              18 19 1B 1C 
              1D 1F 1F 1F 
              18 19 1B 1C 
              1D 1F 1F 1F 
              20 21 23 24 
              25 27 27 27 
              28 29 2B 2C 
              2D 2F 2F 2F 
              38 39 3B 3C 
              3D 3F 3F 3F 
              38 39 3B 3C 
              3D 3F 3F 3F 
              60 61 63 64 
              65 67 67 67 
              68 69 6B 6C 
              6D 6F 6F 6F 
              78 79 7B 7C 
              7D 7F 7F 7F 
              78 79 7B 7C 
              7D 7F 7F 7F 
              80 81 83 84 
              85 87 87 87 
              88 89 8B 8C 
              8D 8F 8F 8F 
              98 99 9B 9C 
              9D 9F 9F 9F 
              98 99 9B 9C 
              9D 9F 9F 9F 
              A0 A1 A3 A4 
              A5 A7 A7 A7 
              A8 A9 AB AC 
              AD AF AF AF 
              B8 B9 BB BC 
              BD BF BF BF 
              B8 B9 BB BC 
              BD BF BF BF 
              E0 E1 E3 E4 
              E5 E7 E7 E7 
              E8 E9 EB EC 
              ED EF EF EF 
              F8 F9 FB FC 
              FD FF FF FF 
              F8 F9 FB FC 
              FD FF FF FF 
              E0 E1 E3 E4 
              E5 E7 E7 E7 
              E8 E9 EB EC 
              ED EF EF EF 
              F8 F9 FB FC 
              FD FF FF FF 
              F8 F9 FB FC 
              FD FF FF FF 
              E0 E1 E3 E4 
              E5 E7 E7 E7 
              E8 E9 EB EC 
              ED EF EF EF 
              F8 F9 FB FC 
              FD FF FF FF 
              F8 F9 FB FC 
              FD FF FF FF 
              00 01 03 04 
              06 07 07 07 
              08 09 0B 0C 
              0E 0F 0F 0F 
              18 19 1B 1C 
              1E 1F 1F 1F 
              18 19 1B 1C 
              1E 1F 1F 1F 
              20 21 23 24 
              26 27 27 27 
              28 29 2B 2C 
              2E 2F 2F 2F 
              38 39 3B 3C 
              3E 3F 3F 3F 
              38 39 3B 3C 
              3E 3F 3F 3F 
              60 61 63 64 
              66 67 67 67 
              68 69 6B 6C 
              6E 6F 6F 6F 
              78 79 7B 7C 
              7E 7F 7F 7F 
              78 79 7B 7C 
              7E 7F 7F 7F 
              80 81 83 84 
              86 87 87 87 
              88 89 8B 8C 
              8E 8F 8F 8F 
              98 99 9B 9C 
              9E 9F 9F 9F 
              98 99 9B 9C 
              9E 9F 9F 9F 
              C0 C1 C3 C4 
              C6 C7 C7 C7 
              C8 C9 CB CC 
              CE CF CF CF 
              D8 D9 DB DC 
              DE DF DF DF 
              D8 D9 DB DC 
              DE DF DF DF 
              E0 E1 E3 E4 
              E6 E7 E7 E7 
              E8 E9 EB EC 
              EE EF EF EF 
              F8 F9 FB FC 
              FE FF FF FF 
              F8 F9 FB FC 
              FE FF FF FF 
              E0 E1 E3 E4 
              E6 E7 E7 E7 
              E8 E9 EB EC 
              EE EF EF EF 
              F8 F9 FB FC 
              FE FF FF FF 
              F8 F9 FB FC 
              FE FF FF FF 
              E0 E1 E3 E4 
              E6 E7 E7 E7 
              E8 E9 EB EC 
              EE EF EF EF 
              F8 F9 FB FC 
              FE FF FF FF 
              F8 F9 FB FC 
              FE FF FF FF 
              00 01 03 04 
              06 07 07 07 
              08 09 0B 0C 
              0E 0F 0F 0F 
              18 19 1B 1C 
              1E 1F 1F 1F 
              18 19 1B 1C 
              1E 1F 1F 1F 
              20 21 23 24 
              26 27 27 27 
              28 29 2B 2C 
              2E 2F 2F 2F 
              38 39 3B 3C 
              3E 3F 3F 3F 
              38 39 3B 3C 
              3E 3F 3F 3F 
              60 61 63 64 
              66 67 67 67 
              68 69 6B 6C 
              6E 6F 6F 6F 
              78 79 7B 7C 
              7E 7F 7F 7F 
              78 79 7B 7C 
              7E 7F 7F 7F 
              80 81 83 84 
              86 87 87 87 
              88 89 8B 8C 
              8E 8F 8F 8F 
              98 99 9B 9C 
              9E 9F 9F 9F 
              98 99 9B 9C 
              9E 9F 9F 9F 
              C0 C1 C3 C4 
              C6 C7 C7 C7 
              C8 C9 CB CC 
              CE CF CF CF 
              D8 D9 DB DC 
              DE DF DF DF 
              D8 D9 DB DC 
              DE DF DF DF 
              E0 E1 E3 E4 
              E6 E7 E7 E7 
              E8 E9 EB EC 
              EE EF EF EF 
              F8 F9 FB FC 
              FE FF FF FF 
              F8 F9 FB FC 
              FE FF FF FF 
              E0 E1 E3 E4 
              E6 E7 E7 E7 
              E8 E9 EB EC 
              EE EF EF EF 
              F8 F9 FB FC 
              FE FF FF FF 
              F8 F9 FB FC 
              FE FF FF FF 
              E0 E1 E3 E4 
              E6 E7 E7 E7 
              E8 E9 EB EC 
              EE EF EF EF 
              F8 F9 FB FC 
              FE FF FF FF 
              F8 F9 FB FC 
              FE FF FF FF 
              00 01 03 05 
              06 07 07 07 
              08 09 0B 0D 
              0E 0F 0F 0F 
              18 19 1B 1D 
              1E 1F 1F 1F 
              18 19 1B 1D 
              1E 1F 1F 1F 
              20 21 23 25 
              26 27 27 27 
              28 29 2B 2D 
              2E 2F 2F 2F 
              38 39 3B 3D 
              3E 3F 3F 3F 
              38 39 3B 3D 
              3E 3F 3F 3F 
              60 61 63 65 
              66 67 67 67 
              68 69 6B 6D 
              6E 6F 6F 6F 
              78 79 7B 7D 
              7E 7F 7F 7F 
              78 79 7B 7D 
              7E 7F 7F 7F 
              A0 A1 A3 A5 
              A6 A7 A7 A7 
              A8 A9 AB AD 
              AE AF AF AF 
              B8 B9 BB BD 
              BE BF BF BF 
              B8 B9 BB BD 
              BE BF BF BF 
              C0 C1 C3 C5 
              C6 C7 C7 C7 
              C8 C9 CB CD 
              CE CF CF CF 
              D8 D9 DB DD 
              DE DF DF DF 
              D8 D9 DB DD 
              DE DF DF DF 
              E0 E1 E3 E5 
              E6 E7 E7 E7 
              E8 E9 EB ED 
              EE EF EF EF 
              F8 F9 FB FD 
              FE FF FF FF 
              F8 F9 FB FD 
              FE FF FF FF 
              E0 E1 E3 E5 
              E6 E7 E7 E7 
              E8 E9 EB ED 
              EE EF EF EF 
              F8 F9 FB FD 
              FE FF FF FF 
              F8 F9 FB FD 
              FE FF FF FF 
              E0 E1 E3 E5 
              E6 E7 E7 E7 
              E8 E9 EB ED 
              EE EF EF EF 
              F8 F9 FB FD 
              FE FF FF FF 
              F8 F9 FB FD 
              FE FF FF FF 
              00 01 03 05 
              06 07 07 07 
              08 09 0B 0D 
              0E 0F 0F 0F 
              18 19 1B 1D 
              1E 1F 1F 1F 
              18 19 1B 1D 
              1E 1F 1F 1F 
              20 21 23 25 
              26 27 27 27 
              28 29 2B 2D 
              2E 2F 2F 2F 
              38 39 3B 3D 
              3E 3F 3F 3F 
              38 39 3B 3D 
              3E 3F 3F 3F 
              60 61 63 65 
              66 67 67 67 
              68 69 6B 6D 
              6E 6F 6F 6F 
              78 79 7B 7D 
              7E 7F 7F 7F 
              78 79 7B 7D 
              7E 7F 7F 7F 
              A0 A1 A3 A5 
              A6 A7 A7 A7 
              A8 A9 AB AD 
              AE AF AF AF 
              B8 B9 BB BD 
              BE BF BF BF 
              B8 B9 BB BD 
              BE BF BF BF 
              C0 C1 C3 C5 
              C6 C7 C7 C7 
              C8 C9 CB CD 
              CE CF CF CF 
              D8 D9 DB DD 
              DE DF DF DF 
              D8 D9 DB DD 
              DE DF DF DF 
              E0 E1 E3 E5 
              E6 E7 E7 E7 
              E8 E9 EB ED 
              EE EF EF EF 
              F8 F9 FB FD 
              FE FF FF FF 
              F8 F9 FB FD 
              FE FF FF FF 
              E0 E1 E3 E5 
              E6 E7 E7 E7 
              E8 E9 EB ED 
              EE EF EF EF 
              F8 F9 FB FD 
              FE FF FF FF 
              F8 F9 FB FD 
              FE FF FF FF 
              E0 E1 E3 E5 
              E6 E7 E7 E7 
              E8 E9 EB ED 
              EE EF EF EF 
              F8 F9 FB FD 
              FE FF FF FF 
              F8 F9 FB FD 
              FE FF FF FF 
              00 01 03 05 
              07 07 07 07 
              08 09 0B 0D 
              0F 0F 0F 0F 
              18 19 1B 1D 
              1F 1F 1F 1F 
              18 19 1B 1D 
              1F 1F 1F 1F 
              20 21 23 25 
              27 27 27 27 
              28 29 2B 2D 
              2F 2F 2F 2F 
              38 39 3B 3D 
              3F 3F 3F 3F 
              38 39 3B 3D 
              3F 3F 3F 3F 
              60 61 63 65 
              67 67 67 67 
              68 69 6B 6D 
              6F 6F 6F 6F 
              78 79 7B 7D 
              7F 7F 7F 7F 
              78 79 7B 7D 
              7F 7F 7F 7F 
              A0 A1 A3 A5 
              A7 A7 A7 A7 
              A8 A9 AB AD 
              AF AF AF AF 
              B8 B9 BB BD 
              BF BF BF BF 
              B8 B9 BB BD 
              BF BF BF BF 
              E0 E1 E3 E5 
              E7 E7 E7 E7 
              E8 E9 EB ED 
              EF EF EF EF 
              F8 F9 FB FD 
              FF FF FF FF 
              F8 F9 FB FD 
              FF FF FF FF 
              E0 E1 E3 E5 
              E7 E7 E7 E7 
              E8 E9 EB ED 
              EF EF EF EF 
              F8 F9 FB FD 
              FF FF FF FF 
              F8 F9 FB FD 
              FF FF FF FF 
              E0 E1 E3 E5 
              E7 E7 E7 E7 
              E8 E9 EB ED 
              EF EF EF EF 
              F8 F9 FB FD 
              FF FF FF FF 
              F8 F9 FB FD 
              FF FF FF FF 
              E0 E1 E3 E5 
              E7 E7 E7 E7 
              E8 E9 EB ED 
              EF EF EF EF 
              F8 F9 FB FD 
              FF FF FF FF 
              F8 F9 FB FD 
              FF FF FF FF 
              00 01 03 05 
              07 07 07 07 
              08 09 0B 0D 
              0F 0F 0F 0F 
              18 19 1B 1D 
              1F 1F 1F 1F 
              18 19 1B 1D 
              1F 1F 1F 1F 
              20 21 23 25 
              27 27 27 27 
              28 29 2B 2D 
              2F 2F 2F 2F 
              38 39 3B 3D 
              3F 3F 3F 3F 
              38 39 3B 3D 
              3F 3F 3F 3F 
              60 61 63 65 
              67 67 67 67 
              68 69 6B 6D 
              6F 6F 6F 6F 
              78 79 7B 7D 
              7F 7F 7F 7F 
              78 79 7B 7D 
              7F 7F 7F 7F 
              A0 A1 A3 A5 
              A7 A7 A7 A7 
              A8 A9 AB AD 
              AF AF AF AF 
              B8 B9 BB BD 
              BF BF BF BF 
              B8 B9 BB BD 
              BF BF BF BF 
              E0 E1 E3 E5 
              E7 E7 E7 E7 
              E8 E9 EB ED 
              EF EF EF EF 
              F8 F9 FB FD 
              FF FF FF FF 
              F8 F9 FB FD 
              FF FF FF FF 
              E0 E1 E3 E5 
              E7 E7 E7 E7 
              E8 E9 EB ED 
              EF EF EF EF 
              F8 F9 FB FD 
              FF FF FF FF 
              F8 F9 FB FD 
              FF FF FF FF 
              E0 E1 E3 E5 
              E7 E7 E7 E7 
              E8 E9 EB ED 
              EF EF EF EF 
              F8 F9 FB FD 
              FF FF FF FF 
              F8 F9 FB FD 
              FF FF FF FF 
              E0 E1 E3 E5 
              E7 E7 E7 E7 
              E8 E9 EB ED 
              EF EF EF EF 
              F8 F9 FB FD 
              FF FF FF FF 
              F8 F9 FB FD 
              FF FF FF FF 
              00 02 03 05 
              07 07 07 07 
              10 12 13 15 
              17 17 17 17 
              18 1A 1B 1D 
              1F 1F 1F 1F 
              18 1A 1B 1D 
              1F 1F 1F 1F 
              40 42 43 45 
              47 47 47 47 
              50 52 53 55 
              57 57 57 57 
              58 5A 5B 5D 
              5F 5F 5F 5F 
              58 5A 5B 5D 
              5F 5F 5F 5F 
              60 62 63 65 
              67 67 67 67 
              70 72 73 75 
              77 77 77 77 
              78 7A 7B 7D 
              7F 7F 7F 7F 
              78 7A 7B 7D 
              7F 7F 7F 7F 
              A0 A2 A3 A5 
              A7 A7 A7 A7 
              B0 B2 B3 B5 
              B7 B7 B7 B7 
              B8 BA BB BD 
              BF BF BF BF 
              B8 BA BB BD 
              BF BF BF BF 
              E0 E2 E3 E5 
              E7 E7 E7 E7 
              F0 F2 F3 F5 
              F7 F7 F7 F7 
              F8 FA FB FD 
              FF FF FF FF 
              F8 FA FB FD 
              FF FF FF FF 
              E0 E2 E3 E5 
              E7 E7 E7 E7 
              F0 F2 F3 F5 
              F7 F7 F7 F7 
              F8 FA FB FD 
              FF FF FF FF 
              F8 FA FB FD 
              FF FF FF FF 
              E0 E2 E3 E5 
              E7 E7 E7 E7 
              F0 F2 F3 F5 
              F7 F7 F7 F7 
              F8 FA FB FD 
              FF FF FF FF 
              F8 FA FB FD 
              FF FF FF FF 
              E0 E2 E3 E5 
              E7 E7 E7 E7 
              F0 F2 F3 F5 
              F7 F7 F7 F7 
              F8 FA FB FD 
              FF FF FF FF 
              F8 FA FB FD 
              FF FF FF FF 
              00 02 04 05 
              07 07 07 07 
              10 12 14 15 
              17 17 17 17 
              18 1A 1C 1D 
              1F 1F 1F 1F 
              18 1A 1C 1D 
              1F 1F 1F 1F 
              40 42 44 45 
              47 47 47 47 
              50 52 54 55 
              57 57 57 57 
              58 5A 5C 5D 
              5F 5F 5F 5F 
              58 5A 5C 5D 
              5F 5F 5F 5F 
              80 82 84 85 
              87 87 87 87 
              90 92 94 95 
              97 97 97 97 
              98 9A 9C 9D 
              9F 9F 9F 9F 
              98 9A 9C 9D 
              9F 9F 9F 9F 
              A0 A2 A4 A5 
              A7 A7 A7 A7 
              B0 B2 B4 B5 
              B7 B7 B7 B7 
              B8 BA BC BD 
              BF BF BF BF 
              B8 BA BC BD 
              BF BF BF BF 
              E0 E2 E4 E5 
              E7 E7 E7 E7 
              F0 F2 F4 F5 
              F7 F7 F7 F7 
              F8 FA FC FD 
              FF FF FF FF 
              F8 FA FC FD 
              FF FF FF FF 
              E0 E2 E4 E5 
              E7 E7 E7 E7 
              F0 F2 F4 F5 
              F7 F7 F7 F7 
              F8 FA FC FD 
              FF FF FF FF 
              F8 FA FC FD 
              FF FF FF FF 
              E0 E2 E4 E5 
              E7 E7 E7 E7 
              F0 F2 F4 F5 
              F7 F7 F7 F7 
              F8 FA FC FD 
              FF FF FF FF 
              F8 FA FC FD 
              FF FF FF FF 
              E0 E2 E4 E5 
              E7 E7 E7 E7 
              F0 F2 F4 F5 
              F7 F7 F7 F7 
              F8 FA FC FD 
              FF FF FF FF 
              F8 FA FC FD 
              FF FF FF FF .db 0,0,0,0,0,0,0,0,0,0,0,0,0,0,0,0,0,0,0,0,0,0,0,0,0,0,0,0,0,0,0,0,0,0,0,0,0,0,0,0,0,0,0,0,0,0,0,0,0,0,0,0,0,0,0,0,0,0,0,0,0,0,0,0,0,0,0,0,0,0,0,0,0,0,0,0,0,0,0,0,0,0,0,0,0,0,0,0,0,0,0,0,0,0,0,0,0,0,0,0,0,0,0,0,0,0,0,0,0,0,0,0,0,0,0,0,0,0,0,0,0,0,0,0,0,0,0,0,0,0,0,0,0,0,0,0,0,0,0,0,0,0,0,0,0,0,0,0,0,0,0,0,0,0,0,0,0,0,0,0,0,0,0,0,0,0,0,0,0,0,0,0,0,0,0,0,0,0,0,0,0,0,0,0,0,0,0,0,0,0,0,0,0,0,0,0,0,0,0,0,0,0,0,0,0,0,0,0,0,0,0,0,0,0,0,0,0,0,0,0,0,0,0,0,0,0,0,0,0,0,0,0,0,0,0,0,0,0,0,0,0,0,0,0,0,0,0,0,0,0,0,0,0,0,0,0,0,0,0,0,0,0,0,0,0,0,0,0,0,0,0,0,0,0,0,0,0,0,0,0,0,0,0,0,0,0,0,0,0,0,0,0,0,0,0,0,0,0,0,0,0,0,0,0,0,0,0,0,0,0,0,0,0,0,0,0,0,0,0,0,0,0,0,0,0,0,0,0,0,0,0,0,0,0,0,0,0,0,0,0,0,0,0,0,0,0,0,0,0,0,0,0,0,0,0,0,0,0,0,0,0,0,0,0,0,0,0,0,0,0,0,0,0,0,0,0,0,0,0,0,0,0,0,0,0,0,0,0,0,0,0,0,0,0,0,0,0,0,0,0,0,0,0,0,0,0,0,0,0,0,0,0,0,0,0,0,0,0,0,0,0,0,0,0,0,0,0,0,0,0,0,0,0,0,0,0,0,0,0,0,0,0,0,0,0,0,0,0,0,0,0,0,0,0,0,0,0,0,0,0,0,0,0,0,0,0,0,0,0,0,0,0,0,0,0,0,0,0,0,0,0,0,0,0,0,0,0,0,0,0,0,0,0,0,0,0,0,0,0,0,0,0,0,0,0,0,0,0,0,0,0,0,0,0,0,0,0,0,0,1,0,0,0,0,0,0,0,1,0,0,0,0,0,0,0,1,0,0,0,0,0,0,0,1,0,0,0,0,0,0,0,1,0,0,0,0,0,0,0,1,0,0,0,0,0,0,0,1,0,0,0,0,0,0,0,1,0,0,0,0,0,0,0,1,0,0,0,0,0,0,0,1,0,0,0,0,0,0,0,1,0,0,0,0,0,0,0,1,0,0,0,0,0,0,0,1,0,0,0,0,0,0,0,1,0,0,0,0,0,0,0,1,0,0,0,0,0,0,0,1,0,0,0,0,0,0,0,1,0,0,0,0,0,0,0,1,0,0,0,0,0,0,0,1,0,0,0,0,0,0,0,1,0,0,0,0,0,0,0,1,0,0,0,0,0,0,0,1,0,0,0,0,0,0,0,1,0,0,0,0,0,0,0,1,0,0,0,0,0,0,0,1,0,0,0,0,0,0,0,1,0,0,0,0,0,0,0,1,0,0,0,0,0,0,0,1,32,32,32,32,32,32,32,33,32,32,32,32,32,32,32,33,32,32,32,32,32,32,32,33,32,32,32,32,32,32,32,33,0,0,0,0,0,1,1,1,0,0,0,0,0,1,1,1,0,0,0,0,0,1,1,1,0,0,0,0,0,1,1,1,0,0,0,0,0,1,1,1,0,0,0,0,0,1,1,1,0,0,0,0,0,1,1,1,0,0,0,0,0,1,1,1,0,0,0,0,0,1,1,1,0,0,0,0,0,1,1,1,0,0,0,0,0,1,1,1,0,0,0,0,0,1,1,1,0,0,0,0,0,1,1,1,0,0,0,0,0,1,1,1,0,0,0,0,0,1,1,1,0,0,0,0,0,1,1,1,0,0,0,0,0,1,1,1,0,0,0,0,0,1,1,1,0,0,0,0,0,1,1,1,0,0,0,0,0,1,1,1,32,32,32,32,32,33,33,33,32,32,32,32,32,33,33,33,32,32,32,32,32,33,33,33,32,32,32,32,32,33,33,33,32,32,32,32,32,33,33,33,32,32,32,32,32,33,33,33,32,32,32,32,32,33,33,33,32,32,32,32,32,33,33,33,32,32,32,32,32,33,33,33,32,32,32,32,32,33,33,33,32,32,32,32,32,33,33,33,32,32,32,32,32,33,33,33,0,0,0,0,1,1,1,1,0,0,0,0,1,1,1,1,0,0,0,0,1,1,1,1,0,0,0,0,1,1,1,1,0,0,0,0,1,1,1,1,0,0,0,0,1,1,1,1,0,0,0,0,1,1,1,1,0,0,0,0,1,1,1,1,0,0,0,0,1,1,1,1,0,0,0,0,1,1,1,1,0,0,0,0,1,1,1,1,0,0,0,0,1,1,1,1,0,0,0,0,1,1,1,1,0,0,0,0,1,1,1,1,0,0,0,0,1,1,1,1,0,0,0,0,1,1,1,1,32,32,32,32,33,33,33,33,32,32,32,32,33,33,33,33,32,32,32,32,33,33,33,33,32,32,32,32,33,33,33,33,32,32,32,32,33,33,33,33,32,32,32,32,33,33,33,33,32,32,32,32,33,33,33,33,32,32,32,32,33,33,33,33,32,32,32,32,33,33,33,33,32,32,32,32,33,33,33,33,32,32,32,32,33,33,33,33,32,32,32,32,33,33,33,33,32,32,32,32,33,33,33,33,32,32,32,32,33,33,33,33,32,32,32,32,33,33,33,33,32,32,32,32,33,33,33,33,0,0,0,1,1,1,2,2,0,0,0,1,1,1,2,2,0,0,0,1,1,1,2,2,8,8,8,9,9,9,10,10,0,0,0,1,1,1,2,2,0,0,0,1,1,1,2,2,0,0,0,1,1,1,2,2,8,8,8,9,9,9,10,10,0,0,0,1,1,1,2,2,0,0,0,1,1,1,2,2,0,0,0,1,1,1,2,2,8,8,8,9,9,9,10,10,32,32,32,33,33,33,34,34,32,32,32,33,33,33,34,34,32,32,32,33,33,33,34,34,40,40,40,41,41,41,42,42,32,32,32,33,33,33,34,34,32,32,32,33,33,33,34,34,32,32,32,33,33,33,34,34,40,40,40,41,41,41,42,42,32,32,32,33,33,33,34,34,32,32,32,33,33,33,34,34,32,32,32,33,33,33,34,34,40,40,40,41,41,41,42,42,64,64,64,65,65,65,66,66,64,64,64,65,65,65,66,66,64,64,64,65,65,65,66,66,72,72,72,73,73,73,74,74,64,64,64,65,65,65,66,66,64,64,64,65,65,65,66,66,64,64,64,65,65,65,66,66,72,72,72,73,73,73,74,74,0,0,0,1,1,2,2,2,0,0,0,1,1,2,2,2,0,0,0,1,1,2,2,2,8,8,8,9,9,10,10,10,0,0,0,1,1,2,2,2,0,0,0,1,1,2,2,2,0,0,0,1,1,2,2,2,8,8,8,9,9,10,10,10,0,0,0,1,1,2,2,2,0,0,0,1,1,2,2,2,0,0,0,1,1,2,2,2,8,8,8,9,9,10,10,10,32,32,32,33,33,34,34,34,32,32,32,33,33,34,34,34,32,32,32,33,33,34,34,34,40,40,40,41,41,42,42,42,32,32,32,33,33,34,34,34,32,32,32,33,33,34,34,34,32,32,32,33,33,34,34,34,40,40,40,41,41,42,42,42,64,64,64,65,65,66,66,66,64,64,64,65,65,66,66,66,64,64,64,65,65,66,66,66,72,72,72,73,73,74,74,74,64,64,64,65,65,66,66,66,64,64,64,65,65,66,66,66,64,64,64,65,65,66,66,66,72,72,72,73,73,74,74,74,64,64,64,65,65,66,66,66,64,64,64,65,65,66,66,66,64,64,64,65,65,66,66,66,72,72,72,73,73,74,74,74,0,0,1,1,1,2,2,3,0,0,1,1,1,2,2,3,8,8,9,9,9,10,10,11,8,8,9,9,9,10,10,11,0,0,1,1,1,2,2,3,0,0,1,1,1,2,2,3,8,8,9,9,9,10,10,11,8,8,9,9,9,10,10,11,32,32,33,33,33,34,34,35,32,32,33,33,33,34,34,35,40,40,41,41,41,42,42,43,40,40,41,41,41,42,42,43,32,32,33,33,33,34,34,35,32,32,33,33,33,34,34,35,40,40,41,41,41,42,42,43,40,40,41,41,41,42,42,43,32,32,33,33,33,34,34,35,32,32,33,33,33,34,34,35,40,40,41,41,41,42,42,43,40,40,41,41,41,42,42,43,64,64,65,65,65,66,66,67,64,64,65,65,65,66,66,67,72,72,73,73,73,74,74,75,72,72,73,73,73,74,74,75,64,64,65,65,65,66,66,67,64,64,65,65,65,66,66,67,72,72,73,73,73,74,74,75,72,72,73,73,73,74,74,75,96,96,97,97,97,98,98,99,96,96,97,97,97,98,98,99,104,104,105,105,105,106,106,107,104,104,105,105,105,106,106,107,0,0,1,1,2,2,3,3,0,0,1,1,2,2,3,3,8,8,9,9,10,10,11,11,8,8,9,9,10,10,11,11,0,0,1,1,2,2,3,3,0,0,1,1,2,2,3,3,8,8,9,9,10,10,11,11,8,8,9,9,10,10,11,11,32,32,33,33,34,34,35,35,32,32,33,33,34,34,35,35,40,40,41,41,42,42,43,43,40,40,41,41,42,42,43,43,32,32,33,33,34,34,35,35,32,32,33,33,34,34,35,35,40,40,41,41,42,42,43,43,40,40,41,41,42,42,43,43,64,64,65,65,66,66,67,67,64,64,65,65,66,66,67,67,72,72,73,73,74,74,75,75,72,72,73,73,74,74,75,75,64,64,65,65,66,66,67,67,64,64,65,65,66,66,67,67,72,72,73,73,74,74,75,75,72,72,73,73,74,74,75,75,96,96,97,97,98,98,99,99,96,96,97,97,98,98,99,99,104,104,105,105,106,106,107,107,104,104,105,105,106,106,107,107,96,96,97,97,98,98,99,99,96,96,97,97,98,98,99,99,104,104,105,105,106,106,107,107,104,104,105,105,106,106,107,107,0,0,1,1,2,2,3,4,0,0,1,1,2,2,3,4,8,8,9,9,10,10,11,12,8,8,9,9,10,10,11,12,0,0,1,1,2,2,3,4,0,0,1,1,2,2,3,4,8,8,9,9,10,10,11,12,8,8,9,9,10,10,11,12,32,32,33,33,34,34,35,36,32,32,33,33,34,34,35,36,40,40,41,41,42,42,43,44,40,40,41,41,42,42,43,44,32,32,33,33,34,34,35,36,32,32,33,33,34,34,35,36,40,40,41,41,42,42,43,44,40,40,41,41,42,42,43,44,64,64,65,65,66,66,67,68,64,64,65,65,66,66,67,68,72,72,73,73,74,74,75,76,72,72,73,73,74,74,75,76,64,64,65,65,66,66,67,68,64,64,65,65,66,66,67,68,72,72,73,73,74,74,75,76,72,72,73,73,74,74,75,76,96,96,97,97,98,98,99,100,96,96,97,97,98,98,99,100,104,104,105,105,106,106,107,108,104,104,105,105,106,106,107,108,128,128,129,129,130,130,131,132,128,128,129,129,130,130,131,132,136,136,137,137,138,138,139,140,136,136,137,137,138,138,139,140,0,0,1,2,2,3,3,4,0,0,1,2,2,3,3,4,8,8,9,10,10,11,11,12,16,16,17,18,18,19,19,20,0,0,1,2,2,3,3,4,0,0,1,2,2,3,3,4,8,8,9,10,10,11,11,12,16,16,17,18,18,19,19,20,32,32,33,34,34,35,35,36,32,32,33,34,34,35,35,36,40,40,41,42,42,43,43,44,48,48,49,50,50,51,51,52,64,64,65,66,66,67,67,68,64,64,65,66,66,67,67,68,72,72,73,74,74,75,75,76,80,80,81,82,82,83,83,84,64,64,65,66,66,67,67,68,64,64,65,66,66,67,67,68,72,72,73,74,74,75,75,76,80,80,81,82,82,83,83,84,96,96,97,98,98,99,99,100,96,96,97,98,98,99,99,100,104,104,105,106,106,107,107,108,112,112,113,114,114,115,115,116,96,96,97,98,98,99,99,100,96,96,97,98,98,99,99,100,104,104,105,106,106,107,107,108,112,112,113,114,114,115,115,116,128,128,129,130,130,131,131,132,128,128,129,130,130,131,131,132,136,136,137,138,138,139,139,140,144,144,145,146,146,147,147,148,0,0,1,2,2,3,4,4,0,0,1,2,2,3,4,4,8,8,9,10,10,11,12,12,16,16,17,18,18,19,20,20,0,0,1,2,2,3,4,4,0,0,1,2,2,3,4,4,8,8,9,10,10,11,12,12,16,16,17,18,18,19,20,20,32,32,33,34,34,35,36,36,32,32,33,34,34,35,36,36,40,40,41,42,42,43,44,44,48,48,49,50,50,51,52,52,64,64,65,66,66,67,68,68,64,64,65,66,66,67,68,68,72,72,73,74,74,75,76,76,80,80,81,82,82,83,84,84,64,64,65,66,66,67,68,68,64,64,65,66,66,67,68,68,72,72,73,74,74,75,76,76,80,80,81,82,82,83,84,84,96,96,97,98,98,99,100,100,96,96,97,98,98,99,100,100,104,104,105,106,106,107,108,108,112,112,113,114,114,115,116,116,128,128,129,130,130,131,132,132,128,128,129,130,130,131,132,132,136,136,137,138,138,139,140,140,144,144,145,146,146,147,148,148,128,128,129,130,130,131,132,132,128,128,129,130,130,131,132,132,136,136,137,138,138,139,140,140,144,144,145,146,146,147,148,148,0,0,1,2,3,3,4,5,0,0,1,2,3,3,4,5,8,8,9,10,11,11,12,13,16,16,17,18,19,19,20,21,0,0,1,2,3,3,4,5,0,0,1,2,3,3,4,5,8,8,9,10,11,11,12,13,16,16,17,18,19,19,20,21,32,32,33,34,35,35,36,37,32,32,33,34,35,35,36,37,40,40,41,42,43,43,44,45,48,48,49,50,51,51,52,53,64,64,65,66,67,67,68,69,64,64,65,66,67,67,68,69,72,72,73,74,75,75,76,77,80,80,81,82,83,83,84,85,96,96,97,98,99,99,100,101,96,96,97,98,99,99,100,101,104,104,105,106,107,107,108,109,112,112,113,114,115,115,116,117,96,96,97,98,99,99,100,101,96,96,97,98,99,99,100,101,104,104,105,106,107,107,108,109,112,112,113,114,115,115,116,117,128,128,129,130,131,131,132,133,128,128,129,130,131,131,132,133,136,136,137,138,139,139,140,141,144,144,145,146,147,147,148,149,160,160,161,162,163,163,164,165,160,160,161,162,163,163,164,165,168,168,169,170,171,171,172,173,176,176,177,178,179,179,180,181,0,0,1,2,3,4,5,5,0,0,1,2,3,4,5,5,8,8,9,10,11,12,13,13,16,16,17,18,19,20,21,21,0,0,1,2,3,4,5,5,0,0,1,2,3,4,5,5,8,8,9,10,11,12,13,13,16,16,17,18,19,20,21,21,32,32,33,34,35,36,37,37,32,32,33,34,35,36,37,37,40,40,41,42,43,44,45,45,48,48,49,50,51,52,53,53,64,64,65,66,67,68,69,69,64,64,65,66,67,68,69,69,72,72,73,74,75,76,77,77,80,80,81,82,83,84,85,85,96,96,97,98,99,100,101,101,96,96,97,98,99,100,101,101,104,104,105,106,107,108,109,109,112,112,113,114,115,116,117,117,128,128,129,130,131,132,133,133,128,128,129,130,131,132,133,133,136,136,137,138,139,140,141,141,144,144,145,146,147,148,149,149,160,160,161,162,163,164,165,165,160,160,161,162,163,164,165,165,168,168,169,170,171,172,173,173,176,176,177,178,179,180,181,181,160,160,161,162,163,164,165,165,160,160,161,162,163,164,165,165,168,168,169,170,171,172,173,173,176,176,177,178,179,180,181,181,0,1,1,2,3,4,5,6,8,9,9,10,11,12,13,14,8,9,9,10,11,12,13,14,16,17,17,18,19,20,21,22,32,33,33,34,35,36,37,38,40,41,41,42,43,44,45,46,40,41,41,42,43,44,45,46,48,49,49,50,51,52,53,54,32,33,33,34,35,36,37,38,40,41,41,42,43,44,45,46,40,41,41,42,43,44,45,46,48,49,49,50,51,52,53,54,64,65,65,66,67,68,69,70,72,73,73,74,75,76,77,78,72,73,73,74,75,76,77,78,80,81,81,82,83,84,85,86,96,97,97,98,99,100,101,102,104,105,105,106,107,108,109,110,104,105,105,106,107,108,109,110,112,113,113,114,115,116,117,118,128,129,129,130,131,132,133,134,136,137,137,138,139,140,141,142,136,137,137,138,139,140,141,142,144,145,145,146,147,148,149,150,160,161,161,162,163,164,165,166,168,169,169,170,171,172,173,174,168,169,169,170,171,172,173,174,176,177,177,178,179,180,181,182,192,193,193,194,195,196,197,198,200,201,201,202,203,204,205,206,200,201,201,202,203,204,205,206,208,209,209,210,211,212,213,214,0,1,2,2,3,4,5,6,8,9,10,10,11,12,13,14,16,17,18,18,19,20,21,22,16,17,18,18,19,20,21,22,32,33,34,34,35,36,37,38,40,41,42,42,43,44,45,46,48,49,50,50,51,52,53,54,48,49,50,50,51,52,53,54,64,65,66,66,67,68,69,70,72,73,74,74,75,76,77,78,80,81,82,82,83,84,85,86,80,81,82,82,83,84,85,86,64,65,66,66,67,68,69,70,72,73,74,74,75,76,77,78,80,81,82,82,83,84,85,86,80,81,82,82,83,84,85,86,96,97,98,98,99,100,101,102,104,105,106,106,107,108,109,110,112,113,114,114,115,116,117,118,112,113,114,114,115,116,117,118,128,129,130,130,131,132,133,134,136,137,138,138,139,140,141,142,144,145,146,146,147,148,149,150,144,145,146,146,147,148,149,150,160,161,162,162,163,164,165,166,168,169,170,170,171,172,173,174,176,177,178,178,179,180,181,182,176,177,178,178,179,180,181,182,192,193,194,194,195,196,197,198,200,201,202,202,203,204,205,206,208,209,210,210,211,212,213,214,208,209,210,210,211,212,213,214,0,1,2,3,4,5,6,7,8,9,10,11,12,13,14,15,16,17,18,19,20,21,22,23,24,25,26,27,28,29,30,31,32,33,34,35,36,37,38,39,40,41,42,43,44,45,46,47,48,49,50,51,52,53,54,55,56,57,58,59,60,61,62,63,64,65,66,67,68,69,70,71,72,73,74,75,76,77,78,79,80,81,82,83,84,85,86,87,88,89,90,91,92,93,94,95,96,97,98,99,100,101,102,103,104,105,106,107,108,109,110,111,112,113,114,115,116,117,118,119,120,121,122,123,124,125,126,127,128,129,130,131,132,133,134,135,136,137,138,139,140,141,142,143,144,145,146,147,148,149,150,151,152,153,154,155,156,157,158,159,160,161,162,163,164,165,166,167,168,169,170,171,172,173,174,175,176,177,178,179,180,181,182,183,184,185,186,187,188,189,190,191,192,193,194,195,196,197,198,199,200,201,202,203,204,205,206,207,208,209,210,211,212,213,214,215,216,217,218,219,220,221,222,223,224,225,226,227,228,229,230,231,232,233,234,235,236,237,238,239,240,241,242,243,244,245,246,247,248,249,250,251,252,253,254,255,0,1,2,3,4,5,6,7,8,9,10,11,12,13,14,15,16,17,18,19,20,21,22,23,24,25,26,27,28,29,30,31,32,33,34,35,36,37,38,39,40,41,42,43,44,45,46,47,48,49,50,51,52,53,54,55,56,57,58,59,60,61,62,63,64,65,66,67,68,69,70,71,72,73,74,75,76,77,78,79,80,81,82,83,84,85,86,87,88,89,90,91,92,93,94,95,96,97,98,99,100,101,102,103,104,105,106,107,108,109,110,111,112,113,114,115,116,117,118,119,120,121,122,123,124,125,126,127,128,129,130,131,132,133,134,135,136,137,138,139,140,141,142,143,144,145,146,147,148,149,150,151,152,153,154,155,156,157,158,159,160,161,162,163,164,165,166,167,168,169,170,171,172,173,174,175,176,177,178,179,180,181,182,183,184,185,186,187,188,189,190,191,192,193,194,195,196,197,198,199,200,201,202,203,204,205,206,207,208,209,210,211,212,213,214,215,216,217,218,219,220,221,222,223,224,225,226,227,228,229,230,231,232,233,234,235,236,237,238,239,240,241,242,243,244,245,246,247,248,249,250,251,252,253,254,255,0,1,2,3,4,5,6,7,8,9,10,11,12,13,14,15,16,17,18,19,20,21,22,23,24,25,26,27,28,29,30,31,32,33,34,35,36,37,38,39,40,41,42,43,44,45,46,47,48,49,50,51,52,53,54,55,56,57,58,59,60,61,62,63,64,65,66,67,68,69,70,71,72,73,74,75,76,77,78,79,80,81,82,83,84,85,86,87,88,89,90,91,92,93,94,95,96,97,98,99,100,101,102,103,104,105,106,107,108,109,110,111,112,113,114,115,116,117,118,119,120,121,122,123,124,125,126,127,128,129,130,131,132,133,134,135,136,137,138,139,140,141,142,143,144,145,146,147,148,149,150,151,152,153,154,155,156,157,158,159,160,161,162,163,164,165,166,167,168,169,170,171,172,173,174,175,176,177,178,179,180,181,182,183,184,185,186,187,188,189,190,191,192,193,194,195,196,197,198,199,200,201,202,203,204,205,206,207,208,209,210,211,212,213,214,215,216,217,218,219,220,221,222,223,224,225,226,227,228,229,230,231,232,233,234,235,236,237,238,239,240,241,242,243,244,245,246,247,248,249,250,251,252,253,254,255,0,1,2,3,4,6,7,7,8,9,10,11,12,14,15,15,16,17,18,19,20,22,23,23,24,25,26,27,28,30,31,31,32,33,34,35,36,38,39,39,40,41,42,43,44,46,47,47,48,49,50,51,52,54,55,55,56,57,58,59,60,62,63,63,64,65,66,67,68,70,71,71,72,73,74,75,76,78,79,79,80,81,82,83,84,86,87,87,88,89,90,91,92,94,95,95,96,97,98,99,100,102,103,103,104,105,106,107,108,110,111,111,112,113,114,115,116,118,119,119,120,121,122,123,124,126,127,127,128,129,130,131,132,134,135,135,136,137,138,139,140,142,143,143,144,145,146,147,148,150,151,151,152,153,154,155,156,158,159,159,192,193,194,195,196,198,199,199,200,201,202,203,204,206,207,207,208,209,210,211,212,214,215,215,216,217,218,219,220,222,223,223,224,225,226,227,228,230,231,231,232,233,234,235,236,238,239,239,240,241,242,243,244,246,247,247,248,249,250,251,252,254,255,255,224,225,226,227,228,230,231,231,232,233,234,235,236,238,239,239,240,241,242,243,244,246,247,247,248,249,250,251,252,254,255,255,0,1,2,3,5,6,7,7,8,9,10,11,13,14,15,15,16,17,18,19,21,22,23,23,24,25,26,27,29,30,31,31,32,33,34,35,37,38,39,39,40,41,42,43,45,46,47,47,48,49,50,51,53,54,55,55,56,57,58,59,61,62,63,63,64,65,66,67,69,70,71,71,72,73,74,75,77,78,79,79,80,81,82,83,85,86,87,87,88,89,90,91,93,94,95,95,96,97,98,99,101,102,103,103,104,105,106,107,109,110,111,111,112,113,114,115,117,118,119,119,120,121,122,123,125,126,127,127,160,161,162,163,165,166,167,167,168,169,170,171,173,174,175,175,176,177,178,179,181,182,183,183,184,185,186,187,189,190,191,191,192,193,194,195,197,198,199,199,200,201,202,203,205,206,207,207,208,209,210,211,213,214,215,215,216,217,218,219,221,222,223,223,224,225,226,227,229,230,231,231,232,233,234,235,237,238,239,239,240,241,242,243,245,246,247,247,248,249,250,251,253,254,255,255,224,225,226,227,229,230,231,231,232,233,234,235,237,238,239,239,240,241,242,243,245,246,247,247,248,249,250,251,253,254,255,255,0,1,2,4,5,6,7,7,8,9,10,12,13,14,15,15,16,17,18,20,21,22,23,23,24,25,26,28,29,30,31,31,32,33,34,36,37,38,39,39,40,41,42,44,45,46,47,47,48,49,50,52,53,54,55,55,56,57,58,60,61,62,63,63,64,65,66,68,69,70,71,71,72,73,74,76,77,78,79,79,80,81,82,84,85,86,87,87,88,89,90,92,93,94,95,95,128,129,130,132,133,134,135,135,136,137,138,140,141,142,143,143,144,145,146,148,149,150,151,151,152,153,154,156,157,158,159,159,160,161,162,164,165,166,167,167,168,169,170,172,173,174,175,175,176,177,178,180,181,182,183,183,184,185,186,188,189,190,191,191,192,193,194,196,197,198,199,199,200,201,202,204,205,206,207,207,208,209,210,212,213,214,215,215,216,217,218,220,221,222,223,223,224,225,226,228,229,230,231,231,232,233,234,236,237,238,239,239,240,241,242,244,245,246,247,247,248,249,250,252,253,254,255,255,224,225,226,228,229,230,231,231,232,233,234,236,237,238,239,239,240,241,242,244,245,246,247,247,248,249,250,252,253,254,255,255,0,1,2,4,5,7,7,7,8,9,10,12,13,15,15,15,16,17,18,20,21,23,23,23,24,25,26,28,29,31,31,31,32,33,34,36,37,39,39,39,40,41,42,44,45,47,47,47,48,49,50,52,53,55,55,55,56,57,58,60,61,63,63,63,64,65,66,68,69,71,71,71,72,73,74,76,77,79,79,79,80,81,82,84,85,87,87,87,88,89,90,92,93,95,95,95,128,129,130,132,133,135,135,135,136,137,138,140,141,143,143,143,144,145,146,148,149,151,151,151,152,153,154,156,157,159,159,159,160,161,162,164,165,167,167,167,168,169,170,172,173,175,175,175,176,177,178,180,181,183,183,183,184,185,186,188,189,191,191,191,224,225,226,228,229,231,231,231,232,233,234,236,237,239,239,239,240,241,242,244,245,247,247,247,248,249,250,252,253,255,255,255,224,225,226,228,229,231,231,231,232,233,234,236,237,239,239,239,240,241,242,244,245,247,247,247,248,249,250,252,253,255,255,255,224,225,226,228,229,231,231,231,232,233,234,236,237,239,239,239,240,241,242,244,245,247,247,247,248,249,250,252,253,255,255,255,0,1,3,4,5,7,7,7,8,9,11,12,13,15,15,15,24,25,27,28,29,31,31,31,24,25,27,28,29,31,31,31,32,33,35,36,37,39,39,39,40,41,43,44,45,47,47,47,56,57,59,60,61,63,63,63,56,57,59,60,61,63,63,63,96,97,99,100,101,103,103,103,104,105,107,108,109,111,111,111,120,121,123,124,125,127,127,127,120,121,123,124,125,127,127,127,128,129,131,132,133,135,135,135,136,137,139,140,141,143,143,143,152,153,155,156,157,159,159,159,152,153,155,156,157,159,159,159,160,161,163,164,165,167,167,167,168,169,171,172,173,175,175,175,184,185,187,188,189,191,191,191,184,185,187,188,189,191,191,191,224,225,227,228,229,231,231,231,232,233,235,236,237,239,239,239,248,249,251,252,253,255,255,255,248,249,251,252,253,255,255,255,224,225,227,228,229,231,231,231,232,233,235,236,237,239,239,239,248,249,251,252,253,255,255,255,248,249,251,252,253,255,255,255,224,225,227,228,229,231,231,231,232,233,235,236,237,239,239,239,248,249,251,252,253,255,255,255,248,249,251,252,253,255,255,255,0,1,3,4,6,7,7,7,8,9,11,12,14,15,15,15,24,25,27,28,30,31,31,31,24,25,27,28,30,31,31,31,32,33,35,36,38,39,39,39,40,41,43,44,46,47,47,47,56,57,59,60,62,63,63,63,56,57,59,60,62,63,63,63,96,97,99,100,102,103,103,103,104,105,107,108,110,111,111,111,120,121,123,124,126,127,127,127,120,121,123,124,126,127,127,127,128,129,131,132,134,135,135,135,136,137,139,140,142,143,143,143,152,153,155,156,158,159,159,159,152,153,155,156,158,159,159,159,192,193,195,196,198,199,199,199,200,201,203,204,206,207,207,207,216,217,219,220,222,223,223,223,216,217,219,220,222,223,223,223,224,225,227,228,230,231,231,231,232,233,235,236,238,239,239,239,248,249,251,252,254,255,255,255,248,249,251,252,254,255,255,255,224,225,227,228,230,231,231,231,232,233,235,236,238,239,239,239,248,249,251,252,254,255,255,255,248,249,251,252,254,255,255,255,224,225,227,228,230,231,231,231,232,233,235,236,238,239,239,239,248,249,251,252,254,255,255,255,248,249,251,252,254,255,255,255,0,1,3,4,6,7,7,7,8,9,11,12,14,15,15,15,24,25,27,28,30,31,31,31,24,25,27,28,30,31,31,31,32,33,35,36,38,39,39,39,40,41,43,44,46,47,47,47,56,57,59,60,62,63,63,63,56,57,59,60,62,63,63,63,96,97,99,100,102,103,103,103,104,105,107,108,110,111,111,111,120,121,123,124,126,127,127,127,120,121,123,124,126,127,127,127,128,129,131,132,134,135,135,135,136,137,139,140,142,143,143,143,152,153,155,156,158,159,159,159,152,153,155,156,158,159,159,159,192,193,195,196,198,199,199,199,200,201,203,204,206,207,207,207,216,217,219,220,222,223,223,223,216,217,219,220,222,223,223,223,224,225,227,228,230,231,231,231,232,233,235,236,238,239,239,239,248,249,251,252,254,255,255,255,248,249,251,252,254,255,255,255,224,225,227,228,230,231,231,231,232,233,235,236,238,239,239,239,248,249,251,252,254,255,255,255,248,249,251,252,254,255,255,255,224,225,227,228,230,231,231,231,232,233,235,236,238,239,239,239,248,249,251,252,254,255,255,255,248,249,251,252,254,255,255,255,0,1,3,5,6,7,7,7,8,9,11,13,14,15,15,15,24,25,27,29,30,31,31,31,24,25,27,29,30,31,31,31,32,33,35,37,38,39,39,39,40,41,43,45,46,47,47,47,56,57,59,61,62,63,63,63,56,57,59,61,62,63,63,63,96,97,99,101,102,103,103,103,104,105,107,109,110,111,111,111,120,121,123,125,126,127,127,127,120,121,123,125,126,127,127,127,160,161,163,165,166,167,167,167,168,169,171,173,174,175,175,175,184,185,187,189,190,191,191,191,184,185,187,189,190,191,191,191,192,193,195,197,198,199,199,199,200,201,203,205,206,207,207,207,216,217,219,221,222,223,223,223,216,217,219,221,222,223,223,223,224,225,227,229,230,231,231,231,232,233,235,237,238,239,239,239,248,249,251,253,254,255,255,255,248,249,251,253,254,255,255,255,224,225,227,229,230,231,231,231,232,233,235,237,238,239,239,239,248,249,251,253,254,255,255,255,248,249,251,253,254,255,255,255,224,225,227,229,230,231,231,231,232,233,235,237,238,239,239,239,248,249,251,253,254,255,255,255,248,249,251,253,254,255,255,255,0,1,3,5,6,7,7,7,8,9,11,13,14,15,15,15,24,25,27,29,30,31,31,31,24,25,27,29,30,31,31,31,32,33,35,37,38,39,39,39,40,41,43,45,46,47,47,47,56,57,59,61,62,63,63,63,56,57,59,61,62,63,63,63,96,97,99,101,102,103,103,103,104,105,107,109,110,111,111,111,120,121,123,125,126,127,127,127,120,121,123,125,126,127,127,127,160,161,163,165,166,167,167,167,168,169,171,173,174,175,175,175,184,185,187,189,190,191,191,191,184,185,187,189,190,191,191,191,192,193,195,197,198,199,199,199,200,201,203,205,206,207,207,207,216,217,219,221,222,223,223,223,216,217,219,221,222,223,223,223,224,225,227,229,230,231,231,231,232,233,235,237,238,239,239,239,248,249,251,253,254,255,255,255,248,249,251,253,254,255,255,255,224,225,227,229,230,231,231,231,232,233,235,237,238,239,239,239,248,249,251,253,254,255,255,255,248,249,251,253,254,255,255,255,224,225,227,229,230,231,231,231,232,233,235,237,238,239,239,239,248,249,251,253,254,255,255,255,248,249,251,253,254,255,255,255,0,1,3,5,7,7,7,7,8,9,11,13,15,15,15,15,24,25,27,29,31,31,31,31,24,25,27,29,31,31,31,31,32,33,35,37,39,39,39,39,40,41,43,45,47,47,47,47,56,57,59,61,63,63,63,63,56,57,59,61,63,63,63,63,96,97,99,101,103,103,103,103,104,105,107,109,111,111,111,111,120,121,123,125,127,127,127,127,120,121,123,125,127,127,127,127,160,161,163,165,167,167,167,167,168,169,171,173,175,175,175,175,184,185,187,189,191,191,191,191,184,185,187,189,191,191,191,191,224,225,227,229,231,231,231,231,232,233,235,237,239,239,239,239,248,249,251,253,255,255,255,255,248,249,251,253,255,255,255,255,224,225,227,229,231,231,231,231,232,233,235,237,239,239,239,239,248,249,251,253,255,255,255,255,248,249,251,253,255,255,255,255,224,225,227,229,231,231,231,231,232,233,235,237,239,239,239,239,248,249,251,253,255,255,255,255,248,249,251,253,255,255,255,255,224,225,227,229,231,231,231,231,232,233,235,237,239,239,239,239,248,249,251,253,255,255,255,255,248,249,251,253,255,255,255,255,0,1,3,5,7,7,7,7,8,9,11,13,15,15,15,15,24,25,27,29,31,31,31,31,24,25,27,29,31,31,31,31,32,33,35,37,39,39,39,39,40,41,43,45,47,47,47,47,56,57,59,61,63,63,63,63,56,57,59,61,63,63,63,63,96,97,99,101,103,103,103,103,104,105,107,109,111,111,111,111,120,121,123,125,127,127,127,127,120,121,123,125,127,127,127,127,160,161,163,165,167,167,167,167,168,169,171,173,175,175,175,175,184,185,187,189,191,191,191,191,184,185,187,189,191,191,191,191,224,225,227,229,231,231,231,231,232,233,235,237,239,239,239,239,248,249,251,253,255,255,255,255,248,249,251,253,255,255,255,255,224,225,227,229,231,231,231,231,232,233,235,237,239,239,239,239,248,249,251,253,255,255,255,255,248,249,251,253,255,255,255,255,224,225,227,229,231,231,231,231,232,233,235,237,239,239,239,239,248,249,251,253,255,255,255,255,248,249,251,253,255,255,255,255,224,225,227,229,231,231,231,231,232,233,235,237,239,239,239,239,248,249,251,253,255,255,255,255,248,249,251,253,255,255,255,255,0,2,3,5,7,7,7,7,16,18,19,21,23,23,23,23,24,26,27,29,31,31,31,31,24,26,27,29,31,31,31,31,64,66,67,69,71,71,71,71,80,82,83,85,87,87,87,87,88,90,91,93,95,95,95,95,88,90,91,93,95,95,95,95,96,98,99,101,103,103,103,103,112,114,115,117,119,119,119,119,120,122,123,125,127,127,127,127,120,122,123,125,127,127,127,127,160,162,163,165,167,167,167,167,176,178,179,181,183,183,183,183,184,186,187,189,191,191,191,191,184,186,187,189,191,191,191,191,224,226,227,229,231,231,231,231,240,242,243,245,247,247,247,247,248,250,251,253,255,255,255,255,248,250,251,253,255,255,255,255,224,226,227,229,231,231,231,231,240,242,243,245,247,247,247,247,248,250,251,253,255,255,255,255,248,250,251,253,255,255,255,255,224,226,227,229,231,231,231,231,240,242,243,245,247,247,247,247,248,250,251,253,255,255,255,255,248,250,251,253,255,255,255,255,224,226,227,229,231,231,231,231,240,242,243,245,247,247,247,247,248,250,251,253,255,255,255,255,248,250,251,253,255,255,255,255,0,2,4,5,7,7,7,7,16,18,20,21,23,23,23,23,24,26,28,29,31,31,31,31,24,26,28,29,31,31,31,31,64,66,68,69,71,71,71,71,80,82,84,85,87,87,87,87,88,90,92,93,95,95,95,95,88,90,92,93,95,95,95,95,128,130,132,133,135,135,135,135,144,146,148,149,151,151,151,151,152,154,156,157,159,159,159,159,152,154,156,157,159,159,159,159,160,162,164,165,167,167,167,167,176,178,180,181,183,183,183,183,184,186,188,189,191,191,191,191,184,186,188,189,191,191,191,191,224,226,228,229,231,231,231,231,240,242,244,245,247,247,247,247,248,250,252,253,255,255,255,255,248,250,252,253,255,255,255,255,224,226,228,229,231,231,231,231,240,242,244,245,247,247,247,247,248,250,252,253,255,255,255,255,248,250,252,253,255,255,255,255,224,226,228,229,231,231,231,231,240,242,244,245,247,247,247,247,248,250,252,253,255,255,255,255,248,250,252,253,255,255,255,255,224,226,228,229,231,231,231,231,240,242,244,245,247,247,247,247,248,250,252,253,255,255,255,255,248,250,252,253,255,255,255,255
    5 D1:FF53 -  -  -  -  
    6 D1:FF53 -  -  -  -  ; sin LUT , this lut shouldn't cross 64K boundary !
    7 D1:FF53 -  -  -  -  VX_SIN_LUT_DATA:
    8 D1:FF53 -  -  -  -  VX_SIN_TABLE_SIZE=512
    9 D1:FF53 00 65 C9 2E 
              92 F7 5B C0 .db 0,101,201,46,146,247,91,192
   10 D1:FF5B 24 88 ED 51 
              B5 1A 7E E2 .db 36,136,237,81,181,26,126,226
   11 D1:FF63 46 AA 0E 72 
              D6 39 9D 01 .db 70,170,14,114,214,57,157,1
   12 D1:FF6B 64 C7 2B 8E 
              F1 54 B7 1A .db 100,199,43,142,241,84,183,26
   13 D1:FF73 7C DF 41 A4 
              06 68 CA 2B .db 124,223,65,164,6,104,202,43
   14 D1:FF7B 8D EE 50 B1 
              12 73 D3 34 .db 141,238,80,177,18,115,211,52
   15 D1:FF83 94 F4 54 B4 
              13 73 D2 31 .db 148,244,84,180,19,115,210,49
   16 D1:FF8B 90 EE 4C AB 
              09 66 C4 21 .db 144,238,76,171,9,102,196,33
   17 D1:FF93 7E DB 37 93 
              EF 4B A7 02 .db 126,219,55,147,239,75,167,2
   18 D1:FF9B 5D B8 12 6C 
              C6 20 79 D3 .db 93,184,18,108,198,32,121,211
   19 D1:FFA3 2B 84 DC 34 
              8C E3 3A 91 .db 43,132,220,52,140,227,58,145
   20 D1:FFAB E7 3D 93 E8 
              3D 92 E7 3B .db 231,61,147,232,61,146,231,59
   21 D1:FFB3 8E E2 35 88 
              DA 2C 7E CF .db 142,226,53,136,218,44,126,207
   22 D1:FFBB 20 71 C1 11 
              60 AF FE 4C .db 32,113,193,17,96,175,254,76
   23 D1:FFC3 9A E7 35 81 
              CE 1A 65 B0 .db 154,231,53,129,206,26,101,176
   24 D1:FFCB FB 45 8F D8 
              21 6A B2 FA .db 251,69,143,216,33,106,178,250
   25 D1:FFD3 41 88 CF 15 
              5A 9F E4 28 .db 65,136,207,21,90,159,228,40
   26 D1:FFDB 6C AF F2 34 
              76 B8 F9 39 .db 108,175,242,52,118,184,249,57
   27 D1:FFE3 79 B9 F8 36 
              74 B2 EF 2C .db 121,185,248,54,116,178,239,44
   28 D1:FFEB 68 A3 DF 19 
              53 8D C6 FF .db 104,163,223,25,83,141,198,255
   29 D1:FFF3 37 6E A5 DC 
              12 48 7D B1 .db 55,110,165,220,18,72,125,177
   30 D1:FFFB E5 18 4B 7E 
              B0 E1 12 42 .db 229,24,75,126,176,225,18,66
   31 D2:0003 71 A1 CF FD 
              2B 58 84 B0 .db 113,161,207,253,43,88,132,176
   32 D2:000B DB 06 30 59 
              82 AB D3 FA .db 219,6,48,89,130,171,211,250
   33 D2:0013 21 47 6D 92 
              B6 DA FD 20 .db 33,71,109,146,182,218,253,32
   34 D2:001B 42 64 85 A5 
              C5 E4 03 21 .db 66,100,133,165,197,228,3,33
   35 D2:0023 3F 5B 78 93 
              AF C9 E3 FC .db 63,91,120,147,175,201,227,252
   36 D2:002B 15 2D 45 5C 
              72 88 9D B1 .db 21,45,69,92,114,136,157,177
   37 D2:0033 C5 D8 EB FD 
              0F 20 30 40 .db 197,216,235,253,15,32,48,64
   38 D2:003B 4F 5D 6B 78 
              85 91 9C A7 .db 79,93,107,120,133,145,156,167
   39 D2:0043 B1 BB C4 CC 
              D4 DB E1 E7 .db 177,187,196,204,212,219,225,231
   40 D2:004B EC F1 F5 F8 
              FB FD FF 00 .db 236,241,245,248,251,253,255,0
   41 D2:0053 00 00 00 01 
              01 01 02 02 .db 0,0,0,1,1,1,2,2
   42 D2:005B 03 03 03 04 
              04 05 05 05 .db 3,3,3,4,4,5,5,5
   43 D2:0063 06 06 07 07 
              07 08 08 09 .db 6,6,7,7,7,8,8,9
   44 D2:006B 09 09 0A 0A 
              0A 0B 0B 0C .db 9,9,10,10,10,11,11,12
   45 D2:0073 0C 0C 0D 0D 
              0E 0E 0E 0F .db 12,12,13,13,14,14,14,15
   46 D2:007B 0F 0F 10 10 
              11 11 11 12 .db 15,15,16,16,17,17,17,18
   47 D2:0083 12 12 13 13 
              14 14 14 15 .db 18,18,19,19,20,20,20,21
   48 D2:008B 15 15 16 16 
              17 17 17 18 .db 21,21,22,22,23,23,23,24
   49 D2:0093 18 18 19 19 
              19 1A 1A 1B .db 24,24,25,25,25,26,26,27
   50 D2:009B 1B 1B 1C 1C 
              1C 1D 1D 1D .db 27,27,28,28,28,29,29,29
   51 D2:00A3 1E 1E 1E 1F 
              1F 1F 20 20 .db 30,30,30,31,31,31,32,32
   52 D2:00AB 20 21 21 21 
              22 22 22 23 .db 32,33,33,33,34,34,34,35
   53 D2:00B3 23 23 24 24 
              24 25 25 25 .db 35,35,36,36,36,37,37,37
   54 D2:00BB 26 26 26 27 
              27 27 27 28 .db 38,38,38,39,39,39,39,40
   55 D2:00C3 28 28 29 29 
              29 2A 2A 2A .db 40,40,41,41,41,42,42,42
   56 D2:00CB 2A 2B 2B 2B 
              2C 2C 2C 2C .db 42,43,43,43,44,44,44,44
   57 D2:00D3 2D 2D 2D 2E 
              2E 2E 2E 2F .db 45,45,45,46,46,46,46,47
   58 D2:00DB 2F 2F 2F 30 
              30 30 30 31 .db 47,47,47,48,48,48,48,49
   59 D2:00E3 31 31 31 32 
              32 32 32 33 .db 49,49,49,50,50,50,50,51
   60 D2:00EB 33 33 33 34 
              34 34 34 34 .db 51,51,51,52,52,52,52,52
   61 D2:00F3 35 35 35 35 
              36 36 36 36 .db 53,53,53,53,54,54,54,54
   62 D2:00FB 36 37 37 37 
              37 37 38 38 .db 54,55,55,55,55,55,56,56
   63 D2:0103 38 38 38 38 
              39 39 39 39 .db 56,56,56,56,57,57,57,57
   64 D2:010B 39 3A 3A 3A 
              3A 3A 3A 3A .db 57,58,58,58,58,58,58,58
   65 D2:0113 3B 3B 3B 3B 
              3B 3B 3B 3C .db 59,59,59,59,59,59,59,60
   66 D2:011B 3C 3C 3C 3C 
              3C 3C 3D 3D .db 60,60,60,60,60,60,61,61
   67 D2:0123 3D 3D 3D 3D 
              3D 3D 3D 3D .db 61,61,61,61,61,61,61,61
   68 D2:012B 3E 3E 3E 3E 
              3E 3E 3E 3E .db 62,62,62,62,62,62,62,62
   69 D2:0133 3E 3E 3E 3E 
              3F 3F 3F 3F .db 62,62,62,62,63,63,63,63
   70 D2:013B 3F 3F 3F 3F 
              3F 3F 3F 3F .db 63,63,63,63,63,63,63,63
   71 D2:0143 3F 3F 3F 3F 
              3F 3F 3F 3F .db 63,63,63,63,63,63,63,63
   72 D2:014B 3F 3F 3F 3F 
              3F 3F 3F 40 .db 63,63,63,63,63,63,63,64
Listing for file "C:\Users\Zeromus\Documents\GitHub\Virtual3D\vxMain.ez80"
   14 D2:0153 -  -  -  -  
   15 D2:0153 -  -  -  -  ; functions
   16 D2:0153 -  -  -  -  
   17 D2:0153 -  -  -  -  vxEngineInit:
   18 D2:0153 -  -  -  -  ; get indic off
   19 D2:0153 CD 48 08 02 	call	_RunIndicoff
   20 D2:0157 -  -  -  -  ; disable interrupt and start LCD interrupt
   21 D2:0157 CD 74 03 00 	call	_boot_ClearVRAM
   22 D2:015B F3 -  -  -  	di
   23 D2:015C 3A 1C 00 E3 	ld	a, (VX_LCD_IMSC)
   24 D2:0160 F6 04 -  -  	or	%00000100
   25 D2:0162 32 1C 00 E3 	ld	(VX_LCD_IMSC), a
   26 D2:0166 -  -  -  -  
   27 D2:0166 -  -  -  -  ; setup 8bpp mode
   28 D2:0166 3E 27 -  -  	ld a,VX_BPP8
   29 D2:0168 32 18 00 E3 	ld	(VX_LCD_CTRL),a
   30 D2:016C -  -  -  -  ; load vram buffer
   31 D2:016C 21 00 00 D4 	ld	hl, VX_FRAMEBUFFER_AUX0
   32 D2:0170 22 10 00 E3 	ld	(VX_LCD_BUFFER), hl
   33 D2:0174 21 00 2C D5 	ld	hl, VX_FRAMEBUFFER_AUX1
   34 D2:0178 22 14 00 E3 	ld	(vxFramebuffer), hl
   35 D2:017C -  -  -  -  
   36 D2:017C -  -  -  -  
   37 D2:017C FD 21 00 00 
              D1 -  -  -  	ld	iy, VX_GEOMETRY_QUEUE
   38 D2:0181 FD 22 A4 BD 
              D1 -  -  -  	ld	(vxSubmissionQueue), iy
   39 D2:0186 21 00 BE D1 	ld	hl, VX_BATCH_DATA
   40 D2:018A 22 AA BD D1 	ld	(vxBatchData), hl
   41 D2:018E B7 -  -  -  	or	a, a
   42 D2:018F ED 62 -  -  	sbc	hl, hl
   43 D2:0191 22 A7 BD D1 	ld	(vxGeometrySize), hl
   44 D2:0195 -  -  -  -  ;;	ld	hl, 0E00005h
   45 D2:0195 -  -  -  -  ;;;	ld	(hl), 2	; Set flash wait states to 5 + 1 = 6 (total access time = 7)
   46 D2:0195 CD B2 C4 D1 	call	vxCreateMemoryPool
   47 D2:0199 -  -  -  -  
   48 D2:0199 21 79 88 D1 	ld	hl,0D18879h
   49 D2:019D 11 11 06 C9 	ld	de,0C90611h
   50 D2:01A1 ED 1F -  -  	ld	(hl),de
   51 D2:01A3 2B -  -  -  	dec	hl
   52 D2:01A4 36 ED -  -  	ld	(hl),0EDh
   53 D2:01A6 E5 -  -  -  	push	hl
   54 D2:01A7 14 -  -  -  	inc	d
   55 D2:01A8 CD 78 88 D1 	call	0D18878h
   56 D2:01AC E1 -  -  -  	pop	hl
   57 D2:01AD -  -  -  -  
   58 D2:01AD -  -  -  -  #define	VX_COLOR_LUT	$D00000
   59 D2:01AD -  -  -  -  #define	VX_SIN_TABLE	$D02000
   60 D2:01AD -  -  -  -  
   61 D2:01AD 21 53 DF D1 	ld	hl, VX_COLOR_LUT_DATA
   62 D2:01B1 11 00 00 D0 	ld	de, VX_COLOR_LUT
   63 D2:01B5 01 00 20 00 	ld	bc, 8192
   64 D2:01B9 ED B0 -  -  	ldir
   65 D2:01BB 21 53 FF D1 	ld	hl, VX_SIN_LUT_DATA
   66 D2:01BF 11 00 20 D0 	ld	de, VX_SIN_TABLE
   67 D2:01C3 01 00 02 00 	ld	bc, 512
   68 D2:01C7 ED B0 -  -  	ldir
   69 D2:01C9 -  -  -  -  
   70 D2:01C9 CD 9A B3 D1 	call	vxResetPalette
   71 D2:01CD -  -  -  -  ; insert stack position
   72 D2:01CD 21 D3 01 D2 	ld	hl, vxEngineQuit
   73 D2:01D1 E3 -  -  -  	ex	(sp), hl
   74 D2:01D2 E9 -  -  -  	jp	(hl)
   75 D2:01D3 -  -  -  -  vxEngineQuit:
   76 D2:01D3 3E D0 -  -  	ld	a, $D0
   77 D2:01D5 ED 6D -  -  	.db	$ED,$6D
   78 D2:01D7 21 00 00 F5 	ld hl,$F50000
   79 D2:01DB AF -  -  -  	xor a		; Mode 0
   80 D2:01DC 77 -  -  -  	ld (hl),a
   81 D2:01DD 2C -  -  -  	inc l		; 0F50001h
   82 D2:01DE 36 0F -  -  	ld (hl),15	; Wait 15*256 APB cycles before scanning each row
   83 D2:01E0 2C -  -  -  	inc l		; 0F50002h
   84 D2:01E1 AF -  -  -  	xor a
   85 D2:01E2 77 -  -  -  	ld (hl),a
   86 D2:01E3 2C -  -  -   	inc l		; 0F50003h
   87 D2:01E4 36 0F -  -  	ld (hl),15	; Wait 15 APB cycles before each scan
   88 D2:01E6 2C -  -  -  	inc l		; 0F50004h
   89 D2:01E7 3E 08 -  -  	ld a,8		; Number of rows to scan
   90 D2:01E9 77 -  -  -  	ld (hl),a
   91 D2:01EA 2C -  -  -  	inc l		; 0F50005h
   92 D2:01EB 77 -  -  -  	ld (hl),a	; Number of columns to scan
   93 D2:01EC FD 21 80 00 
              D0 -  -  -  	ld iy, OS__FLAGS
   94 D2:01F1 3E 2D -  -  	ld a, VX_BPP16
   95 D2:01F3 32 18 00 E3 	ld (VX_LCD_CTRL),a
   96 D2:01F7 21 00 00 D4 	ld	hl, VX_FRAMEBUFFER_AUX0
   97 D2:01FB 22 10 00 E3 	ld	(VX_LCD_BUFFER), hl
   98 D2:01FF -  -  -  -  
   99 D2:01FF CD 0B C5 D1 	call	vxDestroyMemoryPool
  100 D2:0203 -  -  -  -  
  101 D2:0203 CD 28 08 02 	call _HomeUp
  102 D2:0207 CD 14 08 02 	call _Clrscrn
  103 D2:020B CD 3C 1A 02 	call _DrawStatusBar
  104 D2:020F CD 44 08 02 	call _RunIndicon
  105 D2:0213 FB -  -  -  	ei
  106 D2:0214 C3 50 1A 02 	jp _DrawBatteryIndicator
Listing for file "example.ez80"
  152 D2:0218 -  -  -  -  #include	"graphics_lib.asm"
Listing for file "C:\Users\Zeromus\Documents\GitHub\Virtual3D\graphics_lib.asm"
    1 D2:0218 -  -  -  -  ; quickly hacked C routines to be able to display digits
    2 D2:0218 -  -  -  -  
    3 D2:0218 -  -  -  -  
    4 D2:0218 -  -  -  -  ;-------------------------------------------------------------------------------
    5 D2:0218 -  -  -  -  ; Used throughout the library
    6 D2:0218 -  -  -  -  lcdSize                 equ lcdWidth*lcdHeight
    7 D2:0218 -  -  -  -  currDrawBuffer          equ 0E30014h
    8 D2:0218 -  -  -  -  _GetTextX:
    9 D2:0218 -  -  -  -  ; Gets the X position of the text cursor
   10 D2:0218 -  -  -  -  ; Arguments:
   11 D2:0218 -  -  -  -  ;  None
   12 D2:0218 -  -  -  -  ; Returns:
   13 D2:0218 -  -  -  -  ;  X Text cursor posistion
   14 D2:0218 2A 75 02 D2 	ld	hl,(TextXPos_SMC) 
   15 D2:021C C9 -  -  -  	ret
   16 D2:021D -  -  -  -  
   17 D2:021D -  -  -  -  ;-------------------------------------------------------------------------------
   18 D2:021D -  -  -  -  _GetTextY:
   19 D2:021D -  -  -  -  ; Gets the Y position of the text cursor
   20 D2:021D -  -  -  -  ; Arguments:
   21 D2:021D -  -  -  -  ;  None
   22 D2:021D -  -  -  -  ; Returns:
   23 D2:021D -  -  -  -  ;  Y Text cursor posistion
   24 D2:021D 3A 83 02 D2 	ld	a,(TextYPos_SMC) 
   25 D2:0221 C9 -  -  -  	ret
   26 D2:0222 -  -  -  -  
   27 D2:0222 -  -  -  -  ;-------------------------------------------------------------------------------
   28 D2:0222 -  -  -  -  _SetTextBGColorC:
   29 D2:0222 -  -  -  -  ; Sets the background text color for text routines
   30 D2:0222 -  -  -  -  ; Arguments:
   31 D2:0222 -  -  -  -  ;  arg0 : Color index to set BG to
   32 D2:0222 -  -  -  -  ; Returns:
   33 D2:0222 -  -  -  -  ;  Previous text color palette index
   34 D2:0222 E1 -  -  -  	pop	hl
   35 D2:0223 D1 -  -  -  	pop	de
   36 D2:0224 D5 -  -  -  	push	de
   37 D2:0225 E5 -  -  -  	push	hl
   38 D2:0226 21 B4 02 D2 	ld	hl,TextBGColor_SMC 
   39 D2:022A 7E -  -  -  	ld	a,(hl)
   40 D2:022B 73 -  -  -  	ld	(hl),e
   41 D2:022C C9 -  -  -  	ret
   42 D2:022D -  -  -  -  
   43 D2:022D -  -  -  -  ;-------------------------------------------------------------------------------
   44 D2:022D -  -  -  -  _SetTextFGColorC:
   45 D2:022D -  -  -  -  ; Sets the foreground text color for text routines
   46 D2:022D -  -  -  -  ; Arguments:
   47 D2:022D -  -  -  -  ;  arg0 : Color index to set FG to
   48 D2:022D -  -  -  -  ; Returns:
   49 D2:022D -  -  -  -  ;  Previous text color palette index
   50 D2:022D E1 -  -  -  	pop	hl
   51 D2:022E D1 -  -  -  	pop	de
   52 D2:022F D5 -  -  -  	push	de
   53 D2:0230 E5 -  -  -  	push	hl
   54 D2:0231 21 BA 02 D2 	ld	hl,TextFGColor_SMC 
   55 D2:0235 7E -  -  -  	ld	a,(hl)
   56 D2:0236 73 -  -  -  	ld	(hl),e
   57 D2:0237 C9 -  -  -  	ret
   58 D2:0238 -  -  -  -  
   59 D2:0238 -  -  -  -  ;-------------------------------------------------------------------------------
   60 D2:0238 -  -  -  -  _SetTextTransparentColorC:
   61 D2:0238 -  -  -  -  ; Sets the transparency text color for text routines
   62 D2:0238 -  -  -  -  ; Arguments:
   63 D2:0238 -  -  -  -  ;  arg0 : Color index to set transparent text to
   64 D2:0238 -  -  -  -  ; Returns:
   65 D2:0238 -  -  -  -  ;  Previous text color palette index
   66 D2:0238 E1 -  -  -  	pop	hl
   67 D2:0239 D1 -  -  -  	pop	de
   68 D2:023A D5 -  -  -  	push	de
   69 D2:023B E5 -  -  -  	push	hl
   70 D2:023C 21 BC 02 D2 	ld	hl,TextTransColor_SMC 
   71 D2:0240 7E -  -  -  	ld	a,(hl)
   72 D2:0241 73 -  -  -  	ld	(hl),e
   73 D2:0242 C9 -  -  -  	ret
   74 D2:0243 -  -  -  -  	
   75 D2:0243 -  -  -  -  ;-------------------------------------------------------------------------------
   76 D2:0243 -  -  -  -  _SetTextXY:
   77 D2:0243 -  -  -  -  ; Sets the transparency text color for text routines
   78 D2:0243 -  -  -  -  ; Arguments:
   79 D2:0243 -  -  -  -  ;  arg0 : Text X Pos
   80 D2:0243 -  -  -  -  ;  arg1 : Text Y Pos
   81 D2:0243 -  -  -  -  ; Returns:
   82 D2:0243 -  -  -  -  ;  None
   83 D2:0243 21 03 00 00 	ld	hl,3
   84 D2:0247 39 -  -  -  	add	hl,sp
   85 D2:0248 11 75 02 D2 	ld	de,TextXPos_SMC 
   86 D2:024C ED A0 -  -  	ldi
   87 D2:024E ED A0 -  -  	ldi
   88 D2:0250 23 -  -  -  	inc	hl
   89 D2:0251 7E -  -  -  	ld	a,(hl)
   90 D2:0252 32 83 02 D2 	ld	(TextYPos_SMC),a 
   91 D2:0256 C9 -  -  -  	ret
   92 D2:0257 -  -  -  -  _PrintChar:
   93 D2:0257 -  -  -  -  ; Places a character at the current cursor position
   94 D2:0257 -  -  -  -  ; Arguments:
   95 D2:0257 -  -  -  -  ;  arg0 : Character to draw
   96 D2:0257 -  -  -  -  ; Returns:
   97 D2:0257 -  -  -  -  ;  None
   98 D2:0257 FD 21 00 00 
              00 -  -  -  	ld	iy,0
   99 D2:025C FD 39 -  -  	add	iy,sp
  100 D2:025E FD 7E 03 -  	ld	a,(iy+3)
  101 D2:0261 -  -  -  -  _PrintChar_ASM:
  102 D2:0261 DD E5 -  -  	push	ix				; save stack pointer
  103 D2:0263 E5 -  -  -  	push	hl				; save hl pointer if string
  104 D2:0264 5F -  -  -  	ld	e,a				; e = char
  105 D2:0265 -  -  -  -  MonoFlag_SMC =$+1
  106 D2:0265 3E 00 -  -  	ld	a,0
  107 D2:0267 B7 -  -  -  	or	a,a
  108 D2:0268 20 0A -  -  	jr	nz,+_
  109 D2:026A ED 62 -  -  	sbc	hl,hl
  110 D2:026C 6B -  -  -  	ld	l,e				; hl = character
  111 D2:026D ED 4B 23 05 
              D2 -  -  -  	ld	bc,(CharSpacing_ASM) 
  112 D2:0272 09 -  -  -  	add	hl,bc
  113 D2:0273 7E -  -  -  	ld	a,(hl)				; a = char width
  114 D2:0274 -  -  -  -  TextXPos_SMC = $+1
  115 D2:0274 01 00 00 00 _:	ld	bc,0
  116 D2:0278 ED 62 -  -  	sbc	hl,hl
  117 D2:027A 6F -  -  -  	ld	l,a
  118 D2:027B DD 67 -  -  	ld	ixh,a				; ixh = char width
  119 D2:027D 09 -  -  -  	add	hl,bc
  120 D2:027E 22 75 02 D2 	ld	(TextXPos_SMC),hl 
  121 D2:0282 -  -  -  -  TextYPos_SMC = $+1
  122 D2:0282 2E 00 -  -  	ld	l,0
  123 D2:0284 26 A0 -  -  	ld	h,lcdWidth/2
  124 D2:0286 ED 6C -  -  	mlt	hl
  125 D2:0288 29 -  -  -  	add	hl,hl
  126 D2:0289 09 -  -  -  	add	hl,bc
  127 D2:028A ED 4B 14 00 
              E3 -  -  -  	ld	bc,(vxFramebuffer)
  128 D2:028F 09 -  -  -  	add	hl,bc
  129 D2:0290 EB -  -  -  	ex	de,hl				; de = draw location
  130 D2:0291 7D -  -  -  	ld	a,l				; l = character
  131 D2:0292 ED 62 -  -  	sbc	hl,hl
  132 D2:0294 6F -  -  -  	ld	l,a				; hl = character
  133 D2:0295 29 -  -  -  	add	hl,hl
  134 D2:0296 29 -  -  -  	add	hl,hl
  135 D2:0297 29 -  -  -  	add	hl,hl
  136 D2:0298 ED 4B 26 05 
              D2 -  -  -  	ld	bc,(TextData_ASM) 		; get text data array
  137 D2:029D 09 -  -  -  	add	hl,bc
  138 D2:029E FD 21 00 00 
              00 -  -  -  	ld	iy,0
  139 D2:02A3 -  -  -  -  UseLargeFont_SMC =$+1
  140 D2:02A3 3E 00 -  -  	ld	a,0
  141 D2:02A5 B7 -  -  -  	or	a,a
  142 D2:02A6 20 28 -  -  	jr	nz,_PrintLargeFont_ASM
  143 D2:02A8 DD 2E 08 -  	ld	ixl,8
  144 D2:02AB 4E -  -  -  _:	ld	c,(hl)				; c = 8 pixels
  145 D2:02AC FD 19 -  -  	add	iy,de				; get draw location
  146 D2:02AE ED 13 00 -  	lea	de,iy
  147 D2:02B1 DD 44 -  -  	ld	b,ixh
  148 D2:02B3 -  -  -  -  TextBGColor_SMC =$+1
  149 D2:02B3 3E 00 -  -  _:	ld	a,0
  150 D2:02B5 CB 01 -  -  	rlc	c
  151 D2:02B7 30 02 -  -  	jr	nc,+_
  152 D2:02B9 -  -  -  -  TextFGColor_SMC =$+1
  153 D2:02B9 3E FF -  -  	ld	a,255
  154 D2:02BB -  -  -  -  TextTransColor_SMC =$+1
  155 D2:02BB FE 00 -  -  _:	cp	a,0				; check if transparent
  156 D2:02BD 28 01 -  -  	jr	z,+_
  157 D2:02BF 12 -  -  -  	ld	(de),a
  158 D2:02C0 13 -  -  -  _:	inc	de				; move to next pixel
  159 D2:02C1 10 F0 -  -  	djnz	---_
  160 D2:02C3 11 40 01 00 	ld	de,lcdWidth
  161 D2:02C7 23 -  -  -  	inc	hl
  162 D2:02C8 DD 2D -  -  	dec	ixl
  163 D2:02CA 20 DF -  -  	jr	nz,----_
  164 D2:02CC E1 -  -  -  	pop	hl				; restore hl and stack pointer
  165 D2:02CD DD E1 -  -  	pop	ix
  166 D2:02CF C9 -  -  -  	ret
  167 D2:02D0 -  -  -  -  	
  168 D2:02D0 -  -  -  -  _PrintLargeFont_ASM:
  169 D2:02D0 DD 2E 10 -  	ld	ixl,16
  170 D2:02D3 4E -  -  -  _:	ld	c,(hl)				; c = 8 pixels
  171 D2:02D4 FD 19 -  -  	add	iy,de				; get draw location
  172 D2:02D6 ED 13 00 -  	lea	de,iy
  173 D2:02D9 DD 44 -  -  	ld	b,ixh
  174 D2:02DB 3A B4 02 D2 _:	ld	a,(TextBGColor_SMC)
  175 D2:02DF CB 01 -  -  	rlc	c
  176 D2:02E1 30 04 -  -  	jr	nc,+_
  177 D2:02E3 3A BA 02 D2 	ld	a,(TextFGColor_SMC)
  178 D2:02E7 DD BD -  -  _:	cp	a,ixl				; check if transparent
  179 D2:02E9 28 03 -  -  	jr	z,+_
  180 D2:02EB 12 -  -  -  	ld	(de),a
  181 D2:02EC 13 -  -  -  	inc	de
  182 D2:02ED 12 -  -  -  	ld	(de),a
  183 D2:02EE 13 -  -  -  _:	inc	de				; move to next pixel
  184 D2:02EF 10 EA -  -  	djnz	---_
  185 D2:02F1 11 40 01 00 	ld	de,lcdWidth
  186 D2:02F5 23 -  -  -  	inc	hl
  187 D2:02F6 DD 2D -  -  	dec	ixl
  188 D2:02F8 20 D9 -  -  	jr	nz,----_
  189 D2:02FA E1 -  -  -  	pop	hl				; restore hl and stack pointer
  190 D2:02FB DD E1 -  -  	pop	ix
  191 D2:02FD C9 -  -  -  	ret
  192 D2:02FE -  -  -  -  	
  193 D2:02FE -  -  -  -  ;-------------------------------------------------------------------------------
  194 D2:02FE -  -  -  -  _PrintUInt:
  195 D2:02FE -  -  -  -  ; Places an unsigned int at the current cursor position
  196 D2:02FE -  -  -  -  ; Arguments:
  197 D2:02FE -  -  -  -  ;  arg0 : Number to print
  198 D2:02FE -  -  -  -  ;  arg1 : Number of characters to print
  199 D2:02FE -  -  -  -  ; Returns:
  200 D2:02FE -  -  -  -  ;  None
  201 D2:02FE FD 21 00 00 
              00 -  -  -  	ld	iy,0
  202 D2:0303 FD 39 -  -  	add	iy,sp
  203 D2:0305 FD 27 03 -  	ld	hl,(iy+3)
  204 D2:0308 FD 4E 06 -  	ld	c,(iy+6)
  205 D2:030B -  -  -  -  _PrintUInt_ASM:
  206 D2:030B 3E 08 -  -  	ld	a,8
  207 D2:030D 91 -  -  -  	sub	a,c
  208 D2:030E D8 -  -  -  	ret	c
  209 D2:030F 4F -  -  -  	ld	c,a
  210 D2:0310 06 08 -  -  	ld	b,8
  211 D2:0312 ED 4C -  -  	mlt	bc
  212 D2:0314 79 -  -  -  	ld	a,c
  213 D2:0315 32 1A 03 D2 	ld	(Offset_SMC),a 
  214 D2:0319 -  -  -  -  Offset_SMC =$+1
  215 D2:0319 18 FE -  -  	jr	$
  216 D2:031B 01 80 69 67 	ld	bc,-10000000
  217 D2:031F CD 57 03 D2 	call	Num1 
  218 D2:0323 01 C0 BD F0 	ld	bc,-1000000
  219 D2:0327 CD 57 03 D2 	call	Num1 
  220 D2:032B 01 60 79 FE 	ld	bc,-100000
  221 D2:032F CD 57 03 D2 	call	Num1 
  222 D2:0333 01 F0 D8 FF 	ld	bc,-10000
  223 D2:0337 CD 57 03 D2 	call	Num1 
  224 D2:033B 01 18 FC FF 	ld	bc,-1000
  225 D2:033F CD 57 03 D2 	call 	Num1 
  226 D2:0343 01 9C FF FF 	ld	bc,-100
  227 D2:0347 CD 57 03 D2 	call	Num1 
  228 D2:034B 01 F6 FF FF 	ld	bc,-10
  229 D2:034F CD 57 03 D2 	call	Num1 
  230 D2:0353 01 FF FF FF 	ld	bc,-1
  231 D2:0357 3E 2F -  -  Num1:	ld	a,'0'-1
  232 D2:0359 3C -  -  -  Num2:	inc	a
  233 D2:035A 09 -  -  -  	add	hl,bc
  234 D2:035B 38 FC -  -  	jr	c,Num2
  235 D2:035D ED 42 -  -  	sbc	hl,bc
  236 D2:035F C3 61 02 D2 	jp	_PrintChar_ASM 
  237 D2:0363 -  -  -  -   
  238 D2:0363 -  -  -  -  ;-------------------------------------------------------------------------------
  239 D2:0363 -  -  -  -  _PrintInt:
  240 D2:0363 -  -  -  -  ; Places an int at the current cursor position
  241 D2:0363 -  -  -  -  ; Arguments:
  242 D2:0363 -  -  -  -  ;  arg0 : Number to print
  243 D2:0363 -  -  -  -  ;  arg1 : Number of characters to print
  244 D2:0363 -  -  -  -  ; Returns:
  245 D2:0363 -  -  -  -  ;  None
  246 D2:0363 FD 21 00 00 
              00 -  -  -  	ld	iy,0
  247 D2:0368 ED 03 00 -  	lea	bc,iy
  248 D2:036B FD 39 -  -  	add	iy,sp
  249 D2:036D FD 4E 06 -  	ld	c,(iy+6)
  250 D2:0370 FD 27 03 -  	ld	hl,(iy+3)
  251 D2:0373 FD CB 05 7E 	bit	7,(iy+5)
  252 D2:0377 28 0E -  -  	jr	z,+_
  253 D2:0379 C5 -  -  -  	push	bc
  254 D2:037A E5 -  -  -  	push	hl
  255 D2:037B C1 -  -  -  	pop	bc
  256 D2:037C ED 62 -  -  	sbc	hl,hl
  257 D2:037E ED 42 -  -  	sbc	hl,bc
  258 D2:0380 3E 2D -  -  	ld	a,'-'
  259 D2:0382 CD 61 02 D2 	call	_PrintChar_ASM 
  260 D2:0386 C1 -  -  -  	pop	bc
  261 D2:0387 C3 0B 03 D2 _:	jp	_PrintUInt_ASM 
  262 D2:038B -  -  -  -  
  263 D2:038B -  -  -  -  ;-------------------------------------------------------------------------------
  264 D2:038B -  -  -  -  _GetStringWidth:
  265 D2:038B -  -  -  -  ; Gets the width of a string
  266 D2:038B -  -  -  -  ; Arguments:
  267 D2:038B -  -  -  -  ;  arg0 : Pointer to string
  268 D2:038B -  -  -  -  ; Returns:
  269 D2:038B -  -  -  -  ;  Width of string in pixels
  270 D2:038B D1 -  -  -  	pop	de
  271 D2:038C E1 -  -  -  	pop	hl
  272 D2:038D E5 -  -  -  	push	hl
  273 D2:038E D5 -  -  -  	push	de
  274 D2:038F 01 00 00 00 	ld	bc,0
  275 D2:0393 7E -  -  -  _:	ld	a,(hl)
  276 D2:0394 B7 -  -  -  	or	a,a
  277 D2:0395 28 09 -  -  	jr	z,+_
  278 D2:0397 E5 -  -  -  	push	hl
  279 D2:0398 CD B0 03 D2 	call	_GetCharWidth_ASM 
  280 D2:039C E1 -  -  -  	pop	hl
  281 D2:039D 23 -  -  -  	inc	hl
  282 D2:039E 18 F3 -  -  	jr	-_
  283 D2:03A0 C5 -  -  -  _:	push	bc
  284 D2:03A1 E1 -  -  -  	pop	hl
  285 D2:03A2 C9 -  -  -  	ret
  286 D2:03A3 -  -  -  -  
  287 D2:03A3 -  -  -  -  ;-------------------------------------------------------------------------------	
  288 D2:03A3 -  -  -  -  _GetCharWidth:
  289 D2:03A3 -  -  -  -  ; Gets the width of a character
  290 D2:03A3 -  -  -  -  ; Arguments:
  291 D2:03A3 -  -  -  -  ;  arg0 : Character
  292 D2:03A3 -  -  -  -  ; Returns:
  293 D2:03A3 -  -  -  -  ;  Width of character in pixels
  294 D2:03A3 FD 21 00 00 
              00 -  -  -  	ld	iy,0
  295 D2:03A8 ED 03 00 -  	lea	bc,iy
  296 D2:03AB FD 39 -  -  	add	iy,sp
  297 D2:03AD FD 7E 03 -  	ld	a,(iy+3)
  298 D2:03B0 -  -  -  -  _GetCharWidth_ASM:
  299 D2:03B0 B7 -  -  -  	or	a,a
  300 D2:03B1 ED 62 -  -  	sbc	hl,hl
  301 D2:03B3 6F -  -  -  	ld	l,a
  302 D2:03B4 3A 66 02 D2 	ld	a,(MonoFlag_SMC) 
  303 D2:03B8 B7 -  -  -  	or	a,a
  304 D2:03B9 20 0E -  -  	jr	nz,+_
  305 D2:03BB ED 5B 23 05 
              D2 -  -  -  	ld	de,(CharSpacing_ASM) 
  306 D2:03C0 19 -  -  -  	add	hl,de
  307 D2:03C1 7E -  -  -  	ld	a,(hl)
  308 D2:03C2 ED 62 -  -  	sbc	hl,hl
  309 D2:03C4 6F -  -  -  	ld	l,a
  310 D2:03C5 09 -  -  -  	add	hl,bc
  311 D2:03C6 E5 -  -  -  	push	hl
  312 D2:03C7 C1 -  -  -  	pop	bc
  313 D2:03C8 C9 -  -  -  	ret
  314 D2:03C9 ED 62 -  -  _:	sbc	hl,hl
  315 D2:03CB 6F -  -  -  	ld	l,a
  316 D2:03CC 09 -  -  -  	add	hl,bc
  317 D2:03CD C9 -  -  -  	ret
  318 D2:03CE -  -  -  -  
  319 D2:03CE -  -  -  -  ;-------------------------------------------------------------------------------
  320 D2:03CE -  -  -  -  _SetCustomFontData:
  321 D2:03CE -  -  -  -  ; Sets the font to be custom
  322 D2:03CE -  -  -  -  ; Arguments:
  323 D2:03CE -  -  -  -  ;  arg0 : Pointer to font data
  324 D2:03CE -  -  -  -  ;  Set Pointer to NULL to use default font
  325 D2:03CE -  -  -  -  ; Returns:
  326 D2:03CE -  -  -  -  ;  None
  327 D2:03CE D1 -  -  -  	pop	de
  328 D2:03CF E1 -  -  -  	pop	hl
  329 D2:03D0 E5 -  -  -  	push	hl
  330 D2:03D1 D5 -  -  -  	push	de
  331 D2:03D2 19 -  -  -  	add	hl,de
  332 D2:03D3 B7 -  -  -  	or	a,a
  333 D2:03D4 ED 52 -  -  	sbc	hl,de
  334 D2:03D6 20 04 -  -  	jr	nz,+_
  335 D2:03D8 21 C9 05 D2 	ld	hl,Char000 
  336 D2:03DC 22 26 05 D2 _:	ld	(TextData_ASM),hl 
  337 D2:03E0 C9 -  -  -  	ret
  338 D2:03E1 -  -  -  -  
  339 D2:03E1 -  -  -  -  ;-------------------------------------------------------------------------------
  340 D2:03E1 -  -  -  -  _SetCustomFontSpacing:
  341 D2:03E1 -  -  -  -  ; Sets the font to be custom spacing
  342 D2:03E1 -  -  -  -  ; Arguments:
  343 D2:03E1 -  -  -  -  ;  arg0 : Pointer to font spacing
  344 D2:03E1 -  -  -  -  ;  Set Pointer to NULL to use default font spacing
  345 D2:03E1 -  -  -  -  ; Returns:
  346 D2:03E1 -  -  -  -  ;  None
  347 D2:03E1 D1 -  -  -  	pop	de
  348 D2:03E2 E1 -  -  -  	pop	hl
  349 D2:03E3 E5 -  -  -  	push	hl
  350 D2:03E4 D5 -  -  -  	push	de
  351 D2:03E5 19 -  -  -  	add	hl,de
  352 D2:03E6 B7 -  -  -  	or	a,a
  353 D2:03E7 ED 52 -  -  	sbc	hl,de
  354 D2:03E9 20 04 -  -  	jr	nz,+_
  355 D2:03EB 21 29 05 D2 	ld	hl,DefaultCharSpacing_ASM 
  356 D2:03EF 22 23 05 D2 _:	ld	(CharSpacing_ASM),hl 
  357 D2:03F3 C9 -  -  -  	ret
  358 D2:03F4 -  -  -  -  
  359 D2:03F4 -  -  -  -  ;-------------------------------------------------------------------------------
  360 D2:03F4 -  -  -  -  _SetMonospaceFont:
  361 D2:03F4 -  -  -  -  ; Sets the font to be monospace
  362 D2:03F4 -  -  -  -  ; Arguments:
  363 D2:03F4 -  -  -  -  ;  arg0 : Monospace spacing amount
  364 D2:03F4 -  -  -  -  ; Returns:
  365 D2:03F4 -  -  -  -  ;  None
  366 D2:03F4 E1 -  -  -  	pop	hl
  367 D2:03F5 D1 -  -  -  	pop	de
  368 D2:03F6 D5 -  -  -  	push	de
  369 D2:03F7 E5 -  -  -  	push	hl
  370 D2:03F8 7B -  -  -  	ld	a,e
  371 D2:03F9 32 66 02 D2 	ld	(MonoFlag_SMC),a 
  372 D2:03FD C9 -  -  -  	ret
  373 D2:03FE -  -  -  -  
  374 D2:03FE -  -  -  -  
  375 D2:03FE -  -  -  -  ;-------------------------------------------------------------------------------
  376 D2:03FE -  -  -  -  _Max_ASM:
  377 D2:03FE -  -  -  -  ; Calculate the resut of a signed comparison
  378 D2:03FE -  -  -  -  ; Inputs:
  379 D2:03FE -  -  -  -  ;  DE,HL=numbers
  380 D2:03FE -  -  -  -  ; Oututs:
  381 D2:03FE -  -  -  -  ;  HL=max number
  382 D2:03FE B7 -  -  -  	or	a,a
  383 D2:03FF ED 52 -  -  	sbc	hl,de
  384 D2:0401 19 -  -  -  	add	hl,de
  385 D2:0402 F2 08 04 D2 	jp	p,+_ 
  386 D2:0406 E8 -  -  -  	ret	pe
  387 D2:0407 EB -  -  -  	ex	de,hl
  388 D2:0408 E0 -  -  -  _:	ret	po
  389 D2:0409 EB -  -  -  	ex	de,hl
  390 D2:040A C9 -  -  -  	ret
  391 D2:040B -  -  -  -  
  392 D2:040B -  -  -  -  ;-------------------------------------------------------------------------------
  393 D2:040B -  -  -  -  _Min_ASM:
  394 D2:040B -  -  -  -  ; Calculate the resut of a signed comparison
  395 D2:040B -  -  -  -  ; Inputs:
  396 D2:040B -  -  -  -  ;  DE,HL=numbers
  397 D2:040B -  -  -  -  ; Oututs:
  398 D2:040B -  -  -  -  ;  HL=min number
  399 D2:040B B7 -  -  -  	or	a,a
  400 D2:040C ED 52 -  -  	sbc	hl,de
  401 D2:040E EB -  -  -  	ex	de,hl
  402 D2:040F F2 15 04 D2 	jp	p,_ 
  403 D2:0413 E8 -  -  -  	ret	pe
  404 D2:0414 19 -  -  -  	add	hl,de
  405 D2:0415 E0 -  -  -  _:	ret	po
  406 D2:0416 19 -  -  -  	add	hl,de
  407 D2:0417 C9 -  -  -  	ret
  408 D2:0418 -  -  -  -  
  409 D2:0418 -  -  -  -  ;-------------------------------------------------------------------------------
  410 D2:0418 -  -  -  -  _ClipRectangularRegion_ASM:
  411 D2:0418 -  -  -  -  ; Calculates the new coordinates given the clip  and inputs
  412 D2:0418 -  -  -  -  ; Inputs:
  413 D2:0418 -  -  -  -  ;  None
  414 D2:0418 -  -  -  -  ; Outputs:
  415 D2:0418 -  -  -  -  ;  Modifies data registers
  416 D2:0418 -  -  -  -  ;  Sets C flag if offscreen
  417 D2:0418 2A C9 09 D2 	ld	hl,(_xmin) 
  418 D2:041C FD 17 03 -  	ld	de,(iy+3)
  419 D2:041F CD FE 03 D2 	call	_Max_ASM 
  420 D2:0423 FD 2F 03 -  	ld	(iy+3),hl
  421 D2:0426 2A CF 09 D2 	ld	hl,(_xmax) 
  422 D2:042A FD 17 09 -  	ld	de,(iy+9)
  423 D2:042D CD 0B 04 D2 	call	_Min_ASM 
  424 D2:0431 FD 2F 09 -  	ld	(iy+9),hl
  425 D2:0434 FD 17 03 -  	ld	de,(iy+3)
  426 D2:0437 CD 5B 04 D2 	call	_SignedCompare_ASM 
  427 D2:043B D8 -  -  -  	ret	c
  428 D2:043C 2A CC 09 D2 	ld	hl,(_ymin) 
  429 D2:0440 FD 17 06 -  	ld	de,(iy+6)
  430 D2:0443 CD FE 03 D2 	call	_Max_ASM 
  431 D2:0447 FD 2F 06 -  	ld	(iy+6),hl
  432 D2:044A 2A D2 09 D2 	ld	hl,(_ymax) 
  433 D2:044E FD 17 0C -  	ld	de,(iy+12)
  434 D2:0451 CD 0B 04 D2 	call	_Min_ASM 
  435 D2:0455 FD 2F 0C -  	ld	(iy+12),hl
  436 D2:0458 FD 17 06 -  	ld	de,(iy+6)
  437 D2:045B -  -  -  -  _SignedCompare_ASM:
  438 D2:045B B7 -  -  -  	or	a,a
  439 D2:045C ED 52 -  -  	sbc	hl,de
  440 D2:045E 29 -  -  -  	add	hl,hl
  441 D2:045F E0 -  -  -  	ret	po
  442 D2:0460 3F -  -  -  	ccf
  443 D2:0461 C9 -  -  -  	ret
  444 D2:0462 -  -  -  -  
  445 D2:0462 -  -  -  -  ;-------------------------------------------------------------------------------
  446 D2:0462 -  -  -  -  _SetFullScreenClipping_ASM:
  447 D2:0462 -  -  -  -  ; Sets the clipping  to the entire screen
  448 D2:0462 -  -  -  -  ; Inputs:
  449 D2:0462 -  -  -  -  ;  None
  450 D2:0462 -  -  -  -  ; Outputs:
  451 D2:0462 -  -  -  -  ;  HL=0
  452 D2:0462 21 40 01 00 	ld	hl,lcdWidth
  453 D2:0466 22 CF 09 D2 	ld	(_xmax),hl 
  454 D2:046A 21 F0 00 00 	ld	hl,lcdHeight
  455 D2:046E 22 D2 09 D2 	ld	(_ymax),hl 
  456 D2:0472 2E 00 -  -  	ld	l,0
  457 D2:0474 22 C9 09 D2 	ld	(_xmin),hl 
  458 D2:0478 22 CC 09 D2 	ld	(_ymin),hl 
  459 D2:047C C9 -  -  -  	ret
  460 D2:047D -  -  -  -  
  461 D2:047D -  -  -  -  ;-------------------------------------------------------------------------------
  462 D2:047D -  -  -  -  __idivs_ASM:
  463 D2:047D -  -  -  -  ; Performs signed interger division
  464 D2:047D -  -  -  -  ; Inputs:
  465 D2:047D -  -  -  -  ;  HL : Operand 1
  466 D2:047D -  -  -  -  ;  BC : Operand 2
  467 D2:047D -  -  -  -  ; Outputs:
  468 D2:047D -  -  -  -  ;  HL = HL/BC
  469 D2:047D EB -  -  -  	ex	de,hl
  470 D2:047E AF -  -  -  	xor	a,a
  471 D2:047F ED 62 -  -  	sbc	hl,hl
  472 D2:0481 ED 42 -  -  	sbc	hl,bc
  473 D2:0483 F2 8A 04 D2 	jp	p,+_ 
  474 D2:0487 E5 -  -  -  	push	hl
  475 D2:0488 C1 -  -  -  	pop	bc
  476 D2:0489 3C -  -  -  	inc	a
  477 D2:048A -  -  -  -  
  478 D2:048A B7 -  -  -  _:	or	a,a
  479 D2:048B ED 62 -  -  	sbc	hl,hl
  480 D2:048D ED 52 -  -  	sbc	hl,de
  481 D2:048F FA 95 04 D2 	jp	m,+_ 
  482 D2:0493 EB -  -  -  	ex	de,hl
  483 D2:0494 3C -  -  -  	inc	a
  484 D2:0495 -  -  -  -  
  485 D2:0495 19 -  -  -  _:	add	hl,de
  486 D2:0496 1F -  -  -  	rra
  487 D2:0497 3E 18 -  -  	ld	a,24
  488 D2:0499 -  -  -  -  
  489 D2:0499 EB -  -  -  _:	ex	de,hl
  490 D2:049A ED 6A -  -  	adc	hl,hl
  491 D2:049C EB -  -  -  	ex	de,hl
  492 D2:049D ED 6A -  -  	adc	hl,hl
  493 D2:049F 09 -  -  -  	add	hl,bc
  494 D2:04A0 38 02 -  -  	jr	c,+_
  495 D2:04A2 ED 42 -  -  	sbc	hl,bc
  496 D2:04A4 3D -  -  -  _:	dec	a
  497 D2:04A5 20 F2 -  -  	jr	nz,--_
  498 D2:04A7 -  -  -  -  
  499 D2:04A7 EB -  -  -  	ex	de,hl
  500 D2:04A8 ED 6A -  -  	adc	hl,hl
  501 D2:04AA D8 -  -  -  	ret	c
  502 D2:04AB EB -  -  -  	ex	de,hl
  503 D2:04AC ED 62 -  -  	sbc	hl,hl
  504 D2:04AE ED 52 -  -  	sbc	hl,de
  505 D2:04B0 C9 -  -  -  	ret
  506 D2:04B1 -  -  -  -  
  507 D2:04B1 -  -  -  -  ;-------------------------------------------------------------------------------
  508 D2:04B1 -  -  -  -  __imuls_ASM:
  509 D2:04B1 -  -  -  -  __imulu_ASM:
  510 D2:04B1 -  -  -  -  ; Performs (un)signed integer multiplication
  511 D2:04B1 -  -  -  -  ; Inputs:
  512 D2:04B1 -  -  -  -  ;  HL : Operand 1
  513 D2:04B1 -  -  -  -  ;  BC : Operand 2
  514 D2:04B1 -  -  -  -  ; Outputs:
  515 D2:04B1 -  -  -  -  ;  HL = HL*BC
  516 D2:04B1 C5 -  -  -  	push	bc
  517 D2:04B2 E5 -  -  -  	push	hl
  518 D2:04B3 EB -  -  -  	ex	de,hl
  519 D2:04B4 21 02 00 00 	ld	hl,2
  520 D2:04B8 39 -  -  -  	add	hl,sp
  521 D2:04B9 46 -  -  -  	ld	b,(hl)
  522 D2:04BA ED 4C -  -  	mlt	bc
  523 D2:04BC 23 -  -  -  	inc	hl
  524 D2:04BD 23 -  -  -  	inc	hl
  525 D2:04BE 23 -  -  -  	inc	hl
  526 D2:04BF 7A -  -  -  	ld	a,d
  527 D2:04C0 56 -  -  -  	ld	d,(hl)
  528 D2:04C1 ED 5C -  -  	mlt	de
  529 D2:04C3 2B -  -  -  	dec	hl
  530 D2:04C4 6E -  -  -  	ld	l,(hl)
  531 D2:04C5 67 -  -  -  	ld	h,a
  532 D2:04C6 ED 6C -  -  	mlt	hl
  533 D2:04C8 7D -  -  -  	ld	a,l
  534 D2:04C9 83 -  -  -  	add	a,e
  535 D2:04CA 81 -  -  -  	add	a,c
  536 D2:04CB D1 -  -  -  	pop	de
  537 D2:04CC C1 -  -  -  	pop	bc
  538 D2:04CD C5 -  -  -  	push	bc
  539 D2:04CE B7 -  -  -  	or	a,a
  540 D2:04CF ED 62 -  -  	sbc	hl,hl
  541 D2:04D1 52 19 -  -  	add.s	hl,de
  542 D2:04D3 EB -  -  -  	ex	de,hl
  543 D2:04D4 60 -  -  -  	ld	h,b
  544 D2:04D5 ED 6C -  -  	mlt	hl
  545 D2:04D7 42 -  -  -  	ld	b,d
  546 D2:04D8 ED 4C -  -  	mlt	bc
  547 D2:04DA 09 -  -  -  	add	hl,bc
  548 D2:04DB 84 -  -  -  	add	a,h
  549 D2:04DC 67 -  -  -  	ld	h,a
  550 D2:04DD C1 -  -  -  	pop	bc
  551 D2:04DE 51 -  -  -  	ld	d,c
  552 D2:04DF ED 5C -  -  	mlt	de
  553 D2:04E1 29 -  -  -  	add	hl,hl
  554 D2:04E2 29 -  -  -  	add	hl,hl
  555 D2:04E3 29 -  -  -  	add	hl,hl
  556 D2:04E4 29 -  -  -  	add	hl,hl
  557 D2:04E5 29 -  -  -  	add	hl,hl
  558 D2:04E6 29 -  -  -  	add	hl,hl
  559 D2:04E7 29 -  -  -  	add	hl,hl
  560 D2:04E8 29 -  -  -  	add	hl,hl
  561 D2:04E9 19 -  -  -  	add	hl,de
  562 D2:04EA C9 -  -  -  	ret
  563 D2:04EB -  -  -  -  
  564 D2:04EB -  -  -  -  ;-------------------------------------------------------------------------------
  565 D2:04EB -  -  -  -  _ComputeOutcode_ASM:
  566 D2:04EB -  -  -  -  ; Compute the bitcode for a point (x, y) using the clip rectangle
  567 D2:04EB -  -  -  -  ; bounded diagonally by (xmin, ymin), and (xmax, ymax)
  568 D2:04EB -  -  -  -  ; Inputs:
  569 D2:04EB -  -  -  -  ;  HL : X Argument
  570 D2:04EB -  -  -  -  ;  DE : Y Argument
  571 D2:04EB -  -  -  -  ; Outputs:
  572 D2:04EB -  -  -  -  ;   A : Bitcode
  573 D2:04EB ED 4B C9 09 
              D2 -  -  -  	ld	bc,(_xmin) 
  574 D2:04F0 E5 -  -  -  	push	hl
  575 D2:04F1 AF -  -  -  	xor	a,a
  576 D2:04F2 ED 42 -  -  	sbc	hl,bc
  577 D2:04F4 C1 -  -  -  	pop	bc
  578 D2:04F5 29 -  -  -  	add	hl,hl
  579 D2:04F6 E2 FB 04 D2 	jp	po,+_ 
  580 D2:04FA 3F -  -  -  	ccf
  581 D2:04FB 17 -  -  -  _:	rla
  582 D2:04FC 2A CF 09 D2 	ld	hl,(_xmax) 
  583 D2:0500 ED 42 -  -  	sbc	hl,bc
  584 D2:0502 29 -  -  -  	add	hl,hl
  585 D2:0503 E2 08 05 D2 	jp	po,+_ 
  586 D2:0507 3F -  -  -  	ccf
  587 D2:0508 17 -  -  -  _:	rla
  588 D2:0509 2A CC 09 D2 	ld	hl,(_ymin) 
  589 D2:050D 37 -  -  -  	scf
  590 D2:050E ED 52 -  -  	sbc	hl,de
  591 D2:0510 29 -  -  -  	add	hl,hl
  592 D2:0511 EA 16 05 D2 	jp	pe,+_ 
  593 D2:0515 3F -  -  -  	ccf
  594 D2:0516 17 -  -  -  _:	rla
  595 D2:0517 2A D2 09 D2 	ld	hl,(_ymax) 
  596 D2:051B ED 52 -  -  	sbc	hl,de
  597 D2:051D 29 -  -  -  	add	hl,hl
  598 D2:051E 17 -  -  -  	rla
  599 D2:051F E0 -  -  -  	ret	po
  600 D2:0520 EE 01 -  -  	xor	a,1
  601 D2:0522 C9 -  -  -  	ret
  602 D2:0523 -  -  -  -  
  603 D2:0523 -  -  -  -  ;-------------------------------------------------------------------------------
  604 D2:0523 -  -  -  -  CharSpacing_ASM:
  605 D2:0523 29 05 D2 -  	.dl DefaultCharSpacing_ASM 
  606 D2:0526 -  -  -  -  TextData_ASM:
  607 D2:0526 C9 05 D2 -  	.dl DefaultTextData_ASM 
  608 D2:0529 -  -  -  -  
  609 D2:0529 -  -  -  -  DefaultCharSpacing_ASM:
  610 D2:0529 -  -  -  -  	;   0,1,2,3,4,5,6,7,8,9,A,B,C,D,E,F
  611 D2:0529 08 08 08 08 
              08 08 08 08 
              08 08 08 08 
              08 02 08 08 	.db 8,8,8,8,8,8,8,8,8,8,8,8,8,2,8,8
  612 D2:0539 08 08 08 08 
              08 08 08 08 
              08 08 08 08 
              08 08 08 08 	.db 8,8,8,8,8,8,8,8,8,8,8,8,8,8,8,8
  613 D2:0549 03 04 06 08 
              08 08 08 05 
              05 05 08 07 
              04 07 03 08 	.db 3,4,6,8,8,8,8,5,5,5,8,7,4,7,3,8
  614 D2:0559 08 07 08 08 
              08 08 08 08 
              08 08 03 04 
              06 07 06 07 	.db 8,7,8,8,8,8,8,8,8,8,3,4,6,7,6,7
  615 D2:0569 08 08 08 08 
              08 08 08 08 
              08 08 08 08 
              08 08 08 08 	.db 8,8,8,8,8,8,8,8,8,8,8,8,8,8,8,8
  616 D2:0579 08 08 08 08 
              08 08 08 08 
              08 08 08 05 
              08 05 08 08 	.db 8,8,8,8,8,8,8,8,8,8,8,5,8,5,8,8
  617 D2:0589 04 08 08 08 
              08 08 08 08 
              08 05 08 08 
              05 08 08 08 	.db 4,8,8,8,8,8,8,8,8,5,8,8,5,8,8,8
  618 D2:0599 08 08 08 08 
              07 08 08 08 
              08 08 08 07 
              03 07 08 08 	.db 8,8,8,8,7,8,8,8,8,8,8,7,3,7,8,8
  619 D2:05A9 08 08 08 08 
              08 08 08 08 
              08 08 08 08 
              08 08 08 08 	.db 8,8,8,8,8,8,8,8,8,8,8,8,8,8,8,8
  620 D2:05B9 08 08 08 08 
              08 08 08 08 
              08 08 08 08 
              08 08 08 08 	.db 8,8,8,8,8,8,8,8,8,8,8,8,8,8,8,8
  621 D2:05C9 -  -  -  -   
  622 D2:05C9 -  -  -  -  ;-------------------------------------------------------------------------------
  623 D2:05C9 -  -  -  -  DefaultTextData_ASM:
  624 D2:05C9 00 00 00 00 
              00 00 00 00 Char000: .db $00,$00,$00,$00,$00,$00,$00,$00	; .
  625 D2:05D1 7E 81 A5 81 
              BD BD 81 7E Char001: .db $7E,$81,$A5,$81,$BD,$BD,$81,$7E	; .
  626 D2:05D9 7E FF DB FF 
              C3 C3 FF 7E Char002: .db $7E,$FF,$DB,$FF,$C3,$C3,$FF,$7E	; .
  627 D2:05E1 6C FE FE FE 
              7C 38 10 00 Char003: .db $6C,$FE,$FE,$FE,$7C,$38,$10,$00	; .
  628 D2:05E9 10 38 7C FE 
              7C 38 10 00 Char004: .db $10,$38,$7C,$FE,$7C,$38,$10,$00	; .
  629 D2:05F1 38 7C 38 FE 
              FE 10 10 7C Char005: .db $38,$7C,$38,$FE,$FE,$10,$10,$7C	; .
  630 D2:05F9 00 18 3C 7E 
              FF 7E 18 7E Char006: .db $00,$18,$3C,$7E,$FF,$7E,$18,$7E	; .
  631 D2:0601 00 00 18 3C 
              3C 18 00 00 Char007: .db $00,$00,$18,$3C,$3C,$18,$00,$00	; .
  632 D2:0609 FF FF E7 C3 
              C3 E7 FF FF Char008: .db $FF,$FF,$E7,$C3,$C3,$E7,$FF,$FF	; .
  633 D2:0611 00 3C 66 42 
              42 66 3C 00 Char009: .db $00,$3C,$66,$42,$42,$66,$3C,$00	; .
  634 D2:0619 FF C3 99 BD 
              BD 99 C3 FF Char010: .db $FF,$C3,$99,$BD,$BD,$99,$C3,$FF	; .
  635 D2:0621 0F 07 0F 7D 
              CC CC CC 78 Char011: .db $0F,$07,$0F,$7D,$CC,$CC,$CC,$78	; .
  636 D2:0629 3C 66 66 66 
              3C 18 7E 18 Char012: .db $3C,$66,$66,$66,$3C,$18,$7E,$18	; .
  637 D2:0631 3F 33 3F 30 
              30 70 F0 E0 Char013: .db $3F,$33,$3F,$30,$30,$70,$F0,$E0	; .
  638 D2:0639 7F 63 7F 63 
              63 67 E6 C0 Char014: .db $7F,$63,$7F,$63,$63,$67,$E6,$C0	; .
  639 D2:0641 99 5A 3C E7 
              E7 3C 5A 99 Char015: .db $99,$5A,$3C,$E7,$E7,$3C,$5A,$99	; .
  640 D2:0649 80 E0 F8 FE 
              F8 E0 80 00 Char016: .db $80,$E0,$F8,$FE,$F8,$E0,$80,$00	; .
  641 D2:0651 02 0E 3E FE 
              3E 0E 02 00 Char017: .db $02,$0E,$3E,$FE,$3E,$0E,$02,$00	; .
  642 D2:0659 18 3C 7E 18 
              18 7E 3C 18 Char018: .db $18,$3C,$7E,$18,$18,$7E,$3C,$18	; .
  643 D2:0661 66 66 66 66 
              66 00 66 00 Char019: .db $66,$66,$66,$66,$66,$00,$66,$00	; .
  644 D2:0669 7F DB DB 7B 
              1B 1B 1B 00 Char020: .db $7F,$DB,$DB,$7B,$1B,$1B,$1B,$00	; .
  645 D2:0671 3F 60 7C 66 
              66 3E 06 FC Char021: .db $3F,$60,$7C,$66,$66,$3E,$06,$FC	; .
  646 D2:0679 00 00 00 00 
              7E 7E 7E 00 Char022: .db $00,$00,$00,$00,$7E,$7E,$7E,$00	; .
  647 D2:0681 18 3C 7E 18 
              7E 3C 18 FF Char023: .db $18,$3C,$7E,$18,$7E,$3C,$18,$FF	; .
  648 D2:0689 18 3C 7E 18 
              18 18 18 00 Char024: .db $18,$3C,$7E,$18,$18,$18,$18,$00	; .
  649 D2:0691 18 18 18 18 
              7E 3C 18 00 Char025: .db $18,$18,$18,$18,$7E,$3C,$18,$00	; .
  650 D2:0699 00 18 0C FE 
              0C 18 00 00 Char026: .db $00,$18,$0C,$FE,$0C,$18,$00,$00	; .
  651 D2:06A1 00 30 60 FE 
              60 30 00 00 Char027: .db $00,$30,$60,$FE,$60,$30,$00,$00	; .
  652 D2:06A9 00 00 C0 C0 
              C0 FE 00 00 Char028: .db $00,$00,$C0,$C0,$C0,$FE,$00,$00	; .
  653 D2:06B1 00 24 66 FF 
              66 24 00 00 Char029: .db $00,$24,$66,$FF,$66,$24,$00,$00	; .
  654 D2:06B9 00 18 3C 7E 
              FF FF 00 00 Char030: .db $00,$18,$3C,$7E,$FF,$FF,$00,$00	; .
  655 D2:06C1 00 FF FF 7E 
              3C 18 00 00 Char031: .db $00,$FF,$FF,$7E,$3C,$18,$00,$00	; .
  656 D2:06C9 00 00 00 00 
              00 00 00 00 Char032: .db $00,$00,$00,$00,$00,$00,$00,$00	;  
  657 D2:06D1 C0 C0 C0 C0 
              C0 00 C0 00 Char033: .db $C0,$C0,$C0,$C0,$C0,$00,$C0,$00	; !
  658 D2:06D9 D8 D8 D8 00 
              00 00 00 00 Char034: .db $D8,$D8,$D8,$00,$00,$00,$00,$00	; "
  659 D2:06E1 6C 6C FE 6C 
              FE 6C 6C 00 Char035: .db $6C,$6C,$FE,$6C,$FE,$6C,$6C,$00	; #
  660 D2:06E9 18 7E C0 7C 
              06 FC 18 00 Char036: .db $18,$7E,$C0,$7C,$06,$FC,$18,$00	; $
  661 D2:06F1 00 C6 CC 18 
              30 66 C6 00 Char037: .db $00,$C6,$CC,$18,$30,$66,$C6,$00	; %
  662 D2:06F9 38 6C 38 76 
              DC CC 76 00 Char038: .db $38,$6C,$38,$76,$DC,$CC,$76,$00	; &
  663 D2:0701 30 30 60 00 
              00 00 00 00 Char039: .db $30,$30,$60,$00,$00,$00,$00,$00	; '
  664 D2:0709 30 60 C0 C0 
              C0 60 30 00 Char040: .db $30,$60,$C0,$C0,$C0,$60,$30,$00	; (
  665 D2:0711 C0 60 30 30 
              30 60 C0 00 Char041: .db $C0,$60,$30,$30,$30,$60,$C0,$00	; )
  666 D2:0719 00 66 3C FF 
              3C 66 00 00 Char042: .db $00,$66,$3C,$FF,$3C,$66,$00,$00	; *
  667 D2:0721 00 30 30 FC 
              FC 30 30 00 Char043: .db $00,$30,$30,$FC,$FC,$30,$30,$00	; +
  668 D2:0729 00 00 00 00 
              00 60 60 C0 Char044: .db $00,$00,$00,$00,$00,$60,$60,$C0	; ,
  669 D2:0731 00 00 00 FC 
              00 00 00 00 Char045: .db $00,$00,$00,$FC,$00,$00,$00,$00	; -
  670 D2:0739 00 00 00 00 
              00 C0 C0 00 Char046: .db $00,$00,$00,$00,$00,$C0,$C0,$00	; .
  671 D2:0741 06 0C 18 30 
              60 C0 80 00 Char047: .db $06,$0C,$18,$30,$60,$C0,$80,$00	; /
  672 D2:0749 7C CE DE F6 
              E6 C6 7C 00 Char048: .db $7C,$CE,$DE,$F6,$E6,$C6,$7C,$00	; 0
  673 D2:0751 30 70 30 30 
              30 30 FC 00 Char049: .db $30,$70,$30,$30,$30,$30,$FC,$00	; 1
  674 D2:0759 7C C6 06 7C 
              C0 C0 FE 00 Char050: .db $7C,$C6,$06,$7C,$C0,$C0,$FE,$00	; 2
  675 D2:0761 FC 06 06 3C 
              06 06 FC 00 Char051: .db $FC,$06,$06,$3C,$06,$06,$FC,$00	; 3
  676 D2:0769 0C CC CC CC 
              FE 0C 0C 00 Char052: .db $0C,$CC,$CC,$CC,$FE,$0C,$0C,$00	; 4
  677 D2:0771 FE C0 FC 06 
              06 C6 7C 00 Char053: .db $FE,$C0,$FC,$06,$06,$C6,$7C,$00	; 5
  678 D2:0779 7C C0 C0 FC 
              C6 C6 7C 00 Char054: .db $7C,$C0,$C0,$FC,$C6,$C6,$7C,$00	; 6
  679 D2:0781 FE 06 06 0C 
              18 30 30 00 Char055: .db $FE,$06,$06,$0C,$18,$30,$30,$00	; 7
  680 D2:0789 7C C6 C6 7C 
              C6 C6 7C 00 Char056: .db $7C,$C6,$C6,$7C,$C6,$C6,$7C,$00	; 8
  681 D2:0791 7C C6 C6 7E 
              06 06 7C 00 Char057: .db $7C,$C6,$C6,$7E,$06,$06,$7C,$00	; 9
  682 D2:0799 00 C0 C0 00 
              00 C0 C0 00 Char058: .db $00,$C0,$C0,$00,$00,$C0,$C0,$00	; :
  683 D2:07A1 00 60 60 00 
              00 60 60 C0 Char059: .db $00,$60,$60,$00,$00,$60,$60,$C0	; ;
  684 D2:07A9 18 30 60 C0 
              60 30 18 00 Char060: .db $18,$30,$60,$C0,$60,$30,$18,$00	; <
  685 D2:07B1 00 00 FC 00 
              FC 00 00 00 Char061: .db $00,$00,$FC,$00,$FC,$00,$00,$00	; =
  686 D2:07B9 C0 60 30 18 
              30 60 C0 00 Char062: .db $C0,$60,$30,$18,$30,$60,$C0,$00	; >
  687 D2:07C1 78 CC 18 30 
              30 00 30 00 Char063: .db $78,$CC,$18,$30,$30,$00,$30,$00	; ?
  688 D2:07C9 7C C6 DE DE 
              DE C0 7E 00 Char064: .db $7C,$C6,$DE,$DE,$DE,$C0,$7E,$00	; @
  689 D2:07D1 38 6C C6 C6 
              FE C6 C6 00 Char065: .db $38,$6C,$C6,$C6,$FE,$C6,$C6,$00	; A
  690 D2:07D9 FC C6 C6 FC 
              C6 C6 FC 00 Char066: .db $FC,$C6,$C6,$FC,$C6,$C6,$FC,$00	; B
  691 D2:07E1 7C C6 C0 C0 
              C0 C6 7C 00 Char067: .db $7C,$C6,$C0,$C0,$C0,$C6,$7C,$00	; C
  692 D2:07E9 F8 CC C6 C6 
              C6 CC F8 00 Char068: .db $F8,$CC,$C6,$C6,$C6,$CC,$F8,$00	; D
  693 D2:07F1 FE C0 C0 F8 
              C0 C0 FE 00 Char069: .db $FE,$C0,$C0,$F8,$C0,$C0,$FE,$00	; E
  694 D2:07F9 FE C0 C0 F8 
              C0 C0 C0 00 Char070: .db $FE,$C0,$C0,$F8,$C0,$C0,$C0,$00	; F
  695 D2:0801 7C C6 C0 C0 
              CE C6 7C 00 Char071: .db $7C,$C6,$C0,$C0,$CE,$C6,$7C,$00	; G
  696 D2:0809 C6 C6 C6 FE 
              C6 C6 C6 00 Char072: .db $C6,$C6,$C6,$FE,$C6,$C6,$C6,$00	; H
  697 D2:0811 7E 18 18 18 
              18 18 7E 00 Char073: .db $7E,$18,$18,$18,$18,$18,$7E,$00	; I
  698 D2:0819 06 06 06 06 
              06 C6 7C 00 Char074: .db $06,$06,$06,$06,$06,$C6,$7C,$00	; J
  699 D2:0821 C6 CC D8 F0 
              D8 CC C6 00 Char075: .db $C6,$CC,$D8,$F0,$D8,$CC,$C6,$00	; K
  700 D2:0829 C0 C0 C0 C0 
              C0 C0 FE 00 Char076: .db $C0,$C0,$C0,$C0,$C0,$C0,$FE,$00	; L
  701 D2:0831 C6 EE FE FE 
              D6 C6 C6 00 Char077: .db $C6,$EE,$FE,$FE,$D6,$C6,$C6,$00	; M
  702 D2:0839 C6 E6 F6 DE 
              CE C6 C6 00 Char078: .db $C6,$E6,$F6,$DE,$CE,$C6,$C6,$00	; N
  703 D2:0841 7C C6 C6 C6 
              C6 C6 7C 00 Char079: .db $7C,$C6,$C6,$C6,$C6,$C6,$7C,$00	; O
  704 D2:0849 FC C6 C6 FC 
              C0 C0 C0 00 Char080: .db $FC,$C6,$C6,$FC,$C0,$C0,$C0,$00	; P
  705 D2:0851 7C C6 C6 C6 
              D6 DE 7C 06 Char081: .db $7C,$C6,$C6,$C6,$D6,$DE,$7C,$06	; Q
  706 D2:0859 FC C6 C6 FC 
              D8 CC C6 00 Char082: .db $FC,$C6,$C6,$FC,$D8,$CC,$C6,$00	; R
  707 D2:0861 7C C6 C0 7C 
              06 C6 7C 00 Char083: .db $7C,$C6,$C0,$7C,$06,$C6,$7C,$00	; S
  708 D2:0869 FF 18 18 18 
              18 18 18 00 Char084: .db $FF,$18,$18,$18,$18,$18,$18,$00	; T
  709 D2:0871 C6 C6 C6 C6 
              C6 C6 FE 00 Char085: .db $C6,$C6,$C6,$C6,$C6,$C6,$FE,$00	; U
  710 D2:0879 C6 C6 C6 C6 
              C6 7C 38 00 Char086: .db $C6,$C6,$C6,$C6,$C6,$7C,$38,$00	; V
  711 D2:0881 C6 C6 C6 C6 
              D6 FE 6C 00 Char087: .db $C6,$C6,$C6,$C6,$D6,$FE,$6C,$00	; W
  712 D2:0889 C6 C6 6C 38 
              6C C6 C6 00 Char088: .db $C6,$C6,$6C,$38,$6C,$C6,$C6,$00	; X
  713 D2:0891 C6 C6 C6 7C 
              18 30 E0 00 Char089: .db $C6,$C6,$C6,$7C,$18,$30,$E0,$00	; Y
  714 D2:0899 FE 06 0C 18 
              30 60 FE 00 Char090: .db $FE,$06,$0C,$18,$30,$60,$FE,$00	; Z
  715 D2:08A1 F0 C0 C0 C0 
              C0 C0 F0 00 Char091: .db $F0,$C0,$C0,$C0,$C0,$C0,$F0,$00	; [
  716 D2:08A9 C0 60 30 18 
              0C 06 02 00 Char092: .db $C0,$60,$30,$18,$0C,$06,$02,$00	; \
  717 D2:08B1 F0 30 30 30 
              30 30 F0 00 Char093: .db $F0,$30,$30,$30,$30,$30,$F0,$00	; ]
  718 D2:08B9 10 38 6C C6 
              00 00 00 00 Char094: .db $10,$38,$6C,$C6,$00,$00,$00,$00	; ^
  719 D2:08C1 00 00 00 00 
              00 00 00 FF Char095: .db $00,$00,$00,$00,$00,$00,$00,$FF	; _
  720 D2:08C9 C0 C0 60 00 
              00 00 00 00 Char096: .db $C0,$C0,$60,$00,$00,$00,$00,$00	; `
  721 D2:08D1 00 00 7C 06 
              7E C6 7E 00 Char097: .db $00,$00,$7C,$06,$7E,$C6,$7E,$00	; a
  722 D2:08D9 C0 C0 C0 FC 
              C6 C6 FC 00 Char098: .db $C0,$C0,$C0,$FC,$C6,$C6,$FC,$00	; b
  723 D2:08E1 00 00 7C C6 
              C0 C6 7C 00 Char099: .db $00,$00,$7C,$C6,$C0,$C6,$7C,$00	; c
  724 D2:08E9 06 06 06 7E 
              C6 C6 7E 00 Char100: .db $06,$06,$06,$7E,$C6,$C6,$7E,$00	; d
  725 D2:08F1 00 00 7C C6 
              FE C0 7C 00 Char101: .db $00,$00,$7C,$C6,$FE,$C0,$7C,$00	; e
  726 D2:08F9 1C 36 30 78 
              30 30 78 00 Char102: .db $1C,$36,$30,$78,$30,$30,$78,$00	; f
  727 D2:0901 00 00 7E C6 
              C6 7E 06 FC Char103: .db $00,$00,$7E,$C6,$C6,$7E,$06,$FC	; g
  728 D2:0909 C0 C0 FC C6 
              C6 C6 C6 00 Char104: .db $C0,$C0,$FC,$C6,$C6,$C6,$C6,$00	; h
  729 D2:0911 60 00 E0 60 
              60 60 F0 00 Char105: .db $60,$00,$E0,$60,$60,$60,$F0,$00	; i
  730 D2:0919 06 00 06 06 
              06 06 C6 7C Char106: .db $06,$00,$06,$06,$06,$06,$C6,$7C	; j
  731 D2:0921 C0 C0 CC D8 
              F8 CC C6 00 Char107: .db $C0,$C0,$CC,$D8,$F8,$CC,$C6,$00	; k
  732 D2:0929 E0 60 60 60 
              60 60 F0 00 Char108: .db $E0,$60,$60,$60,$60,$60,$F0,$00	; l
  733 D2:0931 00 00 CC FE 
              FE D6 D6 00 Char109: .db $00,$00,$CC,$FE,$FE,$D6,$D6,$00	; m
  734 D2:0939 00 00 FC C6 
              C6 C6 C6 00 Char110: .db $00,$00,$FC,$C6,$C6,$C6,$C6,$00	; n
  735 D2:0941 00 00 7C C6 
              C6 C6 7C 00 Char111: .db $00,$00,$7C,$C6,$C6,$C6,$7C,$00	; o
  736 D2:0949 00 00 FC C6 
              C6 FC C0 C0 Char112: .db $00,$00,$FC,$C6,$C6,$FC,$C0,$C0	; p
  737 D2:0951 00 00 7E C6 
              C6 7E 06 06 Char113: .db $00,$00,$7E,$C6,$C6,$7E,$06,$06	; q
  738 D2:0959 00 00 FC C6 
              C0 C0 C0 00 Char114: .db $00,$00,$FC,$C6,$C0,$C0,$C0,$00	; r
  739 D2:0961 00 00 7E C0 
              7C 06 FC 00 Char115: .db $00,$00,$7E,$C0,$7C,$06,$FC,$00	; s
  740 D2:0969 30 30 FC 30 
              30 30 1C 00 Char116: .db $30,$30,$FC,$30,$30,$30,$1C,$00	; t
  741 D2:0971 00 00 C6 C6 
              C6 C6 7E 00 Char117: .db $00,$00,$C6,$C6,$C6,$C6,$7E,$00	; u
  742 D2:0979 00 00 C6 C6 
              C6 7C 38 00 Char118: .db $00,$00,$C6,$C6,$C6,$7C,$38,$00	; v
  743 D2:0981 00 00 C6 C6 
              D6 FE 6C 00 Char119: .db $00,$00,$C6,$C6,$D6,$FE,$6C,$00	; w
  744 D2:0989 00 00 C6 6C 
              38 6C C6 00 Char120: .db $00,$00,$C6,$6C,$38,$6C,$C6,$00	; x
  745 D2:0991 00 00 C6 C6 
              C6 7E 06 FC Char121: .db $00,$00,$C6,$C6,$C6,$7E,$06,$FC	; y
  746 D2:0999 00 00 FE 0C 
              38 60 FE 00 Char122: .db $00,$00,$FE,$0C,$38,$60,$FE,$00	; z
  747 D2:09A1 1C 30 30 E0 
              30 30 1C 00 Char123: .db $1C,$30,$30,$E0,$30,$30,$1C,$00	; {
  748 D2:09A9 C0 C0 C0 00 
              C0 C0 C0 00 Char124: .db $C0,$C0,$C0,$00,$C0,$C0,$C0,$00	; |
  749 D2:09B1 E0 30 30 1C 
              30 30 E0 00 Char125: .db $E0,$30,$30,$1C,$30,$30,$E0,$00	; }
  750 D2:09B9 76 DC 00 00 
              00 00 00 00 Char126: .db $76,$DC,$00,$00,$00,$00,$00,$00	; ~
  751 D2:09C1 00 10 38 6C 
              C6 C6 FE 00 Char127: .db $00,$10,$38,$6C,$C6,$C6,$FE,$00	; .
  752 D2:09C9 -  -  -  -  
  753 D2:09C9 -  -  -  -  ;-------------------------------------------------------------------------------
  754 D2:09C9 -  -  -  -  ; Inner library data
  755 D2:09C9 -  -  -  -  ;-------------------------------------------------------------------------------
  756 D2:09C9 -  -  -  -   
  757 D2:09C9 -  -  -  -  _xmin:
  758 D2:09C9 00 00 00 -  	.dl 0
  759 D2:09CC -  -  -  -  _ymin:
  760 D2:09CC 00 00 00 -  	.dl 0
  761 D2:09CF -  -  -  -  _xmax:
  762 D2:09CF 40 01 00 -  	.dl lcdWidth
  763 D2:09D2 -  -  -  -  _ymax:
  764 D2:09D2 F0 00 00 -  	.dl lcdHeight
  765 D2:09D5 -  -  -  -  
  766 D2:09D5 -  -  -  -  tmpWidth:
  767 D2:09D5 00 00 00 00 
              00 00 00 00 
              00 -  -  -  	.dl 0,0,0
Listing for file "example.ez80"
  153 D2:09DE -  -  -  -  
  154 D2:09DE -  -  -  -  posX:
  155 D2:09DE 00 00 -  -  	.dw	0
  156 D2:09E0 -  -  -  -  posY:
  157 D2:09E0 00 00 -  -  	.dw	0
  158 D2:09E2 -  -  -  -  posZ:
  159 D2:09E2 00 00 -  -  	.dw	0
  160 D2:09E4 -  -  -  -  Temp:
  161 D2:09E4 00 00 00 00 
              00 00 -  -  	.dl	0,0
  162 D2:09EA -  -  -  -  
  163 D2:09EA -  -  -  -  VertexName:
  164 D2:09EA 15 54 4F 4E 
              59 30 00 -  	.db	AppVarObj, "TONY0",0
  165 D2:09F1 -  -  -  -  Vertex:
  166 D2:09F1 00 00 00 -  	.dl	0
  167 D2:09F4 -  -  -  -  TriangleName:
  168 D2:09F4 15 54 4F 4E 
              59 31 00 -  	.db	AppVarObj, "TONY1", 0
  169 D2:09FB -  -  -  -  Triangle:
  170 D2:09FB 00 00 00 -  	.dl	0
  171 D2:09FE -  -  -  -  TextName:
  172 D2:09FE 15 54 4F 4E 
              59 32 00 -  	.db	AppVarObj, "TONY2",0
  173 D2:0A05 -  -  -  -  Texture:
  174 D2:0A05 00 00 00 -  	.dl	0
  175 D2:0A08 -  -  -  -  
  176 D2:0A08 -  -  -  -  ScaleMatrix:
  177 D2:0A08 4D 00 00 -  	.db	77,0,0		; 44
  178 D2:0A0B 00 66 00 -  	.db	0,102,0		; 58
  179 D2:0A0E 00 00 40 -  	.db	0,0,64		; 37
  180 D2:0A11 -  -  -  -  UnitVector:
  181 D2:0A11 00 00 00 00 
              40 00 00 00 
              00 -  -  -  	.dl	0,16384,0
  182 D2:0A1A -  -  -  -  Quaternion:
  183 D2:0A1A 00 00 00 00 
              00 00 00 00 
              00 00 00 00 	.dl	0,0,0,0
  184 D2:0A26 -  -  -  -  QuatMatrix:
  185 D2:0A26 00 00 00 00 
              00 00 00 00 
              00 00 00 00 
              00 00 00 00 
              00 00 -  -  	.dl	0,0,0,0,0,0
  186 D2:0A38 -  -  -  -  WorldMatrix:
  187 D2:0A38 00 00 00 00 
              00 00 00 00 
              00 00 00 00 
              00 00 00 00 
              00 00 -  -  	.dl	0,0,0,0,0,0
  188 D2:0A4A -  -  -  -  ModelMatrix:
  189 D2:0A4A 40 00 00 -  	.db	64,0,0
  190 D2:0A4D 00 40 00 -  	.db	0,64,0
  191 D2:0A50 00 00 40 -  	.db	0,0,64
  192 D2:0A53 00 00 00 00 
              00 00 -  -  	.dw	0,0,0
  193 D2:0A59 -  -  -  -  LaraMatrix:
  194 D2:0A59 40 00 00 -  	.db	64,0,0
  195 D2:0A5C 00 40 00 -  	.db	0,64,0
  196 D2:0A5F 00 00 40 -  	.db	0,0,64
  197 D2:0A62 80 00 40 00 
              40 00 -  -  	.dw	128,64,64
  198 D2:0A68 -  -  -  -  EulerAngle:
  199 D2:0A68 00 00 00 00 
              00 00 00 00 
              00 -  -  -  	.dl	0,0,0
  200 D2:0A71 -  -  -  -  texture_frame:
  201 D2:0A71 00 00 00 -  	.dl	0
  202 D2:0A74 -  -  -  -  
  203 D2:0A74 -  -  -  -  Camera:
  204 D2:0A74 21 00 00 F5 	ld hl,$F50000 
  205 D2:0A78 36 02 -  -  	ld (hl),2
  206 D2:0A7A AF -  -  -  	xor a,a
  207 D2:0A7B -  -  -  -  kwait:
  208 D2:0A7B BE -  -  -  	cp a,(hl)
  209 D2:0A7C 20 FD -  -  	jr nz,kwait
  210 D2:0A7E -  -  -  -  
  211 D2:0A7E 11 08 00 00 	ld	de, 8
  212 D2:0A82 3A 1E 00 F5 	ld	a, ($F5001E)
  213 D2:0A86 CB 4F -  -  	bit	1, a
  214 D2:0A88 28 09 -  -  	jr	z, _kskip
  215 D2:0A8A 2A 68 0A D2 	ld	hl, (EulerAngle)
  216 D2:0A8E 19 -  -  -  	add	hl, de
  217 D2:0A8F 22 68 0A D2 	ld	(EulerAngle), hl
  218 D2:0A93 -  -  -  -  _kskip:
  219 D2:0A93 11 F8 FF FF 	ld	de, -8
  220 D2:0A97 3A 1E 00 F5 	ld	a, ($F5001E)
  221 D2:0A9B CB 57 -  -  	bit	2, a
  222 D2:0A9D 28 09 -  -  	jr	z, _kskip2
  223 D2:0A9F 2A 68 0A D2 	ld	hl, (EulerAngle)
  224 D2:0AA3 19 -  -  -  	add	hl, de
  225 D2:0AA4 22 68 0A D2 	ld	(EulerAngle), hl
  226 D2:0AA8 -  -  -  -  _kskip2:
  227 D2:0AA8 -  -  -  -  
  228 D2:0AA8 21 38 0A D2 	ld	hl, WorldMatrix
  229 D2:0AAC CD 43 AC D1 	call	vxMatrixLoadIdentity
  230 D2:0AB0 -  -  -  -  
  231 D2:0AB0 2A 68 0A D2 	ld	hl, (EulerAngle)
  232 D2:0AB4 FD 21 1A 0A 
              D2 -  -  -  	ld	iy, Quaternion
  233 D2:0AB9 DD 21 11 0A 
              D2 -  -  -  	ld	ix, UnitVector
  234 D2:0ABE CD 3A B1 D1 	call	vxQuaternionRotationAxis
  235 D2:0AC2 DD 21 38 0A 
              D2 -  -  -  	ld	ix, WorldMatrix
  236 D2:0AC7 CD 8C B0 D1 	call	vxQuaternionGetMatrix
  237 D2:0ACB FD 21 38 0A 
              D2 -  -  -  	ld	iy, WorldMatrix
  238 D2:0AD0 DD 21 08 0A 
              D2 -  -  -  	ld	ix, ScaleMatrix
  239 D2:0AD5 21 38 0A D2 	ld	hl, WorldMatrix
  240 D2:0AD9 CD D9 AC D1 	call	vxMatrixMlt
  241 D2:0ADD -  -  -  -  
  242 D2:0ADD 3A 1E 00 F5 	ld	a, ($F5001E)
  243 D2:0AE1 CB 47 -  -  	bit	0, a
  244 D2:0AE3 28 3F -  -  	jr	z, _kskip3
  245 D2:0AE5 -  -  -  -  
  246 D2:0AE5 -  -  -  -  
  247 D2:0AE5 ED 5B DE 09 
              D2 -  -  -  	ld	de, (posX)
  248 D2:0AEA 3A 3E 0A D2 	ld	a, (WorldMatrix+6)
  249 D2:0AEE 17 -  -  -  	rla
  250 D2:0AEF ED 62 -  -  	sbc	hl, hl
  251 D2:0AF1 1F -  -  -  	rra
  252 D2:0AF2 6F -  -  -  	ld	l, a
  253 D2:0AF3 29 -  -  -  	add	hl, hl
  254 D2:0AF4 B7 -  -  -  	or	a, a
  255 D2:0AF5 19 -  -  -  	add	hl, de
  256 D2:0AF6 ED 5B E0 09 
              D2 -  -  -  	ld	de, (posY)
  257 D2:0AFB 22 DE 09 D2 	ld	(posX), hl
  258 D2:0AFF 3A 3F 0A D2 	ld	a, (WorldMatrix+7)
  259 D2:0B03 17 -  -  -  	rla
  260 D2:0B04 ED 62 -  -  	sbc	hl, hl
  261 D2:0B06 1F -  -  -  	rra
  262 D2:0B07 6F -  -  -  	ld	l, a
  263 D2:0B08 29 -  -  -  	add	hl, hl
  264 D2:0B09 B7 -  -  -  	or	a, a
  265 D2:0B0A 19 -  -  -  	add	hl, de
  266 D2:0B0B ED 5B E2 09 
              D2 -  -  -  	ld	de, (posZ)
  267 D2:0B10 22 E0 09 D2 	ld	(posY), hl
  268 D2:0B14 3A 40 0A D2 	ld	a, (WorldMatrix+8)
  269 D2:0B18 17 -  -  -  	rla
  270 D2:0B19 ED 62 -  -  	sbc	hl, hl
  271 D2:0B1B 1F -  -  -  	rra
  272 D2:0B1C 6F -  -  -  	ld	l, a
  273 D2:0B1D 29 -  -  -  	add	hl, hl
  274 D2:0B1E B7 -  -  -  	or	a, a
  275 D2:0B1F 19 -  -  -  	add	hl, de
  276 D2:0B20 22 E2 09 D2 	ld	(posZ), hl
  277 D2:0B24 -  -  -  -  _kskip3:
  278 D2:0B24 -  -  -  -  
  279 D2:0B24 3A 1E 00 F5 	ld	a, ($F5001E)
  280 D2:0B28 CB 5F -  -  	bit	3, a
  281 D2:0B2A 28 45 -  -  	jr	z, _kskip4
  282 D2:0B2C -  -  -  -  
  283 D2:0B2C ED 5B DE 09 
              D2 -  -  -  	ld	de, (posX)
  284 D2:0B31 3A 3E 0A D2 	ld	a, (WorldMatrix+6)
  285 D2:0B35 ED 44 -  -  	neg
  286 D2:0B37 17 -  -  -  	rla
  287 D2:0B38 ED 62 -  -  	sbc	hl, hl
  288 D2:0B3A 1F -  -  -  	rra
  289 D2:0B3B 6F -  -  -  	ld	l, a
  290 D2:0B3C 29 -  -  -  	add	hl, hl
  291 D2:0B3D B7 -  -  -  	or	a, a
  292 D2:0B3E 19 -  -  -  	add	hl, de
  293 D2:0B3F ED 5B E0 09 
              D2 -  -  -  	ld	de, (posY)
  294 D2:0B44 22 DE 09 D2 	ld	(posX), hl
  295 D2:0B48 3A 3F 0A D2 	ld	a, (WorldMatrix+7)
  296 D2:0B4C ED 44 -  -  	neg
  297 D2:0B4E 17 -  -  -  	rla
  298 D2:0B4F ED 62 -  -  	sbc	hl, hl
  299 D2:0B51 1F -  -  -  	rra
  300 D2:0B52 6F -  -  -  	ld	l, a
  301 D2:0B53 29 -  -  -  	add	hl, hl
  302 D2:0B54 B7 -  -  -  	or	a, a
  303 D2:0B55 19 -  -  -  	add	hl, de
  304 D2:0B56 ED 5B E2 09 
              D2 -  -  -  	ld	de, (posZ)
  305 D2:0B5B 22 E0 09 D2 	ld	(posY), hl
  306 D2:0B5F 3A 40 0A D2 	ld	a, (WorldMatrix+8)
  307 D2:0B63 ED 44 -  -  	neg
  308 D2:0B65 17 -  -  -  	rla
  309 D2:0B66 ED 62 -  -  	sbc	hl, hl
  310 D2:0B68 1F -  -  -  	rra
  311 D2:0B69 6F -  -  -  	ld	l, a
  312 D2:0B6A 29 -  -  -  	add	hl, hl
  313 D2:0B6B B7 -  -  -  	or	a, a
  314 D2:0B6C 19 -  -  -  	add	hl, de
  315 D2:0B6D 22 E2 09 D2 	ld	(posZ), hl
  316 D2:0B71 -  -  -  -  _kskip4:
  317 D2:0B71 -  -  -  -  
  318 D2:0B71 -  -  -  -  
  319 D2:0B71 2A E0 09 D2 	ld	hl, (posY)
  320 D2:0B75 11 20 00 00 	ld	de, 32
  321 D2:0B79 3A 12 00 F5 	ld	a, ($F50012)
  322 D2:0B7D CB 47 -  -  	bit	0, a
  323 D2:0B7F 28 01 -  -  	jr	z, _kskip6
  324 D2:0B81 19 -  -  -  	add	hl, de
  325 D2:0B82 -  -  -  -  _kskip6:	
  326 D2:0B82 -  -  -  -  
  327 D2:0B82 CB 67 -  -  	bit	4, a
  328 D2:0B84 28 03 -  -  	jr	z, _kskip7
  329 D2:0B86 B7 -  -  -  	or	a, a
  330 D2:0B87 ED 52 -  -  	sbc	hl, de
  331 D2:0B89 -  -  -  -  _kskip7:
  332 D2:0B89 -  -  -  -  	
  333 D2:0B89 7D -  -  -  	ld	a, l
  334 D2:0B8A 32 E0 09 D2 	ld	(posY), a
  335 D2:0B8E 7C -  -  -  	ld	a, h
  336 D2:0B8F 32 E1 09 D2 	ld	(posY+1), a
  337 D2:0B93 -  -  -  -  
  338 D2:0B93 DD 21 38 0A 
              D2 -  -  -  	ld	ix, WorldMatrix
  339 D2:0B98 FD 21 DE 09 
              D2 -  -  -  	ld	iy, posX
  340 D2:0B9D CD E1 AD D1 	call	vxfTransform
  341 D2:0BA1 21 06 34 D0 	ld	hl, vxPosition
  342 D2:0BA5 11 41 0A D2 	ld	de, WorldMatrix+9
  343 D2:0BA9 01 09 00 00 	ld	bc, 9
  344 D2:0BAD ED B0 -  -  	ldir
  345 D2:0BAF -  -  -  -  
  346 D2:0BAF 3A 1C 00 F5 	ld a,($F5001C)
  347 D2:0BB3 CB 77 -  -  	bit 6,a
  348 D2:0BB5 C9 -  -  -  	ret
  349 D2:0BB6 -  -  -  -  
  350 D2:0BB6 -  -  -  -  
  351 D2:0BB6 -  -  -  -  #include "XML.ez80"
Listing for file "C:\Users\Zeromus\Documents\GitHub\Virtual3D\XML.ez80"
    1 D2:0BB6 -  -  -  -  VERTEXDATA:
    2 D2:0BB6 00 63 01 -  .dl 90880
    3 D2:0BB9 00 80 -  -  .dw VX_ANIMATION_BONE
    4 D2:0BBB 13 -  -  -  .db 19
    5 D2:0BBC 3F 03 FD -  .db 63,3,-3
    6 D2:0BBF 03 01 3F -  .db 3,1,63
    7 D2:0BC2 FD 3F FF -  .db -3,63,-1
    8 D2:0BC5 00 00 D6 00 
              00 00 -  -  .dw 0,214,0
    9 D2:0BCB 3F 05 FD -  .db 63,5,-3
   10 D2:0BCE 03 01 3F -  .db 3,1,63
   11 D2:0BD1 FB 3F 00 -  .db -5,63,0
   12 D2:0BD4 FE FF D6 00 
              00 00 -  -  .dw -2,214,0
   13 D2:0BDA 3F 05 FD -  .db 63,5,-3
   14 D2:0BDD 03 00 3F -  .db 3,0,63
   15 D2:0BE0 FB 3F 01 -  .db -5,63,1
   16 D2:0BE3 FC FF D6 00 
              00 00 -  -  .dw -4,214,0
   17 D2:0BE9 3F 03 FD -  .db 63,3,-3
   18 D2:0BEC 03 FD 3F -  .db 3,-3,63
   19 D2:0BEF FD 3F 03 -  .db -3,63,3
   20 D2:0BF2 FB FF D6 00 
              FF FF -  -  .dw -5,214,-1
   21 D2:0BF8 3F 00 FD -  .db 63,0,-3
   22 D2:0BFB 03 FE 3F -  .db 3,-2,63
   23 D2:0BFE 00 3F 02 -  .db 0,63,2
   24 D2:0C01 FD FF D6 00 
              FE FF -  -  .dw -3,214,-2
   25 D2:0C07 3F 00 FD -  .db 63,0,-3
   26 D2:0C0A 03 FF 3F -  .db 3,-1,63
   27 D2:0C0D 00 3F 01 -  .db 0,63,1
   28 D2:0C10 FF FF D7 00 
              FD FF -  -  .dw -1,215,-3
   29 D2:0C16 3F 00 FD -  .db 63,0,-3
   30 D2:0C19 03 FF 3F -  .db 3,-1,63
   31 D2:0C1C 00 3F 01 -  .db 0,63,1
   32 D2:0C1F 00 00 D7 00 
              FD FF -  -  .dw 0,215,-3
   33 D2:0C25 3F 00 FD -  .db 63,0,-3
   34 D2:0C28 03 FF 3F -  .db 3,-1,63
   35 D2:0C2B 00 3F 01 -  .db 0,63,1
   36 D2:0C2E 02 00 D8 00 
              FD FF -  -  .dw 2,216,-3
   37 D2:0C34 3F FF FD -  .db 63,-1,-3
   38 D2:0C37 03 00 3F -  .db 3,0,63
   39 D2:0C3A 01 3F 00 -  .db 1,63,0
   40 D2:0C3D 01 00 D8 00 
              FE FF -  -  .dw 1,216,-2
   41 D2:0C43 3F FD FD -  .db 63,-3,-3
   42 D2:0C46 03 FF 3F -  .db 3,-1,63
   43 D2:0C49 03 3F 00 -  .db 3,63,0
   44 D2:0C4C FF FF D6 00 
              FE FF -  -  .dw -1,214,-2
   45 D2:0C52 3F FC FD -  .db 63,-4,-3
   46 D2:0C55 03 00 3F -  .db 3,0,63
   47 D2:0C58 04 3F 00 -  .db 4,63,0
   48 D2:0C5B FD FF D4 00 
              FE FF -  -  .dw -3,212,-2
   49 D2:0C61 3F FB FD -  .db 63,-5,-3
   50 D2:0C64 03 01 3F -  .db 3,1,63
   51 D2:0C67 05 3F FF -  .db 5,63,-1
   52 D2:0C6A FD FF D3 00 
              FF FF -  -  .dw -3,211,-1
   53 D2:0C70 3F F9 FD -  .db 63,-7,-3
   54 D2:0C73 03 03 3F -  .db 3,3,63
   55 D2:0C76 07 3F FD -  .db 7,63,-3
   56 D2:0C79 FD FF D3 00 
              FF FF -  -  .dw -3,211,-1
   57 D2:0C7F 3F FA FD -  .db 63,-6,-3
   58 D2:0C82 03 02 3F -  .db 3,2,63
   59 D2:0C85 06 3F FE -  .db 6,63,-2
   60 D2:0C88 FE FF D4 00 
              FF FF -  -  .dw -2,212,-1
   61 D2:0C8E 3F FB FD -  .db 63,-5,-3
   62 D2:0C91 03 01 3F -  .db 3,1,63
   63 D2:0C94 05 3F FE -  .db 5,63,-2
   64 D2:0C97 00 00 D6 00 
              00 00 -  -  .dw 0,214,0
   65 D2:0C9D 3F FD FD -  .db 63,-3,-3
   66 D2:0CA0 03 02 3F -  .db 3,2,63
   67 D2:0CA3 03 3F FE -  .db 3,63,-2
   68 D2:0CA6 00 00 D8 00 
              00 00 -  -  .dw 0,216,0
   69 D2:0CAC 3F FE FD -  .db 63,-2,-3
   70 D2:0CAF 03 01 3F -  .db 3,1,63
   71 D2:0CB2 02 3F FF -  .db 2,63,-1
   72 D2:0CB5 02 00 D9 00 
              00 00 -  -  .dw 2,217,0
   73 D2:0CBB 3F 00 FD -  .db 63,0,-3
   74 D2:0CBE 03 01 3F -  .db 3,1,63
   75 D2:0CC1 00 3F FF -  .db 0,63,-1
   76 D2:0CC4 03 00 D9 00 
              00 00 -  -  .dw 3,217,0
   77 D2:0CCA 3F 01 FD -  .db 63,1,-3
   78 D2:0CCD 03 01 3F -  .db 3,1,63
   79 D2:0CD0 FF 3F FF -  .db -1,63,-1
   80 D2:0CD3 01 00 D8 00 
              00 00 -  -  .dw 1,216,0
   81 D2:0CD9 FD FF DB FF 
              F4 FF -  -  .dw -3,-37,-12
   82 D2:0CDF 30 27 F2 -  .db 48,39,-14
   83 D2:0CE2 FB FF E1 FF 
              0A 00 -  -  .dw -5,-31,10
   84 D2:0CE8 30 D8 F3 -  .db 48,-40,-13
   85 D2:0CEB 16 00 E2 FF 
              F3 FF -  -  .dw 22,-30,-13
   86 D2:0CF1 14 EC C7 -  .db 20,-20,-57
   87 D2:0CF4 12 00 E8 FF 
              0B 00 -  -  .dw 18,-24,11
   88 D2:0CFA 13 14 C7 -  .db 19,20,-57
   89 D2:0CFD 0E 00 EA FF 
              E7 FF -  -  .dw 14,-22,-25
   90 D2:0D03 C9 EE E5 -  .db -55,-18,-27
   91 D2:0D06 F1 FF F0 FF 
              1A 00 -  -  .dw -15,-16,26
   92 D2:0D0C CA 13 E5 -  .db -54,19,-27
   93 D2:0D0F 03 00 F0 FF 
              1B 00 -  -  .dw 3,-16,27
   94 D2:0D15 E5 06 C7 -  .db -27,6,-57
   95 D2:0D18 EF FF F1 FF 
              F4 FF -  -  .dw -17,-15,-12
   96 D2:0D1E E4 FC C7 -  .db -28,-4,-57
   97 D2:0D21 ED FF F3 FF 
              0A 00 -  -  .dw -19,-13,10
   98 D2:0D27 2D 22 1C -  .db 45,34,28
   99 D2:0D2A FA FF FC FF 
              E9 FF -  -  .dw -6,-4,-23
  100 D2:0D30 2D DF 1D -  .db 45,-33,29
  101 D2:0D33 FA FF 05 00 
              E9 FF -  -  .dw -6,5,-23
  102 D2:0D39 C3 11 05 -  .db -61,17,5
  103 D2:0D3C EE FF 0D 00 
              0A 00 -  -  .dw -18,13,10
  104 D2:0D42 DA 19 2C -  .db -38,25,44
  105 D2:0D45 EF FF 11 00 
              F4 FF -  -  .dw -17,17,-12
  106 D2:0D4B EC 38 15 -  .db -20,56,21
  107 D2:0D4E F2 FF 11 00 
              1A 00 -  -  .dw -14,17,26
  108 D2:0D54 ED 39 ED -  .db -19,57,-19
  109 D2:0D57 03 00 11 00 
              1B 00 -  -  .dw 3,17,27
  110 D2:0D5D C3 F0 04 -  .db -61,-16,4
  111 D2:0D60 0E 00 16 00 
              E7 FF -  -  .dw 14,22,-25
  112 D2:0D66 12 17 38 -  .db 18,23,56
  113 D2:0D69 13 00 19 00 
              0B 00 -  -  .dw 19,25,11
  114 D2:0D6F 12 E9 38 -  .db 18,-23,56
  115 D2:0D72 16 00 1E 00 
              F3 FF -  -  .dw 22,30,-13
  116 D2:0D78 DA E8 2C -  .db -38,-24,44
  117 D2:0D7B FB FF 1F 00 
              0A 00 -  -  .dw -5,31,10
  118 D2:0D81 ED C7 ED -  .db -19,-57,-19
  119 D2:0D84 FD FF 25 00 
              F4 FF -  -  .dw -3,37,-12
  120 D2:0D8A ED C8 16 -  .db -19,-56,22
  121 D2:0D8D 00 80 -  -  .dw VX_ANIMATION_BONE
  122 D2:0D8F 13 -  -  -  .db 19
  123 D2:0D90 39 02 1A -  .db 57,2,26
  124 D2:0D93 E6 00 3A -  .db -26,0,58
  125 D2:0D96 FE 3F FF -  .db -2,63,-1
  126 D2:0D99 04 00 D5 00 
              00 00 -  -  .dw 4,213,0
  127 D2:0D9F 3A 04 1A -  .db 58,4,26
  128 D2:0DA2 E6 00 3A -  .db -26,0,58
  129 D2:0DA5 FC 3F FE -  .db -4,63,-2
  130 D2:0DA8 01 00 D4 00 
              00 00 -  -  .dw 1,212,0
  131 D2:0DAE 3C 05 14 -  .db 60,5,20
  132 D2:0DB1 EC 00 3C -  .db -20,0,60
  133 D2:0DB4 FC 3F FE -  .db -4,63,-2
  134 D2:0DB7 FF FF D5 00 
              00 00 -  -  .dw -1,213,0
  135 D2:0DBD 3E 04 0E -  .db 62,4,14
  136 D2:0DC0 F2 01 3E -  .db -14,1,62
  137 D2:0DC3 FD 3F FE -  .db -3,63,-2
  138 D2:0DC6 FE FF D7 00 
              FE FF -  -  .dw -2,215,-2
  139 D2:0DCC 3E 01 0C -  .db 62,1,12
  140 D2:0DCF F4 02 3E -  .db -12,2,62
  141 D2:0DD2 FF 3F FE -  .db -1,63,-2
  142 D2:0DD5 00 00 D7 00 
              FD FF -  -  .dw 0,215,-3
  143 D2:0DDB 3F 00 09 -  .db 63,0,9
  144 D2:0DDE F7 02 3F -  .db -9,2,63
  145 D2:0DE1 00 3F FE -  .db 0,63,-2
  146 D2:0DE4 00 00 D8 00 
              FC FF -  -  .dw 0,216,-4
  147 D2:0DEA 3F 00 05 -  .db 63,0,5
  148 D2:0DED FB 02 3F -  .db -5,2,63
  149 D2:0DF0 00 3F FE -  .db 0,63,-2
  150 D2:0DF3 02 00 D8 00 
              FC FF -  -  .dw 2,216,-4
  151 D2:0DF9 3F 00 00 -  .db 63,0,0
  152 D2:0DFC 00 02 3F -  .db 0,2,63
  153 D2:0DFF 00 3F FE -  .db 0,63,-2
  154 D2:0E02 02 00 D9 00 
              FD FF -  -  .dw 2,217,-3
  155 D2:0E08 3F FF FA -  .db 63,-1,-6
  156 D2:0E0B 07 02 3F -  .db 7,2,63
  157 D2:0E0E 01 3F FE -  .db 1,63,-2
  158 D2:0E11 00 00 D9 00 
              FD FF -  -  .dw 0,217,-3
  159 D2:0E17 3E FC F3 -  .db 62,-4,-13
  160 D2:0E1A 0E 02 3E -  .db 14,2,62
  161 D2:0E1D 03 3F FD -  .db 3,63,-3
  162 D2:0E20 FD FF D7 00 
              FD FF -  -  .dw -3,215,-3
  163 D2:0E26 3D FB EF -  .db 61,-5,-17
  164 D2:0E29 11 01 3D -  .db 17,1,61
  165 D2:0E2C 04 3F FD -  .db 4,63,-3
  166 D2:0E2F FA FF D4 00 
              FE FF -  -  .dw -6,212,-2
  167 D2:0E35 3C FB ED -  .db 60,-5,-19
  168 D2:0E38 13 01 3C -  .db 19,1,60
  169 D2:0E3B 05 3F FD -  .db 5,63,-3
  170 D2:0E3E FA FF D3 00 
              FE FF -  -  .dw -6,211,-2
  171 D2:0E44 3C FA ED -  .db 60,-6,-19
  172 D2:0E47 13 01 3D -  .db 19,1,61
  173 D2:0E4A 05 3F FD -  .db 5,63,-3
  174 D2:0E4D FB FF D2 00 
              FF FF -  -  .dw -5,210,-1
  175 D2:0E53 3E FA F5 -  .db 62,-6,-11
  176 D2:0E56 0B 01 3E -  .db 11,1,62
  177 D2:0E59 05 3F FD -  .db 5,63,-3
  178 D2:0E5C FC FF D4 00 
              FF FF -  -  .dw -4,212,-1
  179 D2:0E62 3F FB 00 -  .db 63,-5,0
  180 D2:0E65 00 02 3F -  .db 0,2,63
  181 D2:0E68 05 3F FE -  .db 5,63,-2
  182 D2:0E6B 00 00 D6 00 
              00 00 -  -  .dw 0,214,0
  183 D2:0E71 3E FD 0E -  .db 62,-3,14
  184 D2:0E74 F2 02 3E -  .db -14,2,62
  185 D2:0E77 04 3F FF -  .db 4,63,-1
  186 D2:0E7A 03 00 D7 00 
              00 00 -  -  .dw 3,215,0
  187 D2:0E80 3A FE 19 -  .db 58,-2,25
  188 D2:0E83 E7 01 3A -  .db -25,1,58
  189 D2:0E86 03 3F 00 -  .db 3,63,0
  190 D2:0E89 06 00 D8 00 
              00 00 -  -  .dw 6,216,0
  191 D2:0E8F 38 00 1D -  .db 56,0,29
  192 D2:0E92 E3 01 38 -  .db -29,1,56
  193 D2:0E95 00 3F FF -  .db 0,63,-1
  194 D2:0E98 08 00 D7 00 
              00 00 -  -  .dw 8,215,0
  195 D2:0E9E 39 01 1C -  .db 57,1,28
  196 D2:0EA1 E4 00 39 -  .db -28,0,57
  197 D2:0EA4 00 3F FF -  .db 0,63,-1
  198 D2:0EA7 06 00 D6 00 
              00 00 -  -  .dw 6,214,0
  199 D2:0EAD FC FF D0 FF 
              FC FF -  -  .dw -4,-48,-4
  200 D2:0EB3 F1 30 26 -  .db -15,48,38
  201 D2:0EB6 0A 00 D2 FF 
              FD FF -  -  .dw 10,-46,-3
  202 D2:0EBC 2B 1D 24 -  .db 43,29,36
  203 D2:0EBF FD FF D7 FF 
              D7 FF -  -  .dw -3,-41,-41
  204 D2:0EC5 33 24 F9 -  .db 51,36,-7
  205 D2:0EC8 06 00 D9 FF 
              D7 FF -  -  .dw 6,-39,-41
  206 D2:0ECE EE 3D FB -  .db -18,61,-5
  207 D2:0ED1 FB FF DA FF 
              F8 FF -  -  .dw -5,-38,-8
  208 D2:0ED7 33 DB F6 -  .db 51,-37,-10
  209 D2:0EDA FA FF DB FF 
              00 00 -  -  .dw -6,-37,0
  210 D2:0EE0 2F DF E5 -  .db 47,-33,-27
  211 D2:0EE3 0D 00 DD FF 
              00 00 -  -  .dw 13,-35,0
  212 D2:0EE9 2E 22 E6 -  .db 46,34,-26
  213 D2:0EEC FB FF DE FF 
              C9 FF -  -  .dw -5,-34,-55
  214 D2:0EF2 2B E1 23 -  .db 43,-31,35
  215 D2:0EF5 F8 FF DE FF 
              D4 FF -  -  .dw -8,-34,-44
  216 D2:0EFB EF CF 24 -  .db -17,-49,36
  217 D2:0EFE 09 00 E0 FF 
              D4 FF -  -  .dw 9,-32,-44
  218 D2:0F04 ED C4 F7 -  .db -19,-60,-9
  219 D2:0F07 10 00 E1 FF 
              F7 FF -  -  .dw 16,-31,-9
  220 D2:0F0D CE 00 27 -  .db -50,0,39
  221 D2:0F10 0E 00 E5 FF 
              C9 FF -  -  .dw 14,-27,-55
  222 D2:0F16 23 D3 1A -  .db 35,-45,26
  223 D2:0F19 FE FF E8 FF 
              9E FF -  -  .dw -2,-24,-98
  224 D2:0F1F E4 CE 1A -  .db -28,-50,26
  225 D2:0F22 05 00 EB FF 
              9E FF -  -  .dw 5,-21,-98
  226 D2:0F28 EC CF DD -  .db -20,-49,-35
  227 D2:0F2B FA FF EC FF 
              98 FF -  -  .dw -6,-20,-104
  228 D2:0F31 20 D7 DC -  .db 32,-41,-36
  229 D2:0F34 EF FF EE FF 
              F8 FF -  -  .dw -17,-18,-8
  230 D2:0F3A 29 1B 27 -  .db 41,27,39
  231 D2:0F3D EE FF EF FF 
              C9 FF -  -  .dw -18,-17,-55
  232 D2:0F43 D7 17 2A -  .db -41,23,42
  233 D2:0F46 03 00 F1 FF 
              98 FF -  -  .dw 3,-15,-104
  234 D2:0F4C 21 00 CA -  .db 33,0,-54
  235 D2:0F4F F6 FF F1 FF 
              9E FF -  -  .dw -10,-15,-98
  236 D2:0F55 E5 22 D2 -  .db -27,34,-46
  237 D2:0F58 FA FF F5 FF 
              98 FF -  -  .dw -6,-11,-104
  238 D2:0F5E F7 3B EA -  .db -9,59,-22
  239 D2:0F61 05 00 F6 FF 
              9E FF -  -  .dw 5,-10,-98
  240 D2:0F67 F8 C5 E9 -  .db -8,-59,-23
  241 D2:0F6A 0E 00 F9 FF 
              C9 FF -  -  .dw 14,-7,-55
  242 D2:0F70 E5 DD D3 -  .db -27,-35,-45
  243 D2:0F73 10 00 F9 FF 
              F7 FF -  -  .dw 16,-7,-9
  244 D2:0F79 C3 00 F0 -  .db -61,0,-16
  245 D2:0F7C FE FF FA FF 
              9E FF -  -  .dw -2,-6,-98
  246 D2:0F82 C1 00 FB -  .db -63,0,-5
  247 D2:0F85 FB FF 00 00 
              C9 FF -  -  .dw -5,0,-55
  248 D2:0F8B D5 16 D7 -  .db -43,22,-41
  249 D2:0F8E FC FF 00 00 
              F8 FF -  -  .dw -4,0,-8
  250 D2:0F94 25 20 D8 -  .db 37,32,-40
  251 D2:0F97 00 80 -  -  .dw VX_ANIMATION_BONE
  252 D2:0F99 13 -  -  -  .db 19
  253 D2:0F9A 3F 02 09 -  .db 63,2,9
  254 D2:0F9D F7 00 3F -  .db -9,0,63
  255 D2:0FA0 FE 3F FF -  .db -2,63,-1
  256 D2:0FA3 EB FF DD 00 
              01 00 -  -  .dw -21,221,1
  257 D2:0FA9 3D 04 10 -  .db 61,4,16
  258 D2:0FAC F0 00 3D -  .db -16,0,61
  259 D2:0FAF FC 3F FE -  .db -4,63,-2
  260 D2:0FB2 F3 FF DA 00 
              01 00 -  -  .dw -13,218,1
  261 D2:0FB8 3D 05 0F -  .db 61,5,15
  262 D2:0FBB F1 00 3E -  .db -15,0,62
  263 D2:0FBE FC 3F FF -  .db -4,63,-1
  264 D2:0FC1 F7 FF D8 00 
              00 00 -  -  .dw -9,216,0
  265 D2:0FC7 3F 04 09 -  .db 63,4,9
  266 D2:0FCA F7 01 3F -  .db -9,1,63
  267 D2:0FCD FC 3F FE -  .db -4,63,-2
  268 D2:0FD0 F6 FF D8 00 
              FE FF -  -  .dw -10,216,-2
  269 D2:0FD6 3F 01 03 -  .db 63,1,3
  270 D2:0FD9 FD 02 3F -  .db -3,2,63
  271 D2:0FDC FF 3F FE -  .db -1,63,-2
  272 D2:0FDF F2 FF D9 00 
              FE FF -  -  .dw -14,217,-2
  273 D2:0FE5 3F 00 00 -  .db 63,0,0
  274 D2:0FE8 00 02 3F -  .db 0,2,63
  275 D2:0FEB 00 3F FE -  .db 0,63,-2
  276 D2:0FEE F2 FF D9 00 
              FC FF -  -  .dw -14,217,-4
  277 D2:0FF4 3F 00 FF -  .db 63,0,-1
  278 D2:0FF7 01 02 3F -  .db 1,2,63
  279 D2:0FFA 00 3F FE -  .db 0,63,-2
  280 D2:0FFD F8 FF D9 00 
              FC FF -  -  .dw -8,217,-4
  281 D2:1003 3F 00 FB -  .db 63,0,-5
  282 D2:1006 05 02 3F -  .db 5,2,63
  283 D2:1009 00 3F FE -  .db 0,63,-2
  284 D2:100C FC FF D9 00 
              FD FF -  -  .dw -4,217,-3
  285 D2:1012 3F FF F7 -  .db 63,-1,-9
  286 D2:1015 09 02 3F -  .db 9,2,63
  287 D2:1018 01 3F FE -  .db 1,63,-2
  288 D2:101B FD FF D8 00 
              FD FF -  -  .dw -3,216,-3
  289 D2:1021 3E FC F2 -  .db 62,-4,-14
  290 D2:1024 0E 02 3E -  .db 14,2,62
  291 D2:1027 03 3F FD -  .db 3,63,-3
  292 D2:102A FC FF D6 00 
              FD FF -  -  .dw -4,214,-3
  293 D2:1030 3C FB EC -  .db 60,-5,-20
  294 D2:1033 14 01 3C -  .db 20,1,60
  295 D2:1036 04 3F FD -  .db 4,63,-3
  296 D2:1039 F6 FF D3 00 
              FD FF -  -  .dw -10,211,-3
  297 D2:103F 39 FB E6 -  .db 57,-5,-26
  298 D2:1042 1A 01 3A -  .db 26,1,58
  299 D2:1045 04 3F FD -  .db 4,63,-3
  300 D2:1048 EF FF CF 00 
              FD FF -  -  .dw -17,207,-3
  301 D2:104E 36 FA DF -  .db 54,-6,-33
  302 D2:1051 21 01 36 -  .db 33,1,54
  303 D2:1054 05 3F FC -  .db 5,63,-4
  304 D2:1057 E5 FF C9 00 
              FD FF -  -  .dw -27,201,-3
  305 D2:105D 30 FA D7 -  .db 48,-6,-41
  306 D2:1060 2A 01 30 -  .db 42,1,48
  307 D2:1063 03 3F FB -  .db 3,63,-5
  308 D2:1066 CD FF BE 00 
              FB FF -  -  .dw -51,190,-5
  309 D2:106C 2C FB D3 -  .db 44,-5,-45
  310 D2:106F 2E 02 2C -  .db 46,2,44
  311 D2:1072 02 3F FB -  .db 2,63,-5
  312 D2:1075 B9 FF BA 00 
              FA FF -  -  .dw -71,186,-6
  313 D2:107B 2D FD D4 -  .db 45,-3,-44
  314 D2:107E 2C 02 2D -  .db 44,2,45
  315 D2:1081 00 3F FC -  .db 0,63,-4
  316 D2:1084 AA FF BF 00 
              FC FF -  -  .dw -86,191,-4
  317 D2:108A 34 FE DC -  .db 52,-2,-36
  318 D2:108D 24 01 34 -  .db 36,1,52
  319 D2:1090 01 3F FD -  .db 1,63,-3
  320 D2:1093 A9 FF D1 00 
              FD FF -  -  .dw -87,209,-3
  321 D2:1099 3D 00 EE -  .db 61,0,-18
  322 D2:109C 12 01 3D -  .db 18,1,61
  323 D2:109F 00 3F FF -  .db 0,63,-1
  324 D2:10A2 C0 FF E0 00 
              00 00 -  -  .dw -64,224,0
  325 D2:10A8 3F 01 FC -  .db 63,1,-4
  326 D2:10AB 04 00 3F -  .db 4,0,63
  327 D2:10AE FF 3F 00 -  .db -1,63,0
  328 D2:10B1 D5 FF E1 00 
              01 00 -  -  .dw -43,225,1
  329 D2:10B7 02 00 E1 FF 
              7A FF -  -  .dw 2,-31,-134
  330 D2:10BD 21 1B 2F -  .db 33,27,47
  331 D2:10C0 01 00 E5 FF 
              69 FF -  -  .dw 1,-27,-151
  332 D2:10C6 21 E7 30 -  .db 33,-25,48
  333 D2:10C9 12 00 E7 FF 
              7F FF -  -  .dw 18,-25,-129
  334 D2:10CF 34 DC 06 -  .db 52,-36,6
  335 D2:10D2 0D 00 E9 FF 
              6A FF -  -  .dw 13,-23,-150
  336 D2:10D8 34 23 05 -  .db 52,35,5
  337 D2:10DB FE FF E9 FF 
              43 FF -  -  .dw -2,-23,-189
  338 D2:10E1 F2 2E 29 -  .db -14,46,41
  339 D2:10E4 FE FF EA FF 
              9E FF -  -  .dw -2,-22,-98
  340 D2:10EA CB 00 23 -  .db -53,0,35
  341 D2:10ED FD FF EB FF 
              3E FF -  -  .dw -3,-21,-194
  342 D2:10F3 F2 D3 2A -  .db -14,-45,42
  343 D2:10F6 08 00 EC FF 
              43 FF -  -  .dw 8,-20,-189
  344 D2:10FC 33 DD F2 -  .db 51,-35,-14
  345 D2:10FF 05 00 ED FF 
              9E FF -  -  .dw 5,-19,-98
  346 D2:1105 33 22 F3 -  .db 51,34,-13
  347 D2:1108 F8 FF F0 FF 
              69 FF -  -  .dw -8,-16,-151
  348 D2:110E 2F DC E9 -  .db 47,-36,-23
  349 D2:1111 05 00 F0 FF 
              3E FF -  -  .dw 5,-16,-194
  350 D2:1117 2C 26 E8 -  .db 44,38,-24
  351 D2:111A F7 FF F0 FF 
              7A FF -  -  .dw -9,-16,-134
  352 D2:1120 1F FD C9 -  .db 31,-3,-55
  353 D2:1123 F7 FF F1 FF 
              43 FF -  -  .dw -9,-15,-189
  354 D2:1129 EA 22 CF -  .db -22,34,-49
  355 D2:112C F6 FF F1 FF 
              9E FF -  -  .dw -10,-15,-98
  356 D2:1132 F0 3C F3 -  .db -16,60,-13
  357 D2:1135 FD FF F5 FF 
              3E FF -  -  .dw -3,-11,-194
  358 D2:113B F0 C4 F5 -  .db -16,-60,-11
  359 D2:113E 08 00 F6 FF 
              43 FF -  -  .dw 8,-10,-189
  360 D2:1144 EA DA D3 -  .db -22,-38,-45
  361 D2:1147 05 00 F6 FF 
              9E FF -  -  .dw 5,-10,-98
  362 D2:114D C2 02 F3 -  .db -62,2,-13
  363 D2:1150 0D 00 F6 FF 
              6A FF -  -  .dw 13,-10,-150
  364 D2:1156 F2 3E FC -  .db -14,62,-4
  365 D2:1159 FE FF F8 FF 
              43 FF -  -  .dw -2,-8,-189
  366 D2:115F F2 C2 FF -  .db -14,-62,-1
  367 D2:1162 FE FF F9 FF 
              9E FF -  -  .dw -2,-7,-98
  368 D2:1168 C1 00 FD -  .db -63,0,-3
  369 D2:116B 12 00 F9 FF 
              7F FF -  -  .dw 18,-7,-129
  370 D2:1171 F2 3D F8 -  .db -14,61,-8
  371 D2:1174 02 00 FB FF 
              69 FF -  -  .dw 2,-5,-151
  372 D2:117A F1 C3 F7 -  .db -15,-61,-9
  373 D2:117D 02 00 FF FF 
              7A FF -  -  .dw 2,-1,-134
  374 D2:1183 C1 00 00 -  .db -63,0,0
  375 D2:1186 00 80 -  -  .dw VX_ANIMATION_BONE
  376 D2:1188 13 -  -  -  .db 19
  377 D2:1189 3E 02 0F -  .db 62,2,15
  378 D2:118C F1 00 3E -  .db -15,0,62
  379 D2:118F FE 3F FF -  .db -2,63,-1
  380 D2:1192 FC FF DA 00 
              00 00 -  -  .dw -4,218,0
  381 D2:1198 3A 04 1A -  .db 58,4,26
  382 D2:119B E6 00 3A -  .db -26,0,58
  383 D2:119E FC 3F FE -  .db -4,63,-2
  384 D2:11A1 11 00 CF 00 
              00 00 -  -  .dw 17,207,0
  385 D2:11A7 3E 05 0E -  .db 62,5,14
  386 D2:11AA F2 00 3E -  .db -14,0,62
  387 D2:11AD FC 3F FF -  .db -4,63,-1
  388 D2:11B0 F5 FF D8 00 
              00 00 -  -  .dw -11,216,0
  389 D2:11B6 3F 04 FE -  .db 63,4,-2
  390 D2:11B9 01 01 3F -  .db 1,1,63
  391 D2:11BC FC 3F FF -  .db -4,63,-1
  392 D2:11BF D5 FF DA 00 
              00 00 -  -  .dw -43,218,0
  393 D2:11C5 3F 01 00 -  .db 63,1,0
  394 D2:11C8 00 02 3F -  .db 0,2,63
  395 D2:11CB FF 3F FE -  .db -1,63,-2
  396 D2:11CE E5 FF D9 00 
              FE FF -  -  .dw -27,217,-2
  397 D2:11D4 3F 00 00 -  .db 63,0,0
  398 D2:11D7 00 02 3F -  .db 0,2,63
  399 D2:11DA 00 3F FE -  .db 0,63,-2
  400 D2:11DD F1 FF D9 00 
              FC FF -  -  .dw -15,217,-4
  401 D2:11E3 3F 00 FF -  .db 63,0,-1
  402 D2:11E6 01 02 3F -  .db 1,2,63
  403 D2:11E9 00 3F FE -  .db 0,63,-2
  404 D2:11EC F9 FF D9 00 
              FC FF -  -  .dw -7,217,-4
  405 D2:11F2 3F 00 FF -  .db 63,0,-1
  406 D2:11F5 01 02 3F -  .db 1,2,63
  407 D2:11F8 00 3F FE -  .db 0,63,-2
  408 D2:11FB 06 00 DA 00 
              FD FF -  -  .dw 6,218,-3
  409 D2:1201 3F FF FF -  .db 63,-1,-1
  410 D2:1204 01 02 3F -  .db 1,2,63
  411 D2:1207 01 3F FE -  .db 1,63,-2
  412 D2:120A 16 00 DB 00 
              FD FF -  -  .dw 22,219,-3
  413 D2:1210 3F FC FF -  .db 63,-4,-1
  414 D2:1213 01 02 3F -  .db 1,2,63
  415 D2:1216 04 3F FE -  .db 4,63,-2
  416 D2:1219 22 00 DC 00 
              00 00 -  -  .dw 34,220,0
  417 D2:121F 3F FB FC -  .db 63,-5,-4
  418 D2:1222 04 01 3F -  .db 4,1,63
  419 D2:1225 05 3F FE -  .db 5,63,-2
  420 D2:1228 23 00 DD 00 
              00 00 -  -  .dw 35,221,0
  421 D2:122E 3E FB F7 -  .db 62,-5,-9
  422 D2:1231 0A 01 3F -  .db 10,1,63
  423 D2:1234 05 3F FE -  .db 5,63,-2
  424 D2:1237 1F 00 DE 00 
              01 00 -  -  .dw 31,222,1
  425 D2:123D 3C FA ED -  .db 60,-6,-19
  426 D2:1240 13 01 3C -  .db 19,1,60
  427 D2:1243 05 3F FD -  .db 5,63,-3
  428 D2:1246 0D 00 DC 00 
              00 00 -  -  .dw 13,220,0
  429 D2:124C 2D FA D4 -  .db 45,-6,-44
  430 D2:124F 2D 01 2D -  .db 45,1,45
  431 D2:1252 03 3F FB -  .db 3,63,-5
  432 D2:1255 C4 FF B5 00 
              FA FF -  -  .dw -60,181,-6
  433 D2:125B 24 FB CC -  .db 36,-5,-52
  434 D2:125E 34 02 24 -  .db 52,2,36
  435 D2:1261 01 3F FB -  .db 1,63,-5
  436 D2:1264 A5 FF A1 00 
              F9 FF -  -  .dw -91,161,-7
  437 D2:126A 27 FD CE -  .db 39,-3,-50
  438 D2:126D 32 02 27 -  .db 50,2,39
  439 D2:1270 00 3F FC -  .db 0,63,-4
  440 D2:1273 9A FF AD 00 
              FC FF -  -  .dw -102,173,-4
  441 D2:1279 31 FE D9 -  .db 49,-2,-39
  442 D2:127C 27 01 31 -  .db 39,1,49
  443 D2:127F 00 3F FD -  .db 0,63,-3
  444 D2:1282 A0 FF CA 00 
              FD FF -  -  .dw -96,202,-3
  445 D2:1288 3D 00 EF -  .db 61,0,-17
  446 D2:128B 11 01 3D -  .db 17,1,61
  447 D2:128E 00 3F FF -  .db 0,63,-1
  448 D2:1291 C4 FF E1 00 
              00 00 -  -  .dw -60,225,0
  449 D2:1297 3F 01 00 -  .db 63,1,0
  450 D2:129A 00 00 3F -  .db 0,0,63
  451 D2:129D FF 3F 00 -  .db -1,63,0
  452 D2:12A0 E1 FF E2 00 
              01 00 -  -  .dw -31,226,1
  453 D2:12A6 EA FF E5 FF 
              28 FF -  -  .dw -22,-27,-216
  454 D2:12AC D4 E1 21 -  .db -44,-31,33
  455 D2:12AF EE FF E7 FF 
              39 FF -  -  .dw -18,-25,-199
  456 D2:12B5 D4 1F 21 -  .db -44,31,33
  457 D2:12B8 0B 00 E8 FF 
              38 FF -  -  .dw 11,-24,-200
  458 D2:12BE D7 22 DE -  .db -41,34,-34
  459 D2:12C1 0D 00 E9 FF 
              28 FF -  -  .dw 13,-23,-216
  460 D2:12C7 D7 DE DE -  .db -41,-34,-34
  461 D2:12CA D5 FF EA FF 
              28 FF -  -  .dw -43,-22,-216
  462 D2:12D0 FC CF D8 -  .db -4,-49,-40
  463 D2:12D3 F8 FF EA FF 
              42 FF -  -  .dw -8,-22,-190
  464 D2:12D9 FF 31 D8 -  .db -1,49,-40
  465 D2:12DC 08 00 EA FF 
              43 FF -  -  .dw 8,-22,-189
  466 D2:12E2 29 21 DD -  .db 41,33,-35
  467 D2:12E5 D5 FF EB FF 
              32 FF -  -  .dw -43,-21,-206
  468 D2:12EB 29 DF DD -  .db 41,-33,-35
  469 D2:12EE D5 FF F6 FF 
              32 FF -  -  .dw -43,-10,-206
  470 D2:12F4 EE 1E 35 -  .db -18,30,53
  471 D2:12F7 D5 FF F7 FF 
              28 FF -  -  .dw -43,-9,-216
  472 D2:12FD F0 DF 33 -  .db -16,-33,51
  473 D2:1300 F8 FF F7 FF 
              42 FF -  -  .dw -8,-9,-190
  474 D2:1306 1D DF 2D -  .db 29,-33,45
  475 D2:1309 08 00 F7 FF 
              43 FF -  -  .dw 8,-9,-189
  476 D2:130F 1E 20 2E -  .db 30,32,46
  477 D2:1312 0D 00 F8 FF 
              28 FF -  -  .dw 13,-8,-216
  478 D2:1318 2C 2C 0B -  .db 44,44,11
  479 D2:131B 0B 00 F9 FF 
              38 FF -  -  .dw 11,-7,-200
  480 D2:1321 2C D4 0B -  .db 44,-44,11
  481 D2:1324 EE FF FB FF 
              39 FF -  -  .dw -18,-5,-199
  482 D2:132A EE 30 25 -  .db -18,48,37
  483 D2:132D EE FF FD FF 
              28 FF -  -  .dw -18,-3,-216
  484 D2:1333 EF D0 25 -  .db -17,-48,37
  485 D2:1336 00 80 -  -  .dw VX_ANIMATION_BONE
  486 D2:1338 13 -  -  -  .db 19
  487 D2:1339 3E 03 F3 -  .db 62,3,-13
  488 D2:133C 0E FF 3E -  .db 14,-1,62
  489 D2:133F FD 3F 02 -  .db -3,63,2
  490 D2:1342 FF FF D7 00 
              01 00 -  -  .dw -1,215,1
  491 D2:1348 3D 05 EE -  .db 61,5,-18
  492 D2:134B 12 00 3D -  .db 18,0,61
  493 D2:134E FB 3F 02 -  .db -5,63,2
  494 D2:1351 FB FF D6 00 
              00 00 -  -  .dw -5,214,0
  495 D2:1357 3D 05 F0 -  .db 61,5,-16
  496 D2:135A 11 00 3D -  .db 17,0,61
  497 D2:135D FC 3F 02 -  .db -4,63,2
  498 D2:1360 FA FF D5 00 
              00 00 -  -  .dw -6,213,0
  499 D2:1366 3F 03 F7 -  .db 63,3,-9
  500 D2:1369 09 FF 3F -  .db 9,-1,63
  501 D2:136C FE 3F 02 -  .db -2,63,2
  502 D2:136F FA FF D5 00 
              FE FF -  -  .dw -6,213,-2
  503 D2:1375 3F 00 FF -  .db 63,0,-1
  504 D2:1378 01 FF 3F -  .db 1,-1,63
  505 D2:137B 00 3F 01 -  .db 0,63,1
  506 D2:137E FE FF D6 00 
              FE FF -  -  .dw -2,214,-2
  507 D2:1384 3F 00 07 -  .db 63,0,7
  508 D2:1387 F9 FF 3F -  .db -7,-1,63
  509 D2:138A 00 3F 01 -  .db 0,63,1
  510 D2:138D 00 00 D6 00 
              FD FF -  -  .dw 0,214,-3
  511 D2:1393 3D 00 11 -  .db 61,0,17
  512 D2:1396 EF FF 3D -  .db -17,-1,61
  513 D2:1399 00 3F 01 -  .db 0,63,1
  514 D2:139C 03 00 D6 00 
              FD FF -  -  .dw 3,214,-3
  515 D2:13A2 3A 00 19 -  .db 58,0,25
  516 D2:13A5 E7 FF 3A -  .db -25,-1,58
  517 D2:13A8 00 3F 01 -  .db 0,63,1
  518 D2:13AB 06 00 D7 00 
              FD FF -  -  .dw 6,215,-3
  519 D2:13B1 39 FF 1C -  .db 57,-1,28
  520 D2:13B4 E4 00 39 -  .db -28,0,57
  521 D2:13B7 00 3F 01 -  .db 0,63,1
  522 D2:13BA 06 00 D6 00 
              FE FF -  -  .dw 6,214,-2
  523 D2:13C0 3A FD 1A -  .db 58,-3,26
  524 D2:13C3 E6 FF 3A -  .db -26,-1,58
  525 D2:13C6 02 3F 02 -  .db 2,63,2
  526 D2:13C9 02 00 D4 00 
              FE FF -  -  .dw 2,212,-2
  527 D2:13CF 3B FC 16 -  .db 59,-4,22
  528 D2:13D2 EA 00 3B -  .db -22,0,59
  529 D2:13D5 04 3F 01 -  .db 4,63,1
  530 D2:13D8 00 00 D3 00 
              FE FF -  -  .dw 0,211,-2
  531 D2:13DE 3C FA 15 -  .db 60,-6,21
  532 D2:13E1 EB 00 3C -  .db -21,0,60
  533 D2:13E4 06 3F 01 -  .db 6,63,1
  534 D2:13E7 00 00 D3 00 
              FF FF -  -  .dw 0,211,-1
  535 D2:13ED 3C F8 13 -  .db 60,-8,19
  536 D2:13F0 ED 00 3C -  .db -19,0,60
  537 D2:13F3 07 3F 02 -  .db 7,63,2
  538 D2:13F6 00 00 D3 00 
              FF FF -  -  .dw 0,211,-1
  539 D2:13FC 3D F9 10 -  .db 61,-7,16
  540 D2:13FF EF 00 3D -  .db -17,0,61
  541 D2:1402 06 3F 02 -  .db 6,63,2
  542 D2:1405 00 00 D4 00 
              00 00 -  -  .dw 0,212,0
  543 D2:140B 3E FA 0B -  .db 62,-6,11
  544 D2:140E F4 FF 3E -  .db -12,-1,62
  545 D2:1411 05 3F 02 -  .db 5,63,2
  546 D2:1414 01 00 D6 00 
              00 00 -  -  .dw 1,214,0
  547 D2:141A 3F FC 04 -  .db 63,-4,4
  548 D2:141D FB FF 3F -  .db -5,-1,63
  549 D2:1420 04 3F 02 -  .db 4,63,2
  550 D2:1423 02 00 D9 00 
              00 00 -  -  .dw 2,217,0
  551 D2:1429 3F FD 00 -  .db 63,-3,0
  552 D2:142C 00 FE 3F -  .db 0,-2,63
  553 D2:142F 03 3F 01 -  .db 3,63,1
  554 D2:1432 03 00 DB 00 
              01 00 -  -  .dw 3,219,1
  555 D2:1438 3F 00 F9 -  .db 63,0,-7
  556 D2:143B 07 FF 3F -  .db 7,-1,63
  557 D2:143E 00 3F 01 -  .db 0,63,1
  558 D2:1441 02 00 DA 00 
              00 00 -  -  .dw 2,218,0
  559 D2:1447 3F 01 F6 -  .db 63,1,-10
  560 D2:144A 0A FF 3F -  .db 10,-1,63
  561 D2:144D FF 3F 02 -  .db -1,63,2
  562 D2:1450 00 00 D9 00 
              00 00 -  -  .dw 0,217,0
  563 D2:1456 FC FF 00 00 
              F8 FF -  -  .dw -4,0,-8
  564 D2:145C 2B E3 24 -  .db 43,-29,36
  565 D2:145F FB FF 00 00 
              C9 FF -  -  .dw -5,0,-55
  566 D2:1465 F1 CF 25 -  .db -15,-49,37
  567 D2:1468 FF FF 07 00 
              9E FF -  -  .dw -1,7,-98
  568 D2:146E ED C4 FB -  .db -19,-60,-5
  569 D2:1471 0E 00 07 00 
              C9 FF -  -  .dw 14,7,-55
  570 D2:1477 33 DB F9 -  .db 51,-37,-7
  571 D2:147A 10 00 07 00 
              F7 FF -  -  .dw 16,7,-9
  572 D2:1480 2E DF E5 -  .db 46,-33,-27
  573 D2:1483 06 00 0A 00 
              9E FF -  -  .dw 6,10,-98
  574 D2:1489 2E 21 E4 -  .db 46,33,-28
  575 D2:148C FB FF 0B 00 
              98 FF -  -  .dw -5,11,-104
  576 D2:1492 33 25 F7 -  .db 51,37,-9
  577 D2:1495 03 00 10 00 
              98 FF -  -  .dw 3,16,-104
  578 D2:149B 2B 1E 23 -  .db 43,30,35
  579 D2:149E F6 FF 10 00 
              9E FF -  -  .dw -10,16,-98
  580 D2:14A4 F0 32 24 -  .db -16,50,36
  581 D2:14A7 EF FF 11 00 
              C9 FF -  -  .dw -17,17,-55
  582 D2:14AD EC 3C F7 -  .db -20,60,-9
  583 D2:14B0 EF FF 13 00 
              F8 FF -  -  .dw -17,19,-8
  584 D2:14B6 E4 32 1A -  .db -28,50,26
  585 D2:14B9 FB FF 15 00 
              98 FF -  -  .dw -5,21,-104
  586 D2:14BF 22 2E 1A -  .db 34,46,26
  587 D2:14C2 06 00 15 00 
              9E FF -  -  .dw 6,21,-98
  588 D2:14C8 20 29 DC -  .db 32,41,-36
  589 D2:14CB FE FF 18 00 
              9E FF -  -  .dw -2,24,-98
  590 D2:14D1 EC 31 DD -  .db -20,49,-35
  591 D2:14D4 0E 00 1C 00 
              C9 FF -  -  .dw 14,28,-55
  592 D2:14DA 2A E5 27 -  .db 42,-27,39
  593 D2:14DD 10 00 1F 00 
              F7 FF -  -  .dw 16,31,-9
  594 D2:14E3 D7 E9 2A -  .db -41,-23,42
  595 D2:14E6 09 00 20 00 
              D5 FF -  -  .dw 9,32,-43
  596 D2:14EC 1F 01 C9 -  .db 31,1,-55
  597 D2:14EF FB FF 22 00 
              C9 FF -  -  .dw -5,34,-55
  598 D2:14F5 E6 DD D2 -  .db -26,-35,-46
  599 D2:14F8 F9 FF 22 00 
              D4 FF -  -  .dw -7,34,-44
  600 D2:14FE F8 C5 EA -  .db -8,-59,-22
  601 D2:1501 0E 00 24 00 
              00 00 -  -  .dw 14,36,0
  602 D2:1507 F7 3A E9 -  .db -9,58,-23
  603 D2:150A FA FF 26 00 
              00 00 -  -  .dw -6,38,0
  604 D2:1510 E7 22 D1 -  .db -25,34,-47
  605 D2:1513 FC FF 26 00 
              F8 FF -  -  .dw -4,38,-8
  606 D2:1519 C3 00 EE -  .db -61,0,-18
  607 D2:151C 07 00 28 00 
              D7 FF -  -  .dw 7,40,-41
  608 D2:1522 C1 00 FB -  .db -63,0,-5
  609 D2:1525 FD FF 29 00 
              D7 FF -  -  .dw -3,41,-41
  610 D2:152B CD 01 26 -  .db -51,1,38
  611 D2:152E 0A 00 2F 00 
              FD FF -  -  .dw 10,47,-3
  612 D2:1534 25 E0 D8 -  .db 37,-32,-40
  613 D2:1537 FC FF 31 00 
              FD FF -  -  .dw -4,49,-3
  614 D2:153D D5 EA D7 -  .db -43,-22,-41
  615 D2:1540 00 80 -  -  .dw VX_ANIMATION_BONE
  616 D2:1542 13 -  -  -  .db 19
  617 D2:1543 3E 03 F2 -  .db 62,3,-14
  618 D2:1546 0E FF 3E -  .db 14,-1,62
  619 D2:1549 FD 3F 02 -  .db -3,63,2
  620 D2:154C FF FF D7 00 
              01 00 -  -  .dw -1,215,1
  621 D2:1552 3C 05 EE -  .db 60,5,-18
  622 D2:1555 12 00 3D -  .db 18,0,61
  623 D2:1558 FB 3F 02 -  .db -5,63,2
  624 D2:155B FB FF D6 00 
              01 00 -  -  .dw -5,214,1
  625 D2:1561 39 05 E5 -  .db 57,5,-27
  626 D2:1564 1B 00 39 -  .db 27,0,57
  627 D2:1567 FC 3F 02 -  .db -4,63,2
  628 D2:156A EA FF D0 00 
              00 00 -  -  .dw -22,208,0
  629 D2:1570 33 03 DA -  .db 51,3,-38
  630 D2:1573 26 FF 33 -  .db 38,-1,51
  631 D2:1576 FF 3F 03 -  .db -1,63,3
  632 D2:1579 CE FF C4 00 
              00 00 -  -  .dw -50,196,0
  633 D2:157F 2E 00 D4 -  .db 46,0,-44
  634 D2:1582 2C FF 2E -  .db 44,-1,46
  635 D2:1585 00 3F 01 -  .db 0,63,1
  636 D2:1588 BC FF BC 00 
              FE FF -  -  .dw -68,188,-2
  637 D2:158E 2E 00 D4 -  .db 46,0,-44
  638 D2:1591 2C FF 2E -  .db 44,-1,46
  639 D2:1594 01 3F 01 -  .db 1,63,1
  640 D2:1597 B1 FF BE 00 
              FC FF -  -  .dw -79,190,-4
  641 D2:159D 33 00 DA -  .db 51,0,-38
  642 D2:15A0 26 FF 33 -  .db 38,-1,51
  643 D2:15A3 01 3F 01 -  .db 1,63,1
  644 D2:15A6 B0 FF C8 00 
              FD FF -  -  .dw -80,200,-3
  645 D2:15AC 37 00 E1 -  .db 55,0,-31
  646 D2:15AF 1F FF 37 -  .db 31,-1,55
  647 D2:15B2 00 3F 01 -  .db 0,63,1
  648 D2:15B5 B0 FF D4 00 
              FD FF -  -  .dw -80,212,-3
  649 D2:15BB 3E FF F2 -  .db 62,-1,-14
  650 D2:15BE 0E 00 3E -  .db 14,0,62
  651 D2:15C1 01 3F 00 -  .db 1,63,0
  652 D2:15C4 C5 FF DF 00 
              FD FF -  -  .dw -59,223,-3
  653 D2:15CA 3F FD 0A -  .db 63,-3,10
  654 D2:15CD F6 FF 3F -  .db -10,-1,63
  655 D2:15D0 03 3F 01 -  .db 3,63,1
  656 D2:15D3 EB FF DC 00 
              FD FF -  -  .dw -21,220,-3
  657 D2:15D9 3D FC 12 -  .db 61,-4,18
  658 D2:15DC EE 00 3D -  .db -18,0,61
  659 D2:15DF 04 3F 01 -  .db 4,63,1
  660 D2:15E2 FA FF D5 00 
              FE FF -  -  .dw -6,213,-2
  661 D2:15E8 3D FA 10 -  .db 61,-6,16
  662 D2:15EB F0 00 3D -  .db -16,0,61
  663 D2:15EE 06 3F 00 -  .db 6,63,0
  664 D2:15F1 F9 FF D5 00 
              FE FF -  -  .dw -7,213,-2
  665 D2:15F7 3E F8 08 -  .db 62,-8,8
  666 D2:15FA F8 00 3F -  .db -8,0,63
  667 D2:15FD 08 3F 00 -  .db 8,63,0
  668 D2:1600 F0 FF D8 00 
              FD FF -  -  .dw -16,216,-3
  669 D2:1606 3F F9 03 -  .db 63,-7,3
  670 D2:1609 FD 00 3F -  .db -3,0,63
  671 D2:160C 07 3F 01 -  .db 7,63,1
  672 D2:160F EC FF D8 00 
              FE FF -  -  .dw -20,216,-2
  673 D2:1615 3F FA 00 -  .db 63,-6,0
  674 D2:1618 00 FF 3F -  .db 0,-1,63
  675 D2:161B 06 3F 01 -  .db 6,63,1
  676 D2:161E F1 FF D8 00 
              FF FF -  -  .dw -15,216,-1
  677 D2:1624 3F FC 00 -  .db 63,-4,0
  678 D2:1627 00 FF 3F -  .db 0,-1,63
  679 D2:162A 04 3F 01 -  .db 4,63,1
  680 D2:162D FA FF D9 00 
              00 00 -  -  .dw -6,217,0
  681 D2:1633 3F FD FB -  .db 63,-3,-5
  682 D2:1636 05 FE 3F -  .db 5,-2,63
  683 D2:1639 03 3F 01 -  .db 3,63,1
  684 D2:163C FD FF DA 00 
              00 00 -  -  .dw -3,218,0
  685 D2:1642 3F 00 F7 -  .db 63,0,-9
  686 D2:1645 09 FF 3F -  .db 9,-1,63
  687 D2:1648 00 3F 01 -  .db 0,63,1
  688 D2:164B 00 00 DA 00 
              00 00 -  -  .dw 0,218,0
  689 D2:1651 3E 01 F4 -  .db 62,1,-12
  690 D2:1654 0C FF 3E -  .db 12,-1,62
  691 D2:1657 FF 3F 02 -  .db -1,63,2
  692 D2:165A FF FF D9 00 
              01 00 -  -  .dw -1,217,1
  693 D2:1660 02 00 01 00 
              7A FF -  -  .dw 2,1,-134
  694 D2:1666 21 1A 30 -  .db 33,26,48
  695 D2:1669 01 00 06 00 
              69 FF -  -  .dw 1,6,-151
  696 D2:166F 22 E6 2E -  .db 34,-26,46
  697 D2:1672 12 00 07 00 
              7F FF -  -  .dw 18,7,-129
  698 D2:1678 35 DD 05 -  .db 53,-35,5
  699 D2:167B FE FF 08 00 
              9E FF -  -  .dw -2,8,-98
  700 D2:1681 34 23 06 -  .db 52,35,6
  701 D2:1684 FE FF 08 00 
              43 FF -  -  .dw -2,8,-189
  702 D2:168A F2 2D 2A -  .db -14,45,42
  703 D2:168D 0D 00 0A 00 
              6A FF -  -  .dw 13,10,-150
  704 D2:1693 F2 D2 29 -  .db -14,-46,41
  705 D2:1696 07 00 0B 00 
              43 FF -  -  .dw 7,11,-189
  706 D2:169C 33 DE F3 -  .db 51,-34,-13
  707 D2:169F 05 00 0B 00 
              9E FF -  -  .dw 5,11,-98
  708 D2:16A5 32 24 F2 -  .db 50,36,-14
  709 D2:16A8 FD FF 0B 00 
              3E FF -  -  .dw -3,11,-194
  710 D2:16AE 2D DA E8 -  .db 45,-38,-24
  711 D2:16B1 F7 FF 0F 00 
              43 FF -  -  .dw -9,15,-189
  712 D2:16B7 2F 24 E9 -  .db 47,36,-23
  713 D2:16BA F5 FF 0F 00 
              9E FF -  -  .dw -11,15,-98
  714 D2:16C0 1F 04 C9 -  .db 31,4,-55
  715 D2:16C3 04 00 10 00 
              3E FF -  -  .dw 4,16,-194
  716 D2:16C9 EC DE CF -  .db -20,-34,-49
  717 D2:16CC F8 FF 11 00 
              69 FF -  -  .dw -8,17,-151
  718 D2:16D2 EE C5 F3 -  .db -18,-59,-13
  719 D2:16D5 F7 FF 11 00 
              7A FF -  -  .dw -9,17,-134
  720 D2:16DB EF 3C F5 -  .db -17,60,-11
  721 D2:16DE 07 00 14 00 
              43 FF -  -  .dw 7,20,-189
  722 D2:16E4 E8 26 D3 -  .db -24,38,-45
  723 D2:16E7 05 00 14 00 
              9E FF -  -  .dw 5,20,-98
  724 D2:16ED C2 FE F2 -  .db -62,-2,-14
  725 D2:16F0 FC FF 15 00 
              3E FF -  -  .dw -4,21,-194
  726 D2:16F6 F3 C2 FC -  .db -13,-62,-4
  727 D2:16F9 FE FF 17 00 
              43 FF -  -  .dw -2,23,-189
  728 D2:16FF F2 3E FF -  .db -14,62,-1
  729 D2:1702 FE FF 17 00 
              9E FF -  -  .dw -2,23,-98
  730 D2:1708 C1 00 FD -  .db -63,0,-3
  731 D2:170B 0D 00 18 00 
              6A FF -  -  .dw 13,24,-150
  732 D2:1711 CB 00 23 -  .db -53,0,35
  733 D2:1714 12 00 1A 00 
              7F FF -  -  .dw 18,26,-129
  734 D2:171A F2 C3 F9 -  .db -14,-61,-7
  735 D2:171D 01 00 1C 00 
              69 FF -  -  .dw 1,28,-151
  736 D2:1723 F1 3D F7 -  .db -15,61,-9
  737 D2:1726 02 00 20 00 
              7A FF -  -  .dw 2,32,-134
  738 D2:172C C1 00 00 -  .db -63,0,0
  739 D2:172F 00 80 -  -  .dw VX_ANIMATION_BONE
  740 D2:1731 13 -  -  -  .db 19
  741 D2:1732 3F 03 FF -  .db 63,3,-1
  742 D2:1735 01 FF 3F -  .db 1,-1,63
  743 D2:1738 FD 3F 01 -  .db -3,63,1
  744 D2:173B 25 00 DC 00 
              FF FF -  -  .dw 37,220,-1
  745 D2:1741 3F 05 F8 -  .db 63,5,-8
  746 D2:1744 09 00 3F -  .db 9,0,63
  747 D2:1747 FB 3F 01 -  .db -5,63,1
  748 D2:174A 17 00 DC 00 
              FF FF -  -  .dw 23,220,-1
  749 D2:1750 3D 05 EE -  .db 61,5,-18
  750 D2:1753 12 00 3D -  .db 18,0,61
  751 D2:1756 FC 3F 02 -  .db -4,63,2
  752 D2:1759 03 00 DA 00 
              FF FF -  -  .dw 3,218,-1
  753 D2:175F 39 03 E4 -  .db 57,3,-28
  754 D2:1762 1C FF 39 -  .db 28,-1,57
  755 D2:1765 FF 3F 03 -  .db -1,63,3
  756 D2:1768 EB FF D5 00 
              FF FF -  -  .dw -21,213,-1
  757 D2:176E 2E 00 D4 -  .db 46,0,-44
  758 D2:1771 2C FF 2E -  .db 44,-1,46
  759 D2:1774 00 3F 01 -  .db 0,63,1
  760 D2:1777 BC FF BC 00 
              FE FF -  -  .dw -68,188,-2
  761 D2:177D 2C 00 D3 -  .db 44,0,-45
  762 D2:1780 2D FF 2C -  .db 45,-1,44
  763 D2:1783 01 3F 01 -  .db 1,63,1
  764 D2:1786 AC FF B9 00 
              FC FF -  -  .dw -84,185,-4
  765 D2:178C 36 00 DF -  .db 54,0,-33
  766 D2:178F 21 FF 36 -  .db 33,-1,54
  767 D2:1792 00 3F 01 -  .db 0,63,1
  768 D2:1795 BD FF D1 00 
              FD FF -  -  .dw -67,209,-3
  769 D2:179B 3A 00 E7 -  .db 58,0,-25
  770 D2:179E 19 FF 3A -  .db 25,-1,58
  771 D2:17A1 00 3F 01 -  .db 0,63,1
  772 D2:17A4 C1 FF DC 00 
              FD FF -  -  .dw -63,220,-3
  773 D2:17AA 3F FF F7 -  .db 63,-1,-9
  774 D2:17AD 09 00 3F -  .db 9,0,63
  775 D2:17B0 01 3F 00 -  .db 1,63,0
  776 D2:17B3 D4 FF E2 00 
              FD FF -  -  .dw -44,226,-3
  777 D2:17B9 3E FD 0D -  .db 62,-3,13
  778 D2:17BC F3 FF 3E -  .db -13,-1,62
  779 D2:17BF 03 3F 01 -  .db 3,63,1
  780 D2:17C2 F4 FF DA 00 
              FE FF -  -  .dw -12,218,-2
  781 D2:17C8 3C FC 13 -  .db 60,-4,19
  782 D2:17CB ED 00 3C -  .db -19,0,60
  783 D2:17CE 04 3F 01 -  .db 4,63,1
  784 D2:17D1 FE FF D4 00 
              FE FF -  -  .dw -2,212,-2
  785 D2:17D7 3C FA 13 -  .db 60,-6,19
  786 D2:17DA ED 00 3C -  .db -19,0,60
  787 D2:17DD 06 3F 01 -  .db 6,63,1
  788 D2:17E0 02 00 D2 00 
              FF FF -  -  .dw 2,210,-1
  789 D2:17E6 3F F8 FF -  .db 63,-8,-1
  790 D2:17E9 01 00 3F -  .db 1,0,63
  791 D2:17EC 08 3F 00 -  .db 8,63,0
  792 D2:17EF D2 FF D9 00 
              F9 FF -  -  .dw -46,217,-7
  793 D2:17F5 3F F9 FF -  .db 63,-7,-1
  794 D2:17F8 01 00 3F -  .db 1,0,63
  795 D2:17FB 07 3F 00 -  .db 7,63,0
  796 D2:17FE DF FF D8 00 
              FC FF -  -  .dw -33,216,-4
  797 D2:1804 3F FA 00 -  .db 63,-6,0
  798 D2:1807 00 FF 3F -  .db 0,-1,63
  799 D2:180A 06 3F 01 -  .db 6,63,1
  800 D2:180D EC FF D8 00 
              FE FF -  -  .dw -20,216,-2
  801 D2:1813 3F FC 00 -  .db 63,-4,0
  802 D2:1816 00 FF 3F -  .db 0,-1,63
  803 D2:1819 04 3F 01 -  .db 4,63,1
  804 D2:181C FA FF D9 00 
              00 00 -  -  .dw -6,217,0
  805 D2:1822 3F FD FE -  .db 63,-3,-2
  806 D2:1825 01 FE 3F -  .db 1,-2,63
  807 D2:1828 03 3F 01 -  .db 3,63,1
  808 D2:182B 06 00 DB 00 
              01 00 -  -  .dw 6,219,1
  809 D2:1831 3F 00 FF -  .db 63,0,-1
  810 D2:1834 01 FF 3F -  .db 1,-1,63
  811 D2:1837 00 3F 01 -  .db 0,63,1
  812 D2:183A 16 00 DB 00 
              01 00 -  -  .dw 22,219,1
  813 D2:1840 3F 01 FF -  .db 63,1,-1
  814 D2:1843 01 FF 3F -  .db 1,-1,63
  815 D2:1846 FF 3F 01 -  .db -1,63,1
  816 D2:1849 1D 00 DC 00 
              00 00 -  -  .dw 29,220,0
  817 D2:184F EF FF 03 00 
              27 FF -  -  .dw -17,3,-217
  818 D2:1855 D5 E0 22 -  .db -43,-32,34
  819 D2:1858 EE FF 05 00 
              39 FF -  -  .dw -18,5,-199
  820 D2:185E D5 20 22 -  .db -43,32,34
  821 D2:1861 0C 00 06 00 
              38 FF -  -  .dw 12,6,-200
  822 D2:1867 D6 22 DF -  .db -42,34,-33
  823 D2:186A 0D 00 07 00 
              27 FF -  -  .dw 13,7,-217
  824 D2:1870 D7 DE DF -  .db -41,-34,-33
  825 D2:1873 D5 FF 08 00 
              28 FF -  -  .dw -43,8,-216
  826 D2:1879 FF CF D8 -  .db -1,-49,-40
  827 D2:187C F8 FF 08 00 
              41 FF -  -  .dw -8,8,-191
  828 D2:1882 FC 31 D8 -  .db -4,49,-40
  829 D2:1885 08 00 08 00 
              42 FF -  -  .dw 8,8,-190
  830 D2:188B 28 22 DD -  .db 40,34,-35
  831 D2:188E D6 FF 09 00 
              31 FF -  -  .dw -42,9,-207
  832 D2:1894 28 DE DD -  .db 40,-34,-35
  833 D2:1897 D6 FF 15 00 
              31 FF -  -  .dw -42,21,-207
  834 D2:189D EE E0 34 -  .db -18,-32,52
  835 D2:18A0 D5 FF 16 00 
              28 FF -  -  .dw -43,22,-216
  836 D2:18A6 1E DF 2D -  .db 30,-33,45
  837 D2:18A9 F8 FF 16 00 
              41 FF -  -  .dw -8,22,-191
  838 D2:18AF 1D 22 2C -  .db 29,34,44
  839 D2:18B2 08 00 16 00 
              42 FF -  -  .dw 8,22,-190
  840 D2:18B8 F0 22 32 -  .db -16,34,50
  841 D2:18BB 0D 00 16 00 
              27 FF -  -  .dw 13,22,-217
  842 D2:18C1 2C 2C 0B -  .db 44,44,11
  843 D2:18C4 0C 00 17 00 
              38 FF -  -  .dw 12,23,-200
  844 D2:18CA 2D D4 0A -  .db 45,-44,10
  845 D2:18CD EE FF 18 00 
              39 FF -  -  .dw -18,24,-199
  846 D2:18D3 EF 2F 26 -  .db -17,47,38
  847 D2:18D6 EA FF 1A 00 
              27 FF -  -  .dw -22,26,-217
  848 D2:18DC EE D1 26 -  .db -18,-47,38
  849 D2:18DF 00 80 -  -  .dw VX_ANIMATION_BONE
  850 D2:18E1 13 -  -  -  .db 19
  851 D2:18E2 3F FF FF -  .db 63,-1,-1
  852 D2:18E5 01 00 3F -  .db 1,0,63
  853 D2:18E8 01 3F 00 -  .db 1,63,0
  854 D2:18EB 00 00 D6 00 
              00 00 -  -  .dw 0,214,0
  855 D2:18F1 3F FD FF -  .db 63,-3,-1
  856 D2:18F4 01 01 3F -  .db 1,1,63
  857 D2:18F7 03 3F FF -  .db 3,63,-1
  858 D2:18FA FD FF D5 00 
              01 00 -  -  .dw -3,213,1
  859 D2:1900 3F FD FE -  .db 63,-3,-2
  860 D2:1903 02 01 3F -  .db 2,1,63
  861 D2:1906 03 3F FF -  .db 3,63,-1
  862 D2:1909 FB FF D5 00 
              01 00 -  -  .dw -5,213,1
  863 D2:190F 3F FE FF -  .db 63,-2,-1
  864 D2:1912 02 01 3F -  .db 2,1,63
  865 D2:1915 02 3F FF -  .db 2,63,-1
  866 D2:1918 FB FF D5 00 
              00 00 -  -  .dw -5,213,0
  867 D2:191E 3F 00 FF -  .db 63,0,-1
  868 D2:1921 01 01 3F -  .db 1,1,63
  869 D2:1924 00 3F FF -  .db 0,63,-1
  870 D2:1927 FC FF D6 00 
              00 00 -  -  .dw -4,214,0
  871 D2:192D 3F 00 FF -  .db 63,0,-1
  872 D2:1930 01 01 3F -  .db 1,1,63
  873 D2:1933 00 3F FF -  .db 0,63,-1
  874 D2:1936 FE FF D6 00 
              FE FF -  -  .dw -2,214,-2
  875 D2:193C 3F 00 FF -  .db 63,0,-1
  876 D2:193F 01 01 3F -  .db 1,1,63
  877 D2:1942 00 3F FF -  .db 0,63,-1
  878 D2:1945 00 00 D7 00 
              FE FF -  -  .dw 0,215,-2
  879 D2:194B 3F 00 FF -  .db 63,0,-1
  880 D2:194E 01 00 3F -  .db 1,0,63
  881 D2:1951 00 3F 00 -  .db 0,63,0
  882 D2:1954 01 00 D8 00 
              FE FF -  -  .dw 1,216,-2
  883 D2:195A 3F 00 FF -  .db 63,0,-1
  884 D2:195D 01 00 3F -  .db 1,0,63
  885 D2:1960 00 3F 00 -  .db 0,63,0
  886 D2:1963 00 00 D7 00 
              FE FF -  -  .dw 0,215,-2
  887 D2:1969 3F 00 FE -  .db 63,0,-2
  888 D2:196C 02 00 3F -  .db 2,0,63
  889 D2:196F 00 3F 00 -  .db 0,63,0
  890 D2:1972 FE FF D5 00 
              FE FF -  -  .dw -2,213,-2
  891 D2:1978 3F 02 FF -  .db 63,2,-1
  892 D2:197B 01 00 3F -  .db 1,0,63
  893 D2:197E FE 3F 00 -  .db -2,63,0
  894 D2:1981 FC FF D3 00 
              FD FF -  -  .dw -4,211,-3
  895 D2:1987 3F 03 FE -  .db 63,3,-2
  896 D2:198A 02 FF 3F -  .db 2,-1,63
  897 D2:198D FD 3F 01 -  .db -3,63,1
  898 D2:1990 FC FF D3 00 
              FD FF -  -  .dw -4,211,-3
  899 D2:1996 3F 01 FF -  .db 63,1,-1
  900 D2:1999 01 FF 3F -  .db 1,-1,63
  901 D2:199C FF 3F 01 -  .db -1,63,1
  902 D2:199F FD FF D3 00 
              FC FF -  -  .dw -3,211,-4
  903 D2:19A5 3F 01 FF -  .db 63,1,-1
  904 D2:19A8 01 FF 3F -  .db 1,-1,63
  905 D2:19AB FF 3F 01 -  .db -1,63,1
  906 D2:19AE FD FF D3 00 
              FD FF -  -  .dw -3,211,-3
  907 D2:19B4 3F 01 FF -  .db 63,1,-1
  908 D2:19B7 01 FE 3F -  .db 1,-2,63
  909 D2:19BA FF 3F 02 -  .db -1,63,2
  910 D2:19BD FF FF D5 00 
              FD FF -  -  .dw -1,213,-3
  911 D2:19C3 3F 00 FF -  .db 63,0,-1
  912 D2:19C6 01 FE 3F -  .db 1,-2,63
  913 D2:19C9 00 3F 02 -  .db 0,63,2
  914 D2:19CC 00 00 D7 00 
              FE FF -  -  .dw 0,215,-2
  915 D2:19D2 3F FF FF -  .db 63,-1,-1
  916 D2:19D5 01 FF 3F -  .db 1,-1,63
  917 D2:19D8 01 3F 01 -  .db 1,63,1
  918 D2:19DB 02 00 D9 00 
              00 00 -  -  .dw 2,217,0
  919 D2:19E1 3F FF FF -  .db 63,-1,-1
  920 D2:19E4 01 00 3F -  .db 1,0,63
  921 D2:19E7 01 3F 00 -  .db 1,63,0
  922 D2:19EA 02 00 D9 00 
              00 00 -  -  .dw 2,217,0
  923 D2:19F0 3F FF FF -  .db 63,-1,-1
  924 D2:19F3 01 00 3F -  .db 1,0,63
  925 D2:19F6 01 3F 00 -  .db 1,63,0
  926 D2:19F9 01 00 D8 00 
              00 00 -  -  .dw 1,216,0
  927 D2:19FF EA FF E4 FF 
              49 00 -  -  .dw -22,-28,73
  928 D2:1A05 DA D6 E5 -  .db -38,-42,-27
  929 D2:1A08 F1 FF E5 FF 
              48 00 -  -  .dw -15,-27,72
  930 D2:1A0E DA 2A E5 -  .db -38,42,-27
  931 D2:1A11 F9 FF E6 FF 
              61 00 -  -  .dw -7,-26,97
  932 D2:1A17 25 2B E4 -  .db 37,43,-28
  933 D2:1A1A 09 00 E6 FF 
              61 00 -  -  .dw 9,-26,97
  934 D2:1A20 25 D5 E4 -  .db 37,-43,-28
  935 D2:1A23 F2 FF E6 FF 
              55 00 -  -  .dw -14,-26,85
  936 D2:1A29 DE 23 28 -  .db -34,35,40
  937 D2:1A2C E8 FF E8 FF 
              42 00 -  -  .dw -24,-24,66
  938 D2:1A32 D6 12 2C -  .db -42,18,44
  939 D2:1A35 E4 FF E8 FF 
              4B 00 -  -  .dw -28,-24,75
  940 D2:1A3B D6 EF 2C -  .db -42,-17,44
  941 D2:1A3E EC FF E8 FF 
              52 00 -  -  .dw -20,-24,82
  942 D2:1A44 DE DD 28 -  .db -34,-35,40
  943 D2:1A47 EF FF E9 FF 
              3F 00 -  -  .dw -17,-23,63
  944 D2:1A4D 22 DF 2A -  .db 34,-33,42
  945 D2:1A50 E1 FF EA FF 
              47 00 -  -  .dw -31,-22,71
  946 D2:1A56 22 21 2A -  .db 34,33,42
  947 D2:1A59 14 00 EA FF 
              4B 00 -  -  .dw 20,-22,75
  948 D2:1A5F 33 E7 1C -  .db 51,-25,28
  949 D2:1A62 E7 FF EA FF 
              51 00 -  -  .dw -25,-22,81
  950 D2:1A68 31 1A 1E -  .db 49,26,30
  951 D2:1A6B 0D 00 EC FF 
              3C 00 -  -  .dw 13,-20,60
  952 D2:1A71 27 2A E6 -  .db 39,42,-26
  953 D2:1A74 13 00 ED FF 
              3C 00 -  -  .dw 19,-19,60
  954 D2:1A7A 26 D4 E7 -  .db 38,-44,-25
  955 D2:1A7D 18 00 EE FF 
              5D 00 -  -  .dw 24,-18,93
  956 D2:1A83 2F D6 00 -  .db 47,-42,0
  957 D2:1A86 0B 00 EE FF 
              61 00 -  -  .dw 11,-18,97
  958 D2:1A8C 2F 2A 01 -  .db 47,42,1
  959 D2:1A8F 0F 00 EE FF 
              62 00 -  -  .dw 15,-18,98
  960 D2:1A95 D3 DA E9 -  .db -45,-38,-23
  961 D2:1A98 1A 00 EE FF 
              45 00 -  -  .dw 26,-18,69
  962 D2:1A9E D2 25 E9 -  .db -46,37,-23
  963 D2:1AA1 F2 FF EF FF 
              19 00 -  -  .dw -14,-17,25
  964 D2:1AA7 D3 2D 00 -  .db -45,45,0
  965 D2:1AAA 05 00 EF FF 
              19 00 -  -  .dw 5,-17,25
  966 D2:1AB0 D3 D3 00 -  .db -45,-45,0
  967 D2:1AB3 E0 FF EF FF 
              4D 00 -  -  .dw -32,-17,77
  968 D2:1AB9 D2 05 2B -  .db -46,5,43
  969 D2:1ABC 06 00 F0 FF 
              2E 00 -  -  .dw 6,-16,46
  970 D2:1AC2 D3 FB 2C -  .db -45,-5,44
  971 D2:1AC5 EF FF F0 FF 
              30 00 -  -  .dw -17,-16,48
  972 D2:1ACB CC F4 DF -  .db -52,-12,-33
  973 D2:1ACE ED FF F1 FF 
              3B 00 -  -  .dw -19,-15,59
  974 D2:1AD4 CB 09 DF -  .db -53,9,-33
  975 D2:1AD7 E8 FF F1 FF 
              53 00 -  -  .dw -24,-15,83
  976 D2:1ADD DE F9 35 -  .db -34,-7,53
  977 D2:1AE0 ED FF F1 FF 
              56 00 -  -  .dw -19,-15,86
  978 D2:1AE6 DE 07 35 -  .db -34,7,53
  979 D2:1AE9 E7 FF F1 FF 
              3F 00 -  -  .dw -25,-15,63
  980 D2:1AEF C8 0C 1C -  .db -56,12,28
  981 D2:1AF2 E0 FF F1 FF 
              45 00 -  -  .dw -32,-15,69
  982 D2:1AF8 C8 F4 1B -  .db -56,-12,27
  983 D2:1AFB 04 00 F3 FF 
              23 00 -  -  .dw 4,-13,35
  984 D2:1B01 C7 07 E5 -  .db -57,7,-27
  985 D2:1B04 F4 FF F3 FF 
              24 00 -  -  .dw -12,-13,36
  986 D2:1B0A C7 F9 E5 -  .db -57,-7,-27
  987 D2:1B0D F1 FF F4 FF 
              5A 00 -  -  .dw -15,-12,90
  988 D2:1B13 DC F5 32 -  .db -36,-11,50
  989 D2:1B16 0B 00 F6 FF 
              66 00 -  -  .dw 11,-10,102
  990 D2:1B1C DB 0B 32 -  .db -37,11,50
  991 D2:1B1F FB FF F9 FF 
              64 00 -  -  .dw -5,-7,100
  992 D2:1B25 DA 09 CF -  .db -38,9,-49
  993 D2:1B28 FE FF FA FF 
              74 00 -  -  .dw -2,-6,116
  994 D2:1B2E DA F7 CF -  .db -38,-9,-49
  995 D2:1B31 0A 00 FA FF 
              74 00 -  -  .dw 10,-6,116
  996 D2:1B37 1A 20 D0 -  .db 26,32,-48
  997 D2:1B3A FE FF 04 00 
              74 00 -  -  .dw -2,4,116
  998 D2:1B40 18 DF D0 -  .db 24,-33,-48
  999 D2:1B43 0A 00 04 00 
              74 00 -  -  .dw 10,4,116
 1000 D2:1B49 14 CF DE -  .db 20,-49,-34
 1001 D2:1B4C FB FF 06 00 
              64 00 -  -  .dw -5,6,100
 1002 D2:1B52 14 33 E0 -  .db 20,51,-32
 1003 D2:1B55 0B 00 09 00 
              66 00 -  -  .dw 11,9,102
 1004 D2:1B5B 35 1E F0 -  .db 53,30,-16
 1005 D2:1B5E F1 FF 0A 00 
              5A 00 -  -  .dw -15,10,90
 1006 D2:1B64 35 E2 F0 -  .db 53,-30,-16
 1007 D2:1B67 E7 FF 0C 00 
              3F 00 -  -  .dw -25,12,63
 1008 D2:1B6D 2C 23 1D -  .db 44,35,29
 1009 D2:1B70 E0 FF 0C 00 
              45 00 -  -  .dw -32,12,69
 1010 D2:1B76 2C DD 1D -  .db 44,-35,29
 1011 D2:1B79 E8 FF 0C 00 
              53 00 -  -  .dw -24,12,83
 1012 D2:1B7F 0A 25 32 -  .db 10,37,50
 1013 D2:1B82 ED FF 0C 00 
              56 00 -  -  .dw -19,12,86
 1014 D2:1B88 0A DB 32 -  .db 10,-37,50
 1015 D2:1B8B ED FF 0D 00 
              3B 00 -  -  .dw -19,13,59
 1016 D2:1B91 27 20 26 -  .db 39,32,38
 1017 D2:1B94 04 00 0D 00 
              23 00 -  -  .dw 4,13,35
 1018 D2:1B9A 2A E1 23 -  .db 42,-31,35
 1019 D2:1B9D F4 FF 0D 00 
              24 00 -  -  .dw -12,13,36
 1020 D2:1BA3 F8 CC DC -  .db -8,-52,-36
 1021 D2:1BA6 E0 FF 0F 00 
              4D 00 -  -  .dw -32,15,77
 1022 D2:1BAC F3 35 E1 -  .db -13,53,-31
 1023 D2:1BAF 06 00 0F 00 
              2E 00 -  -  .dw 6,15,46
 1024 D2:1BB5 05 C2 F6 -  .db 5,-62,-10
 1025 D2:1BB8 EF FF 0F 00 
              30 00 -  -  .dw -17,15,48
 1026 D2:1BBE 1E D1 1E -  .db 30,-47,30
 1027 D2:1BC1 F2 FF 11 00 
              19 00 -  -  .dw -14,17,25
 1028 D2:1BC7 E8 D6 28 -  .db -24,-42,40
 1029 D2:1BCA 05 00 11 00 
              19 00 -  -  .dw 5,17,25
 1030 D2:1BD0 04 3F FA -  .db 4,63,-6
 1031 D2:1BD3 1A 00 12 00 
              45 00 -  -  .dw 26,18,69
 1032 D2:1BD9 E8 2B 28 -  .db -24,43,40
 1033 D2:1BDC 18 00 12 00 
              5D 00 -  -  .dw 24,18,93
 1034 D2:1BE2 1C 2F 20 -  .db 28,47,32
 1035 D2:1BE5 0B 00 12 00 
              61 00 -  -  .dw 11,18,97
 1036 D2:1BEB D9 2A 19 -  .db -39,42,25
 1037 D2:1BEE 0F 00 12 00 
              62 00 -  -  .dw 15,18,98
 1038 D2:1BF4 E0 CF 18 -  .db -32,-49,24
 1039 D2:1BF7 13 00 13 00 
              3C 00 -  -  .dw 19,19,60
 1040 D2:1BFD E2 1C 30 -  .db -30,28,48
 1041 D2:1C00 E1 FF 13 00 
              47 00 -  -  .dw -31,19,71
 1042 D2:1C06 DA 2F 12 -  .db -38,47,18
 1043 D2:1C09 E7 FF 13 00 
              51 00 -  -  .dw -25,19,81
 1044 D2:1C0F CC 1F F0 -  .db -52,31,-16
 1045 D2:1C12 0D 00 14 00 
              3C 00 -  -  .dw 13,20,60
 1046 D2:1C18 E7 2D 25 -  .db -25,45,37
 1047 D2:1C1B 14 00 16 00 
              4B 00 -  -  .dw 20,22,75
 1048 D2:1C21 F6 3F 03 -  .db -10,63,3
 1049 D2:1C24 EF FF 16 00 
              3F 00 -  -  .dw -17,22,63
 1050 D2:1C2A E2 2A DC -  .db -30,42,-36
 1051 D2:1C2D E8 FF 16 00 
              42 00 -  -  .dw -24,22,66
 1052 D2:1C33 E2 E4 30 -  .db -30,-28,48
 1053 D2:1C36 E4 FF 16 00 
              4B 00 -  -  .dw -28,22,75
 1054 D2:1C3C DA D1 12 -  .db -38,-47,18
 1055 D2:1C3F EC FF 16 00 
              52 00 -  -  .dw -20,22,82
 1056 D2:1C45 CC E1 F0 -  .db -52,-31,-16
 1057 D2:1C48 F2 FF 17 00 
              55 00 -  -  .dw -14,23,85
 1058 D2:1C4E E5 D3 24 -  .db -27,-45,36
 1059 D2:1C51 F1 FF 18 00 
              48 00 -  -  .dw -15,24,72
 1060 D2:1C57 F7 C1 02 -  .db -9,-63,2
 1061 D2:1C5A F9 FF 19 00 
              61 00 -  -  .dw -7,25,97
 1062 D2:1C60 E5 D5 DB -  .db -27,-43,-37
 1063 D2:1C63 09 00 19 00 
              61 00 -  -  .dw 9,25,97
 1064 D2:1C69 07 C1 00 -  .db 7,-63,0
 1065 D2:1C6C EA FF 1A 00 
              49 00 -  -  .dw -22,26,73
 1066 D2:1C72 08 3F 00 -  .db 8,63,0
 1067 D2:1C75 00 80 -  -  .dw VX_ANIMATION_BONE
 1068 D2:1C77 13 -  -  -  .db 19
 1069 D2:1C78 3A EA 0B -  .db 58,-22,11
 1070 D2:1C7B F8 07 3E -  .db -8,7,62
 1071 D2:1C7E 17 3B FD -  .db 23,59,-3
 1072 D2:1C81 F7 FF D4 00 
              07 00 -  -  .dw -9,212,7
 1073 D2:1C87 33 DE 10 -  .db 51,-34,16
 1074 D2:1C8A F6 0D 3D -  .db -10,13,61
 1075 D2:1C8D 25 33 FC -  .db 37,51,-4
 1076 D2:1C90 F1 FF D4 00 
              0B 00 -  -  .dw -15,212,11
 1077 D2:1C96 34 DF 0F -  .db 52,-33,15
 1078 D2:1C99 F6 0C 3D -  .db -10,12,61
 1079 D2:1C9C 23 34 FC -  .db 35,52,-4
 1080 D2:1C9F EF FF D3 00 
              0A 00 -  -  .dw -17,211,10
 1081 D2:1CA5 3B EB 0B -  .db 59,-21,11
 1082 D2:1CA8 F7 08 3E -  .db -9,8,62
 1083 D2:1CAB 16 3B FB -  .db 22,59,-5
 1084 D2:1CAE F0 FF D4 00 
              07 00 -  -  .dw -16,212,7
 1085 D2:1CB4 3D F0 08 -  .db 61,-16,8
 1086 D2:1CB7 FA 09 3F -  .db -6,9,63
 1087 D2:1CBA 11 3D F9 -  .db 17,61,-7
 1088 D2:1CBD F5 FF D4 00 
              07 00 -  -  .dw -11,212,7
 1089 D2:1CC3 3E F3 04 -  .db 62,-13,4
 1090 D2:1CC6 FE 0A 3F -  .db -2,10,63
 1091 D2:1CC9 0E 3D F7 -  .db 14,61,-9
 1092 D2:1CCC FB FF D4 00 
              0A 00 -  -  .dw -5,212,10
 1093 D2:1CD2 3F F6 00 -  .db 63,-10,0
 1094 D2:1CD5 02 0D 3E -  .db 2,13,62
 1095 D2:1CD8 0A 3D F3 -  .db 10,61,-13
 1096 D2:1CDB 01 00 D4 00 
              10 00 -  -  .dw 1,212,16
 1097 D2:1CE1 3F FE F8 -  .db 63,-2,-8
 1098 D2:1CE4 08 0E 3D -  .db 8,14,61
 1099 D2:1CE7 00 3E F2 -  .db 0,62,-14
 1100 D2:1CEA 0B 00 D5 00 
              12 00 -  -  .dw 11,213,18
 1101 D2:1CF0 3D 04 F1 -  .db 61,4,-15
 1102 D2:1CF3 0E 0D 3C -  .db 14,13,60
 1103 D2:1CF6 F9 3E F4 -  .db -7,62,-12
 1104 D2:1CF9 12 00 D6 00 
              0F 00 -  -  .dw 18,214,15
 1105 D2:1CFF 3B 0A EC -  .db 59,10,-20
 1106 D2:1D02 12 0A 3C -  .db 18,10,60
 1107 D2:1D05 F4 3E F9 -  .db -12,62,-7
 1108 D2:1D08 13 00 D6 00 
              08 00 -  -  .dw 19,214,8
 1109 D2:1D0E 38 16 EB -  .db 56,22,-21
 1110 D2:1D11 13 09 3C -  .db 19,9,60
 1111 D2:1D14 E8 3B FF -  .db -24,59,-1
 1112 D2:1D17 0E 00 D4 00 
              02 00 -  -  .dw 14,212,2
 1113 D2:1D1D 37 18 EC -  .db 55,24,-20
 1114 D2:1D20 13 07 3C -  .db 19,7,60
 1115 D2:1D23 E7 3A 01 -  .db -25,58,1
 1116 D2:1D26 0C 00 D4 00 
              00 00 -  -  .dw 12,212,0
 1117 D2:1D2C 3A 10 ED -  .db 58,16,-19
 1118 D2:1D2F 12 05 3C -  .db 18,5,60
 1119 D2:1D32 EF 3D 00 -  .db -17,61,0
 1120 D2:1D35 0F 00 D4 00 
              00 00 -  -  .dw 15,212,0
 1121 D2:1D3B 3C 08 EE -  .db 60,8,-18
 1122 D2:1D3E 11 08 3C -  .db 17,8,60
 1123 D2:1D41 F6 3E FA -  .db -10,62,-6
 1124 D2:1D44 12 00 D3 00 
              08 00 -  -  .dw 18,211,8
 1125 D2:1D4A 3D 01 F0 -  .db 61,1,-16
 1126 D2:1D4D 0F 0C 3C -  .db 15,12,60
 1127 D2:1D50 FC 3E F4 -  .db -4,62,-12
 1128 D2:1D53 12 00 D3 00 
              11 00 -  -  .dw 18,211,17
 1129 D2:1D59 3F FD F6 -  .db 63,-3,-10
 1130 D2:1D5C 0A 0E 3D -  .db 10,14,61
 1131 D2:1D5F 00 3E F1 -  .db 0,62,-15
 1132 D2:1D62 0E 00 D3 00 
              16 00 -  -  .dw 14,211,22
 1133 D2:1D68 3F 00 FF -  .db 63,0,-1
 1134 D2:1D6B 01 0B 3F -  .db 1,11,63
 1135 D2:1D6E 00 3F F5 -  .db 0,63,-11
 1136 D2:1D71 02 00 D5 00 
              11 00 -  -  .dw 2,213,17
 1137 D2:1D77 3F FA 05 -  .db 63,-6,5
 1138 D2:1D7A FB 07 3F -  .db -5,7,63
 1139 D2:1D7D 07 3F FA -  .db 7,63,-6
 1140 D2:1D80 FB FF D6 00 
              0A 00 -  -  .dw -5,214,10
 1141 D2:1D86 3D F2 08 -  .db 61,-14,8
 1142 D2:1D89 F9 07 3F -  .db -7,7,63
 1143 D2:1D8C 0F 3D FB -  .db 15,61,-5
 1144 D2:1D8F F9 FF D6 00 
              08 00 -  -  .dw -7,214,8
 1145 D2:1D95 FC FF 17 00 
              5D 00 -  -  .dw -4,23,93
 1146 D2:1D9B C5 13 0E -  .db -59,19,14
 1147 D2:1D9E 05 00 17 00 
              5D 00 -  -  .dw 5,23,93
 1148 D2:1DA4 C6 10 EE -  .db -58,16,-18
 1149 D2:1DA7 FD FF 19 00 
              2D 00 -  -  .dw -3,25,45
 1150 D2:1DAD DE D0 E9 -  .db -34,-48,-23
 1151 D2:1DB0 05 00 19 00 
              2D 00 -  -  .dw 5,25,45
 1152 D2:1DB6 DC D1 17 -  .db -36,-47,23
 1153 D2:1DB9 00 00 1A 00 
              60 00 -  -  .dw 0,26,96
 1154 D2:1DBF 24 D1 E9 -  .db 36,-47,-23
 1155 D2:1DC2 00 00 1C 00 
              28 00 -  -  .dw 0,28,40
 1156 D2:1DC8 24 D1 17 -  .db 36,-47,23
 1157 D2:1DCB FD FF 1F 00 
              60 00 -  -  .dw -3,31,96
 1158 D2:1DD1 39 13 EE -  .db 57,19,-18
 1159 D2:1DD4 04 00 1F 00 
              60 00 -  -  .dw 4,31,96
 1160 D2:1DDA 3A 15 0F -  .db 58,21,15
 1161 D2:1DDD F9 FF 20 00 
              5A 00 -  -  .dw -7,32,90
 1162 D2:1DE3 FF 3B E9 -  .db -1,59,-23
 1163 D2:1DE6 08 00 20 00 
              5A 00 -  -  .dw 8,32,90
 1164 D2:1DEC FF 3E 0E -  .db -1,62,14
 1165 D2:1DEF FD FF 21 00 
              28 00 -  -  .dw -3,33,40
 1166 D2:1DF5 00 E4 C7 -  .db 0,-28,-57
 1167 D2:1DF8 04 00 21 00 
              28 00 -  -  .dw 4,33,40
 1168 D2:1DFE E2 0B C9 -  .db -30,11,-55
 1169 D2:1E01 FA FF 21 00 
              2D 00 -  -  .dw -6,33,45
 1170 D2:1E07 1D 0B C9 -  .db 29,11,-55
 1171 D2:1E0A 07 00 22 00 
              2D 00 -  -  .dw 7,34,45
 1172 D2:1E10 00 E6 3A -  .db 0,-26,58
 1173 D2:1E13 00 00 26 00 
              57 00 -  -  .dw 0,38,87
 1174 D2:1E19 E2 13 34 -  .db -30,19,52
 1175 D2:1E1C 00 00 27 00 
              2C 00 -  -  .dw 0,39,44
 1176 D2:1E22 1E 13 34 -  .db 30,19,52
 1177 D2:1E25 00 80 -  -  .dw VX_ANIMATION_BONE
 1178 D2:1E27 13 -  -  -  .db 19
 1179 D2:1E28 36 EA 18 -  .db 54,-22,24
 1180 D2:1E2B EA 09 3B -  .db -22,9,59
 1181 D2:1E2E 18 3B 00 -  .db 24,59,0
 1182 D2:1E31 EE FF D6 00 
              04 00 -  -  .dw -18,214,4
 1183 D2:1E37 2D DE 1C -  .db 45,-34,28
 1184 D2:1E3A E8 0F 39 -  .db -24,15,57
 1185 D2:1E3D 25 33 01 -  .db 37,51,1
 1186 D2:1E40 E8 FF D6 00 
              06 00 -  -  .dw -24,214,6
 1187 D2:1E46 2E DF 1D -  .db 46,-33,29
 1188 D2:1E49 E7 0F 38 -  .db -25,15,56
 1189 D2:1E4C 24 34 02 -  .db 36,52,2
 1190 D2:1E4F E5 FF D6 00 
              05 00 -  -  .dw -27,214,5
 1191 D2:1E55 34 EC 1E -  .db 52,-20,30
 1192 D2:1E58 E4 0A 38 -  .db -28,10,56
 1193 D2:1E5B 17 3B 00 -  .db 23,59,0
 1194 D2:1E5E E2 FF D8 00 
              03 00 -  -  .dw -30,216,3
 1195 D2:1E64 34 F0 21 -  .db 52,-16,33
 1196 D2:1E67 E1 0B 36 -  .db -31,11,54
 1197 D2:1E6A 13 3C FF -  .db 19,60,-1
 1198 D2:1E6D E3 FF DA 00 
              03 00 -  -  .dw -29,218,3
 1199 D2:1E73 36 F3 1D -  .db 54,-13,29
 1200 D2:1E76 E5 0C 38 -  .db -27,12,56
 1201 D2:1E79 12 3D FC -  .db 18,61,-4
 1202 D2:1E7C E9 FF D8 00 
              06 00 -  -  .dw -23,216,6
 1203 D2:1E82 3B F6 13 -  .db 59,-10,19
 1204 D2:1E85 F0 0F 3B -  .db -16,15,59
 1205 D2:1E88 0E 3D F5 -  .db 14,61,-11
 1206 D2:1E8B F4 FF D5 00 
              0F 00 -  -  .dw -12,213,15
 1207 D2:1E91 3F FE 05 -  .db 63,-2,5
 1208 D2:1E94 FC 10 3D -  .db -4,16,61
 1209 D2:1E97 04 3D F0 -  .db 4,61,-16
 1210 D2:1E9A 01 00 D4 00 
              13 00 -  -  .dw 1,212,19
 1211 D2:1EA0 3F 04 FB -  .db 63,4,-5
 1212 D2:1EA3 04 10 3D -  .db 4,16,61
 1213 D2:1EA6 FB 3D F1 -  .db -5,61,-15
 1214 D2:1EA9 0B 00 D4 00 
              11 00 -  -  .dw 11,212,17
 1215 D2:1EAF 3D 09 F2 -  .db 61,9,-14
 1216 D2:1EB2 0C 0C 3D -  .db 12,12,61
 1217 D2:1EB5 F5 3E F6 -  .db -11,62,-10
 1218 D2:1EB8 0F 00 D4 00 
              0A 00 -  -  .dw 15,212,10
 1219 D2:1EBE 39 15 EE -  .db 57,21,-18
 1220 D2:1EC1 0F 0B 3D -  .db 15,11,61
 1221 D2:1EC4 E9 3B FC -  .db -23,59,-4
 1222 D2:1EC7 0D 00 D3 00 
              04 00 -  -  .dw 13,211,4
 1223 D2:1ECD 38 17 ED -  .db 56,23,-19
 1224 D2:1ED0 11 09 3C -  .db 17,9,60
 1225 D2:1ED3 E7 3A FF -  .db -25,58,-1
 1226 D2:1ED6 0C 00 D3 00 
              00 00 -  -  .dw 12,211,0
 1227 D2:1EDC 3B 0F EF -  .db 59,15,-17
 1228 D2:1EDF 0F 07 3D -  .db 15,7,61
 1229 D2:1EE2 F0 3D FD -  .db -16,61,-3
 1230 D2:1EE5 0D 00 D3 00 
              01 00 -  -  .dw 13,211,1
 1231 D2:1EEB 3E 07 F3 -  .db 62,7,-13
 1232 D2:1EEE 0B 0A 3D -  .db 11,10,61
 1233 D2:1EF1 F7 3E F8 -  .db -9,62,-8
 1234 D2:1EF4 0E 00 D1 00 
              0A 00 -  -  .dw 14,209,10
 1235 D2:1EFA 3F 00 F8 -  .db 63,0,-8
 1236 D2:1EFD 07 0F 3D -  .db 7,15,61
 1237 D2:1F00 FE 3E F2 -  .db -2,62,-14
 1238 D2:1F03 0D 00 D2 00 
              13 00 -  -  .dw 13,210,19
 1239 D2:1F09 3F FD FE -  .db 63,-3,-2
 1240 D2:1F0C 03 10 3D -  .db 3,16,61
 1241 D2:1F0F 02 3D EF -  .db 2,61,-17
 1242 D2:1F12 08 00 D2 00 
              18 00 -  -  .dw 8,210,24
 1243 D2:1F18 3F 00 06 -  .db 63,0,6
 1244 D2:1F1B FA 0D 3E -  .db -6,13,62
 1245 D2:1F1E 02 3E F3 -  .db 2,62,-13
 1246 D2:1F21 FD FF D5 00 
              12 00 -  -  .dw -3,213,18
 1247 D2:1F27 3D FA 10 -  .db 61,-6,16
 1248 D2:1F2A F1 09 3D -  .db -15,9,61
 1249 D2:1F2D 08 3E F9 -  .db 8,62,-7
 1250 D2:1F30 F3 FF D7 00 
              0B 00 -  -  .dw -13,215,11
 1251 D2:1F36 3A F2 14 -  .db 58,-14,20
 1252 D2:1F39 EE 09 3C -  .db -18,9,60
 1253 D2:1F3C 10 3D FC -  .db 16,61,-4
 1254 D2:1F3F F0 FF D7 00 
              08 00 -  -  .dw -16,215,8
 1255 D2:1F45 FE FF 19 00 
              2D 00 -  -  .dw -2,25,45
 1256 D2:1F4B CF 11 24 -  .db -49,17,36
 1257 D2:1F4E 05 00 19 00 
              2D 00 -  -  .dw 5,25,45
 1258 D2:1F54 C5 11 F0 -  .db -59,17,-16
 1259 D2:1F57 FF FF 1B 00 
              FD FF -  -  .dw -1,27,-3
 1260 D2:1F5D DD CF ED -  .db -35,-49,-19
 1261 D2:1F60 04 00 1B 00 
              FD FF -  -  .dw 4,27,-3
 1262 D2:1F66 E2 D6 24 -  .db -30,-42,36
 1263 D2:1F69 01 00 1E 00 
              F9 FF -  -  .dw 1,30,-7
 1264 D2:1F6F 24 CF ED -  .db 36,-49,-19
 1265 D2:1F72 00 00 21 00 
              F9 FF -  -  .dw 0,33,-7
 1266 D2:1F78 1E D6 24 -  .db 30,-42,36
 1267 D2:1F7B 03 00 21 00 
              F9 FF -  -  .dw 3,33,-7
 1268 D2:1F81 3A 14 F0 -  .db 58,20,-16
 1269 D2:1F84 FD FF 21 00 
              FD FF -  -  .dw -3,33,-3
 1270 D2:1F8A 31 10 25 -  .db 49,16,37
 1271 D2:1F8D 06 00 22 00 
              FD FF -  -  .dw 6,34,-3
 1272 D2:1F93 FF 3D EE -  .db -1,61,-18
 1273 D2:1F96 FB FF 22 00 
              2D 00 -  -  .dw -5,34,45
 1274 D2:1F9C 00 35 22 -  .db 0,53,34
 1275 D2:1F9F 08 00 22 00 
              2D 00 -  -  .dw 8,34,45
 1276 D2:1FA5 00 DF CA -  .db 0,-33,-54
 1277 D2:1FA8 01 00 25 00 
              FD FF -  -  .dw 1,37,-3
 1278 D2:1FAE DF 0D CC -  .db -33,13,-52
 1279 D2:1FB1 01 00 26 00 
              2C 00 -  -  .dw 1,38,44
 1280 D2:1FB7 21 0D CB -  .db 33,13,-53
 1281 D2:1FBA 00 80 -  -  .dw VX_ANIMATION_BONE
 1282 D2:1FBC 13 -  -  -  .db 19
 1283 D2:1FBD 36 F1 1D -  .db 54,-15,29
 1284 D2:1FC0 EA 19 36 -  .db -22,25,54
 1285 D2:1FC3 18 38 F0 -  .db 24,56,-16
 1286 D2:1FC6 EA FF CE 00 
              05 00 -  -  .dw -22,206,5
 1287 D2:1FCC 2D E7 25 -  .db 45,-25,37
 1288 D2:1FCF E8 1E 32 -  .db -24,30,50
 1289 D2:1FD2 25 32 F4 -  .db 37,50,-12
 1290 D2:1FD5 E4 FF CE 00 
              06 00 -  -  .dw -28,206,6
 1291 D2:1FDB 2E E9 25 -  .db 46,-23,37
 1292 D2:1FDE E7 1E 32 -  .db -25,30,50
 1293 D2:1FE1 24 33 F4 -  .db 36,51,-12
 1294 D2:1FE4 E0 FF CE 00 
              05 00 -  -  .dw -32,206,5
 1295 D2:1FEA 34 F5 23 -  .db 52,-11,35
 1296 D2:1FED E4 1A 32 -  .db -28,26,50
 1297 D2:1FF0 17 39 F0 -  .db 23,57,-16
 1298 D2:1FF3 DD FF D0 00 
              04 00 -  -  .dw -35,208,4
 1299 D2:1FF9 34 FB 24 -  .db 52,-5,36
 1300 D2:1FFC E1 1A 30 -  .db -31,26,48
 1301 D2:1FFF 13 39 ED -  .db 19,57,-19
 1302 D2:2002 DD FF D1 00 
              04 00 -  -  .dw -35,209,4
 1303 D2:2008 36 FC 20 -  .db 54,-4,32
 1304 D2:200B E5 1C 32 -  .db -27,28,50
 1305 D2:200E 12 38 EA -  .db 18,56,-22
 1306 D2:2011 E4 FF CF 00 
              08 00 -  -  .dw -28,207,8
 1307 D2:2017 3B FC 16 -  .db 59,-4,22
 1308 D2:201A F0 20 34 -  .db -16,32,52
 1309 D2:201D 0E 36 E3 -  .db 14,54,-29
 1310 D2:2020 F0 FF CC 00 
              11 00 -  -  .dw -16,204,17
 1311 D2:2026 3F 00 06 -  .db 63,0,6
 1312 D2:2029 FC 22 35 -  .db -4,34,53
 1313 D2:202C 04 36 DE -  .db 4,54,-34
 1314 D2:202F 00 00 CB 00 
              16 00 -  -  .dw 0,203,22
 1315 D2:2035 3F 02 FA -  .db 63,2,-6
 1316 D2:2038 04 21 36 -  .db 4,33,54
 1317 D2:203B FB 36 DF -  .db -5,54,-33
 1318 D2:203E 0C 00 CB 00 
              15 00 -  -  .dw 12,203,21
 1319 D2:2044 3D 04 F0 -  .db 61,4,-16
 1320 D2:2047 0C 1E 37 -  .db 12,30,55
 1321 D2:204A F5 38 E4 -  .db -11,56,-28
 1322 D2:204D 11 00 CB 00 
              0D 00 -  -  .dw 17,203,13
 1323 D2:2053 39 0F E9 -  .db 57,15,-23
 1324 D2:2056 0F 1C 37 -  .db 15,28,55
 1325 D2:2059 E9 37 EB -  .db -23,55,-21
 1326 D2:205C 10 00 CA 00 
              06 00 -  -  .dw 16,202,6
 1327 D2:2062 38 11 E7 -  .db 56,17,-25
 1328 D2:2065 11 1A 37 -  .db 17,26,55
 1329 D2:2068 E7 37 EE -  .db -25,55,-18
 1330 D2:206B 0F 00 CA 00 
              01 00 -  -  .dw 15,202,1
 1331 D2:2071 3B 0A EC -  .db 59,10,-20
 1332 D2:2074 0F 18 38 -  .db 15,24,56
 1333 D2:2077 F0 3A EC -  .db -16,58,-20
 1334 D2:207A 10 00 CA 00 
              03 00 -  -  .dw 16,202,3
 1335 D2:2080 3E 03 F2 -  .db 62,3,-14
 1336 D2:2083 0B 1B 38 -  .db 11,27,56
 1337 D2:2086 F7 39 E7 -  .db -9,57,-25
 1338 D2:2089 10 00 C9 00 
              0C 00 -  -  .dw 16,201,12
 1339 D2:208F 3F FF F8 -  .db 63,-1,-8
 1340 D2:2092 07 1F 37 -  .db 7,31,55
 1341 D2:2095 FE 37 E1 -  .db -2,55,-31
 1342 D2:2098 0E 00 C9 00 
              16 00 -  -  .dw 14,201,22
 1343 D2:209E 3F FC FF -  .db 63,-4,-1
 1344 D2:20A1 03 20 36 -  .db 3,32,54
 1345 D2:20A4 02 36 E0 -  .db 2,54,-32
 1346 D2:20A7 08 00 CA 00 
              1B 00 -  -  .dw 8,202,27
 1347 D2:20AD 3F 00 06 -  .db 63,0,6
 1348 D2:20B0 FA 1D 38 -  .db -6,29,56
 1349 D2:20B3 02 38 E3 -  .db 2,56,-29
 1350 D2:20B6 FC FF CC 00 
              15 00 -  -  .dw -4,204,21
 1351 D2:20BC 3D FE 11 -  .db 61,-2,17
 1352 D2:20BF F1 19 38 -  .db -15,25,56
 1353 D2:20C2 08 3A E8 -  .db 8,58,-24
 1354 D2:20C5 F1 FF CE 00 
              0D 00 -  -  .dw -15,206,13
 1355 D2:20CB 3A F8 17 -  .db 58,-8,23
 1356 D2:20CE EE 18 37 -  .db -18,24,55
 1357 D2:20D1 10 3A EC -  .db 16,58,-20
 1358 D2:20D4 ED FF CF 00 
              09 00 -  -  .dw -19,207,9
 1359 D2:20DA F8 FF 16 00 
              E5 FF -  -  .dw -8,22,-27
 1360 D2:20E0 27 24 DE -  .db 39,36,-34
 1361 D2:20E3 08 00 16 00 
              E7 FF -  -  .dw 8,22,-25
 1362 D2:20E9 27 D8 E2 -  .db 39,-40,-30
 1363 D2:20EC FD FF 1B 00 
              FE FF -  -  .dw -3,27,-2
 1364 D2:20F2 DB D8 E0 -  .db -37,-40,-32
 1365 D2:20F5 07 00 1B 00 
              FE FF -  -  .dw 7,27,-2
 1366 D2:20FB D9 23 DD -  .db -39,35,-35
 1367 D2:20FE F8 FF 24 00 
              E6 FF -  -  .dw -8,36,-26
 1368 D2:2104 23 E3 2C -  .db 35,-29,44
 1369 D2:2107 08 00 24 00 
              E7 FF -  -  .dw 8,36,-25
 1370 D2:210D DF E3 2E -  .db -33,-29,46
 1371 D2:2110 FD FF 25 00 
              FC FF -  -  .dw -3,37,-4
 1372 D2:2116 DF 29 23 -  .db -33,41,35
 1373 D2:2119 07 00 25 00 
              FC FF -  -  .dw 7,37,-4
 1374 D2:211F 23 28 22 -  .db 35,40,34
 1375 D2:2122 00 80 -  -  .dw VX_ANIMATION_BONE
 1376 D2:2124 13 -  -  -  .db 19
 1377 D2:2125 38 EA EC -  .db 56,-22,-20
 1378 D2:2128 13 F9 3C -  .db 19,-7,60
 1379 D2:212B 18 3B 00 -  .db 24,59,0
 1380 D2:212E 11 00 D7 00 
              FE FF -  -  .dw 17,215,-2
 1381 D2:2134 38 EC EB -  .db 56,-20,-21
 1382 D2:2137 14 F8 3C -  .db 20,-8,60
 1383 D2:213A 15 3C 00 -  .db 21,60,0
 1384 D2:213D 11 00 D6 00 
              FD FF -  -  .dw 17,214,-3
 1385 D2:2143 3B F4 ED -  .db 59,-12,-19
 1386 D2:2146 12 F7 3C -  .db 18,-9,60
 1387 D2:2149 0E 3E 04 -  .db 14,62,4
 1388 D2:214C 0F 00 D5 00 
              F8 FF -  -  .dw 15,213,-8
 1389 D2:2152 3D FB F0 -  .db 61,-5,-16
 1390 D2:2155 0E F5 3D -  .db 14,-11,61
 1391 D2:2158 08 3E 0A -  .db 8,62,10
 1392 D2:215B 0D 00 D4 00 
              F0 FF -  -  .dw 13,212,-16
 1393 D2:2161 3E 00 F4 -  .db 62,0,-12
 1394 D2:2164 0C F3 3D -  .db 12,-13,61
 1395 D2:2167 01 3E 0D -  .db 1,62,13
 1396 D2:216A 0B 00 D3 00 
              E9 FF -  -  .dw 11,211,-23
 1397 D2:2170 3F 01 FA -  .db 63,1,-6
 1398 D2:2173 07 F4 3E -  .db 7,-12,62
 1399 D2:2176 00 3E 0C -  .db 0,62,12
 1400 D2:2179 05 00 D2 00 
              EA FF -  -  .dw 5,210,-22
 1401 D2:217F 3F 00 00 -  .db 63,0,0
 1402 D2:2182 00 F9 3F -  .db 0,-7,63
 1403 D2:2185 00 3F 07 -  .db 0,63,7
 1404 D2:2188 FC FF D3 00 
              F1 FF -  -  .dw -4,211,-15
 1405 D2:218E 3E 08 09 -  .db 62,8,9
 1406 D2:2191 F8 FB 3F -  .db -8,-5,63
 1407 D2:2194 F7 3F 04 -  .db -9,63,4
 1408 D2:2197 F6 FF D6 00 
              F6 FF -  -  .dw -10,214,-10
 1409 D2:219D 3B 12 10 -  .db 59,18,16
 1410 D2:21A0 F2 F9 3D -  .db -14,-7,61
 1411 D2:21A3 ED 3C 02 -  .db -19,60,2
 1412 D2:21A6 F0 FF D7 00 
              F8 FF -  -  .dw -16,215,-8
 1413 D2:21AC 36 1B 13 -  .db 54,27,19
 1414 D2:21AF F0 F6 3C -  .db -16,-10,60
 1415 D2:21B2 E3 38 02 -  .db -29,56,2
 1416 D2:21B5 EA FF D5 00 
              F8 FF -  -  .dw -22,213,-8
 1417 D2:21BB 34 20 11 -  .db 52,32,17
 1418 D2:21BE F3 F5 3D -  .db -13,-11,61
 1419 D2:21C1 DE 35 02 -  .db -34,53,2
 1420 D2:21C4 ED FF D2 00 
              F7 FF -  -  .dw -19,210,-9
 1421 D2:21CA 36 1F 0B -  .db 54,31,11
 1422 D2:21CD F8 F8 3E -  .db -8,-8,62
 1423 D2:21D0 E0 36 02 -  .db -32,54,2
 1424 D2:21D3 F6 FF D2 00 
              F7 FF -  -  .dw -10,210,-9
 1425 D2:21D9 3B 16 04 -  .db 59,22,4
 1426 D2:21DC FE FC 3F -  .db -2,-4,63
 1427 D2:21DF E9 3B 03 -  .db -23,59,3
 1428 D2:21E2 FD FF D2 00 
              F8 FF -  -  .dw -3,210,-8
 1429 D2:21E8 3E 0C 01 -  .db 62,12,1
 1430 D2:21EB 00 F9 3F -  .db 0,-7,63
 1431 D2:21EE F4 3E 07 -  .db -12,62,7
 1432 D2:21F1 FE FF D1 00 
              F4 FF -  -  .dw -2,209,-12
 1433 D2:21F7 3F 04 FC -  .db 63,4,-4
 1434 D2:21FA 05 F5 3E -  .db 5,-11,62
 1435 D2:21FD FD 3E 0B -  .db -3,62,11
 1436 D2:2200 04 00 D3 00 
              EF FF -  -  .dw 4,211,-17
 1437 D2:2206 3E 01 F3 -  .db 62,1,-13
 1438 D2:2209 0D F3 3D -  .db 13,-13,61
 1439 D2:220C 00 3E 0D -  .db 0,62,13
 1440 D2:220F 11 00 D6 00 
              ED FF -  -  .dw 17,214,-19
 1441 D2:2215 3D FE EE -  .db 61,-2,-18
 1442 D2:2218 11 F7 3C -  .db 17,-9,60
 1443 D2:221B 04 3F 08 -  .db 4,63,8
 1444 D2:221E 19 00 DA 00 
              F5 FF -  -  .dw 25,218,-11
 1445 D2:2224 3B F6 EC -  .db 59,-10,-20
 1446 D2:2227 13 F9 3C -  .db 19,-7,60
 1447 D2:222A 0C 3E 04 -  .db 12,62,4
 1448 D2:222D 1A 00 DA 00 
              FB FF -  -  .dw 26,218,-5
 1449 D2:2233 3A F0 EC -  .db 58,-16,-20
 1450 D2:2236 13 F8 3C -  .db 19,-8,60
 1451 D2:2239 12 3D 02 -  .db 18,61,2
 1452 D2:223C 15 00 D9 00 
              FC FF -  -  .dw 21,217,-4
 1453 D2:2242 00 00 D9 FF 
              2D 00 -  -  .dw 0,-39,45
 1454 D2:2248 C6 EB 0F -  .db -58,-21,15
 1455 D2:224B 00 00 DB FF 
              57 00 -  -  .dw 0,-37,87
 1456 D2:2251 DE 30 17 -  .db -34,48,23
 1457 D2:2254 07 00 DE FF 
              2D 00 -  -  .dw 7,-34,45
 1458 D2:225A DF 30 E8 -  .db -33,48,-24
 1459 D2:225D FA FF DE FF 
              2D 00 -  -  .dw -6,-34,45
 1460 D2:2263 C6 EF EE -  .db -58,-17,-18
 1461 D2:2266 FD FF DF FF 
              28 00 -  -  .dw -3,-33,40
 1462 D2:226C 24 2E 17 -  .db 36,46,23
 1463 D2:226F 04 00 DF FF 
              28 00 -  -  .dw 4,-33,40
 1464 D2:2275 25 2E E8 -  .db 37,46,-24
 1465 D2:2278 F9 FF E0 FF 
              5A 00 -  -  .dw -7,-32,90
 1466 D2:227E 3A EB 0F -  .db 58,-21,15
 1467 D2:2281 08 00 E0 FF 
              5A 00 -  -  .dw 8,-32,90
 1468 D2:2287 39 EC EE -  .db 57,-20,-18
 1469 D2:228A FD FF E2 FF 
              60 00 -  -  .dw -3,-30,96
 1470 D2:2290 00 C2 0F -  .db 0,-62,15
 1471 D2:2293 04 00 E2 FF 
              60 00 -  -  .dw 4,-30,96
 1472 D2:2299 FF C4 EC -  .db -1,-60,-20
 1473 D2:229C 00 00 E3 FF 
              28 00 -  -  .dw 0,-29,40
 1474 D2:22A2 00 1B C7 -  .db 0,27,-57
 1475 D2:22A5 00 00 E6 FF 
              60 00 -  -  .dw 0,-26,96
 1476 D2:22AB E2 F4 C9 -  .db -30,-12,-55
 1477 D2:22AE 05 00 E7 FF 
              2D 00 -  -  .dw 5,-25,45
 1478 D2:22B4 1D F4 C9 -  .db 29,-12,-55
 1479 D2:22B7 FD FF E7 FF 
              2D 00 -  -  .dw -3,-25,45
 1480 D2:22BD 00 19 3A -  .db 0,25,58
 1481 D2:22C0 05 00 E9 FF 
              5D 00 -  -  .dw 5,-23,93
 1482 D2:22C6 E2 ED 35 -  .db -30,-19,53
 1483 D2:22C9 FC FF EA FF 
              5D 00 -  -  .dw -4,-22,93
 1484 D2:22CF 1E EE 35 -  .db 30,-18,53
 1485 D2:22D2 00 80 -  -  .dw VX_ANIMATION_BONE
 1486 D2:22D4 13 -  -  -  .db 19
 1487 D2:22D5 39 EA F0 -  .db 57,-22,-16
 1488 D2:22D8 0D F6 3D -  .db 13,-10,61
 1489 D2:22DB 18 3B 05 -  .db 24,59,5
 1490 D2:22DE 0E 00 D5 00 
              FA FF -  -  .dw 14,213,-6
 1491 D2:22E4 3A ED EF -  .db 58,-19,-17
 1492 D2:22E7 0E F6 3D -  .db 14,-10,61
 1493 D2:22EA 15 3C 05 -  .db 21,60,5
 1494 D2:22ED 0E 00 D4 00 
              F9 FF -  -  .dw 14,212,-7
 1495 D2:22F3 3D F5 F2 -  .db 61,-11,-14
 1496 D2:22F6 0C F5 3D -  .db 12,-11,61
 1497 D2:22F9 0E 3D 08 -  .db 14,61,8
 1498 D2:22FC 0C 00 D3 00 
              F5 FF -  -  .dw 12,211,-11
 1499 D2:2302 3F FC F7 -  .db 63,-4,-9
 1500 D2:2305 07 F2 3D -  .db 7,-14,61
 1501 D2:2308 06 3E 0D -  .db 6,62,13
 1502 D2:230B 08 00 D2 00 
              ED FF -  -  .dw 8,210,-19
 1503 D2:2311 3F 01 FD -  .db 63,1,-3
 1504 D2:2314 03 F0 3D -  .db 3,-16,61
 1505 D2:2317 00 3D 10 -  .db 0,61,16
 1506 D2:231A 05 00 D1 00 
              E7 FF -  -  .dw 5,209,-25
 1507 D2:2320 3F 01 04 -  .db 63,1,4
 1508 D2:2323 FC F1 3E -  .db -4,-15,62
 1509 D2:2326 FE 3E 0E -  .db -2,62,14
 1510 D2:2329 FE FF D2 00 
              E8 FF -  -  .dw -2,210,-24
 1511 D2:232F 3E 00 0D -  .db 62,0,13
 1512 D2:2332 F3 F6 3D -  .db -13,-10,61
 1513 D2:2335 FE 3F 0A -  .db -2,63,10
 1514 D2:2338 F3 FF D4 00 
              EF FF -  -  .dw -13,212,-17
 1515 D2:233E 3B 08 17 -  .db 59,8,23
 1516 D2:2341 EA F8 3B -  .db -22,-8,59
 1517 D2:2344 F6 3E 05 -  .db -10,62,5
 1518 D2:2347 EC FF D8 00 
              F6 FF -  -  .dw -20,216,-10
 1519 D2:234D 36 11 1D -  .db 54,17,29
 1520 D2:2350 E5 F6 38 -  .db -27,-10,56
 1521 D2:2353 EC 3C 01 -  .db -20,60,1
 1522 D2:2356 E6 FF DA 00 
              F9 FF -  -  .dw -26,218,-7
 1523 D2:235C 30 19 20 -  .db 48,25,32
 1524 D2:235F E3 F3 37 -  .db -29,-13,55
 1525 D2:2362 E3 38 FF -  .db -29,56,-1
 1526 D2:2365 E1 FF D8 00 
              FA FF -  -  .dw -31,216,-6
 1527 D2:236B 2B 1F 22 -  .db 43,31,34
 1528 D2:236E E0 F2 35 -  .db -32,-14,53
 1529 D2:2371 DE 35 FA -  .db -34,53,-6
 1530 D2:2374 E1 FF D7 00 
              FD FF -  -  .dw -31,215,-3
 1531 D2:237A 2B 1F 23 -  .db 43,31,35
 1532 D2:237D DE F6 34 -  .db -34,-10,52
 1533 D2:2380 E1 36 F7 -  .db -31,54,-9
 1534 D2:2383 E5 FF D8 00 
              00 00 -  -  .dw -27,216,0
 1535 D2:2389 30 16 23 -  .db 48,22,35
 1536 D2:238C DD F9 34 -  .db -35,-7,52
 1537 D2:238F EA 3B FA -  .db -22,59,-6
 1538 D2:2392 E7 FF D9 00 
              FF FF -  -  .dw -25,217,-1
 1539 D2:2398 38 0B 1C -  .db 56,11,28
 1540 D2:239B E6 F6 39 -  .db -26,-10,57
 1541 D2:239E F1 3D 04 -  .db -15,61,4
 1542 D2:23A1 EA FF D5 00 
              F6 FF -  -  .dw -22,213,-10
 1543 D2:23A7 3E 04 0D -  .db 62,4,13
 1544 D2:23AA F4 F2 3D -  .db -12,-14,61
 1545 D2:23AD F9 3E 0C -  .db -7,62,12
 1546 D2:23B0 F8 FF D3 00 
              EE FF -  -  .dw -8,211,-18
 1547 D2:23B6 3F 02 00 -  .db 63,2,0
 1548 D2:23B9 01 F1 3D -  .db 1,-15,61
 1549 D2:23BC FE 3D 0F -  .db -2,61,15
 1550 D2:23BF 09 00 D5 00 
              EB FF -  -  .dw 9,213,-21
 1551 D2:23C5 3F FF F7 -  .db 63,-1,-9
 1552 D2:23C8 08 F4 3E -  .db 8,-12,62
 1553 D2:23CB 03 3E 0B -  .db 3,62,11
 1554 D2:23CE 13 00 D8 00 
              F3 FF -  -  .dw 19,216,-13
 1555 D2:23D4 3D F7 F3 -  .db 61,-9,-13
 1556 D2:23D7 0C F6 3D -  .db 12,-10,61
 1557 D2:23DA 0B 3E 08 -  .db 11,62,8
 1558 D2:23DD 15 00 D8 00 
              F8 FF -  -  .dw 21,216,-8
 1559 D2:23E3 3C F0 F2 -  .db 60,-16,-14
 1560 D2:23E6 0C F6 3D -  .db 12,-10,61
 1561 D2:23E9 12 3C 06 -  .db 18,60,6
 1562 D2:23EC 12 00 D7 00 
              F9 FF -  -  .dw 18,215,-7
 1563 D2:23F2 01 00 D9 FF 
              2C 00 -  -  .dw 1,-39,44
 1564 D2:23F8 CF F0 24 -  .db -49,-16,36
 1565 D2:23FB 01 00 DB FF 
              FD FF -  -  .dw 1,-37,-3
 1566 D2:2401 E2 29 26 -  .db -30,41,38
 1567 D2:2404 FD FF DE FF 
              FD FF -  -  .dw -3,-34,-3
 1568 D2:240A DC 31 EF -  .db -36,49,-17
 1569 D2:240D 06 00 DE FF 
              FD FF -  -  .dw 6,-34,-3
 1570 D2:2413 C6 ED F0 -  .db -58,-19,-16
 1571 D2:2416 FB FF DE FF 
              2C 00 -  -  .dw -5,-34,44
 1572 D2:241C 1E 29 26 -  .db 30,41,38
 1573 D2:241F 08 00 DE FF 
              2C 00 -  -  .dw 8,-34,44
 1574 D2:2425 24 31 EF -  .db 36,49,-17
 1575 D2:2428 00 00 DF FF 
              F9 FF -  -  .dw 0,-33,-7
 1576 D2:242E 32 F0 24 -  .db 50,-16,36
 1577 D2:2431 03 00 DF FF 
              F9 FF -  -  .dw 3,-33,-7
 1578 D2:2437 3A ED F0 -  .db 58,-19,-16
 1579 D2:243A 01 00 E2 FF 
              F9 FF -  -  .dw 1,-30,-7
 1580 D2:2440 00 CB 22 -  .db 0,-53,34
 1581 D2:2443 FF FF E4 FF 
              FD FF -  -  .dw -1,-28,-3
 1582 D2:2449 00 C4 EB -  .db 0,-60,-21
 1583 D2:244C 04 00 E4 FF 
              FD FF -  -  .dw 4,-28,-3
 1584 D2:2452 00 23 CB -  .db 0,35,-53
 1585 D2:2455 FE FF E7 FF 
              2D 00 -  -  .dw -2,-25,45
 1586 D2:245B DF F5 CB -  .db -33,-11,-53
 1587 D2:245E 05 00 E7 FF 
              2D 00 -  -  .dw 5,-25,45
 1588 D2:2464 21 F5 CB -  .db 33,-11,-53
 1589 D2:2467 00 80 -  -  .dw VX_ANIMATION_BONE
 1590 D2:2469 13 -  -  -  .db 19
 1591 D2:246A 39 F1 EA -  .db 57,-15,-22
 1592 D2:246D 0D E1 36 -  .db 13,-31,54
 1593 D2:2470 18 35 19 -  .db 24,53,25
 1594 D2:2473 12 00 CA 00 
              F8 FF -  -  .dw 18,202,-8
 1595 D2:2479 3A F5 E9 -  .db 58,-11,-23
 1596 D2:247C 0E E0 35 -  .db 14,-32,53
 1597 D2:247F 15 35 1A -  .db 21,53,26
 1598 D2:2482 12 00 C9 00 
              F7 FF -  -  .dw 18,201,-9
 1599 D2:2488 3D FB EE -  .db 61,-5,-18
 1600 D2:248B 0C DE 34 -  .db 12,-34,52
 1601 D2:248E 0E 35 1F -  .db 14,53,31
 1602 D2:2491 0F 00 C8 00 
              F1 FF -  -  .dw 15,200,-15
 1603 D2:2497 3F FF F6 -  .db 63,-1,-10
 1604 D2:249A 07 DB 33 -  .db 7,-37,51
 1605 D2:249D 06 33 24 -  .db 6,51,36
 1606 D2:24A0 0A 00 C6 00 
              E8 FF -  -  .dw 10,198,-24
 1607 D2:24A6 3F 02 FE -  .db 63,2,-2
 1608 D2:24A9 03 D9 32 -  .db 3,-39,50
 1609 D2:24AC 00 32 27 -  .db 0,50,39
 1610 D2:24AF 06 00 C5 00 
              E2 FF -  -  .dw 6,197,-30
 1611 D2:24B5 3F 00 04 -  .db 63,0,4
 1612 D2:24B8 FC DA 32 -  .db -4,-38,50
 1613 D2:24BB FE 33 26 -  .db -2,51,38
 1614 D2:24BE FD FF C5 00 
              E3 FF -  -  .dw -3,197,-29
 1615 D2:24C4 3E FB 0C -  .db 62,-5,12
 1616 D2:24C7 F3 DE 34 -  .db -13,-34,52
 1617 D2:24CA FE 35 22 -  .db -2,53,34
 1618 D2:24CD F0 FF C7 00 
              EB FF -  -  .dw -16,199,-21
 1619 D2:24D3 3B FF 18 -  .db 59,-1,24
 1620 D2:24D6 EA E1 33 -  .db -22,-31,51
 1621 D2:24D9 F6 37 1D -  .db -10,55,29
 1622 D2:24DC E7 FF CC 00 
              F3 FF -  -  .dw -25,204,-13
 1623 D2:24E2 36 04 22 -  .db 54,4,34
 1624 D2:24E5 E5 E1 30 -  .db -27,-31,48
 1625 D2:24E8 EC 37 18 -  .db -20,55,24
 1626 D2:24EB DF FF CE 00 
              F7 FF -  -  .dw -33,206,-9
 1627 D2:24F1 30 0B 27 -  .db 48,11,39
 1628 D2:24F4 E3 DE 2D -  .db -29,-34,45
 1629 D2:24F7 E3 34 14 -  .db -29,52,20
 1630 D2:24FA DA FF CD 00 
              F9 FF -  -  .dw -38,205,-7
 1631 D2:2500 2B 0F 2C -  .db 43,15,44
 1632 D2:2503 E0 DF 2B -  .db -32,-33,43
 1633 D2:2506 DE 33 0F -  .db -34,51,15
 1634 D2:2509 D9 FF CD 00 
              FD FF -  -  .dw -39,205,-3
 1635 D2:250F 2B 0F 2C -  .db 43,15,44
 1636 D2:2512 DE E2 2C -  .db -34,-30,44
 1637 D2:2515 E1 36 0C -  .db -31,54,12
 1638 D2:2518 DD FF CE 00 
              00 00 -  -  .dw -35,206,0
 1639 D2:251E 30 07 29 -  .db 48,7,41
 1640 D2:2521 DD E6 2E -  .db -35,-26,46
 1641 D2:2524 EA 39 0F -  .db -22,57,15
 1642 D2:2527 DF FF CF 00 
              FF FF -  -  .dw -33,207,-1
 1643 D2:252D 38 00 1E -  .db 56,0,30
 1644 D2:2530 E6 E2 31 -  .db -26,-30,49
 1645 D2:2533 F1 38 1A -  .db -15,56,26
 1646 D2:2536 E5 FF CA 00 
              F4 FF -  -  .dw -27,202,-12
 1647 D2:253C 3E 00 0E -  .db 62,0,14
 1648 D2:253F F4 DD 33 -  .db -12,-35,51
 1649 D2:2542 F9 35 22 -  .db -7,53,34
 1650 D2:2545 F5 FF C8 00 
              EA FF -  -  .dw -11,200,-22
 1651 D2:254B 3F 02 00 -  .db 63,2,0
 1652 D2:254E 01 DB 34 -  .db 1,-37,52
 1653 D2:2551 FE 34 25 -  .db -2,52,37
 1654 D2:2554 09 00 C9 00 
              E7 FF -  -  .dw 9,201,-25
 1655 D2:255A 3F 01 F7 -  .db 63,1,-9
 1656 D2:255D 08 DF 35 -  .db 8,-33,53
 1657 D2:2560 03 36 21 -  .db 3,54,33
 1658 D2:2563 15 00 CD 00 
              EF FF -  -  .dw 21,205,-17
 1659 D2:2569 3D FC F0 -  .db 61,-4,-16
 1660 D2:256C 0C E1 36 -  .db 12,-31,54
 1661 D2:256F 0B 37 1D -  .db 11,55,29
 1662 D2:2572 18 00 CD 00 
              F5 FF -  -  .dw 24,205,-11
 1663 D2:2578 3C F6 ED -  .db 60,-10,-19
 1664 D2:257B 0C E1 36 -  .db 12,-31,54
 1665 D2:257E 12 36 1B -  .db 18,54,27
 1666 D2:2581 15 00 CC 00 
              F6 FF -  -  .dw 21,204,-10
 1667 D2:2587 FC FF DC FF 
              FC FF -  -  .dw -4,-36,-4
 1668 D2:258D D9 DD DD -  .db -39,-35,-35
 1669 D2:2590 06 00 DC FF 
              FC FF -  -  .dw 6,-36,-4
 1670 D2:2596 DB 27 E0 -  .db -37,39,-32
 1671 D2:2599 F8 FF DC FF 
              E6 FF -  -  .dw -8,-36,-26
 1672 D2:259F 26 29 E2 -  .db 38,41,-30
 1673 D2:25A2 08 00 DC FF 
              E7 FF -  -  .dw 8,-36,-25
 1674 D2:25A8 27 DC DE -  .db 39,-36,-34
 1675 D2:25AB FC FF E5 FF 
              FE FF -  -  .dw -4,-27,-2
 1676 D2:25B1 DF 1C 2E -  .db -33,28,46
 1677 D2:25B4 06 00 E5 FF 
              FE FF -  -  .dw 6,-27,-2
 1678 D2:25BA 23 1C 2C -  .db 35,28,44
 1679 D2:25BD F8 FF EA FF 
              E5 FF -  -  .dw -8,-22,-27
 1680 D2:25C3 23 D8 22 -  .db 35,-40,34
 1681 D2:25C6 08 00 EA FF 
              E7 FF -  -  .dw 8,-22,-25
 1682 D2:25CC DF D7 23 -  .db -33,-41,35
 1683 D2:25CF 00 80 -  -  .dw VX_ANIMATION_BONE
 1684 D2:25D1 13 -  -  -  .db 19
 1685 D2:25D2 3F FF FE -  .db 63,-1,-2
 1686 D2:25D5 02 00 3F -  .db 2,0,63
 1687 D2:25D8 01 3F 00 -  .db 1,63,0
 1688 D2:25DB 00 00 D6 00 
              01 00 -  -  .dw 0,214,1
 1689 D2:25E1 3F FF FE -  .db 63,-1,-2
 1690 D2:25E4 02 00 3F -  .db 2,0,63
 1691 D2:25E7 01 3F 00 -  .db 1,63,0
 1692 D2:25EA FE FF D5 00 
              00 00 -  -  .dw -2,213,0
 1693 D2:25F0 3F FF FE -  .db 63,-1,-2
 1694 D2:25F3 02 00 3F -  .db 2,0,63
 1695 D2:25F6 01 3F 00 -  .db 1,63,0
 1696 D2:25F9 FC FF D5 00 
              00 00 -  -  .dw -4,213,0
 1697 D2:25FF 3F 00 FE -  .db 63,0,-2
 1698 D2:2602 02 00 3F -  .db 2,0,63
 1699 D2:2605 00 3F 00 -  .db 0,63,0
 1700 D2:2608 FC FF D5 00 
              FF FF -  -  .dw -4,213,-1
 1701 D2:260E 3F 00 FE -  .db 63,0,-2
 1702 D2:2611 02 01 3F -  .db 2,1,63
 1703 D2:2614 00 3F FF -  .db 0,63,-1
 1704 D2:2617 FE FF D6 00 
              FE FF -  -  .dw -2,214,-2
 1705 D2:261D 3F 00 FE -  .db 63,0,-2
 1706 D2:2620 02 00 3F -  .db 2,0,63
 1707 D2:2623 00 3F 00 -  .db 0,63,0
 1708 D2:2626 FF FF D6 00 
              FD FF -  -  .dw -1,214,-3
 1709 D2:262C 3F 00 FE -  .db 63,0,-2
 1710 D2:262F 02 00 3F -  .db 2,0,63
 1711 D2:2632 00 3F 00 -  .db 0,63,0
 1712 D2:2635 00 00 D7 00 
              FD FF -  -  .dw 0,215,-3
 1713 D2:263B 3F 00 FE -  .db 63,0,-2
 1714 D2:263E 02 00 3F -  .db 2,0,63
 1715 D2:2641 00 3F 00 -  .db 0,63,0
 1716 D2:2644 03 00 D8 00 
              FE FF -  -  .dw 3,216,-2
 1717 D2:264A 3F 00 FE -  .db 63,0,-2
 1718 D2:264D 02 00 3F -  .db 2,0,63
 1719 D2:2650 00 3F 00 -  .db 0,63,0
 1720 D2:2653 01 00 D7 00 
              FF FF -  -  .dw 1,215,-1
 1721 D2:2659 3F 00 FE -  .db 63,0,-2
 1722 D2:265C 02 00 3F -  .db 2,0,63
 1723 D2:265F 00 3F 00 -  .db 0,63,0
 1724 D2:2662 FF FF D5 00 
              FF FF -  -  .dw -1,213,-1
 1725 D2:2668 3F FF FE -  .db 63,-1,-2
 1726 D2:266B 02 00 3F -  .db 2,0,63
 1727 D2:266E 01 3F 00 -  .db 1,63,0
 1728 D2:2671 FD FF D3 00 
              FE FF -  -  .dw -3,211,-2
 1729 D2:2677 3F 00 FE -  .db 63,0,-2
 1730 D2:267A 02 00 3F -  .db 2,0,63
 1731 D2:267D 00 3F 00 -  .db 0,63,0
 1732 D2:2680 FE FF D3 00 
              FF FF -  -  .dw -2,211,-1
 1733 D2:2686 3F 00 FE -  .db 63,0,-2
 1734 D2:2689 02 00 3F -  .db 2,0,63
 1735 D2:268C 00 3F 00 -  .db 0,63,0
 1736 D2:268F FE FF D3 00 
              00 00 -  -  .dw -2,211,0
 1737 D2:2695 3F 00 FE -  .db 63,0,-2
 1738 D2:2698 02 00 3F -  .db 2,0,63
 1739 D2:269B 00 3F 00 -  .db 0,63,0
 1740 D2:269E FF FF D3 00 
              01 00 -  -  .dw -1,211,1
 1741 D2:26A4 3F 00 FE -  .db 63,0,-2
 1742 D2:26A7 02 00 3F -  .db 2,0,63
 1743 D2:26AA 00 3F 00 -  .db 0,63,0
 1744 D2:26AD 00 00 D5 00 
              01 00 -  -  .dw 0,213,1
 1745 D2:26B3 3F 00 FF -  .db 63,0,-1
 1746 D2:26B6 01 00 3F -  .db 1,0,63
 1747 D2:26B9 00 3F 00 -  .db 0,63,0
 1748 D2:26BC 00 00 D7 00 
              01 00 -  -  .dw 0,215,1
 1749 D2:26C2 3F FF FE -  .db 63,-1,-2
 1750 D2:26C5 02 00 3F -  .db 2,0,63
 1751 D2:26C8 01 3F 00 -  .db 1,63,0
 1752 D2:26CB 03 00 D9 00 
              02 00 -  -  .dw 3,217,2
 1753 D2:26D1 3F FE FF -  .db 63,-2,-1
 1754 D2:26D4 01 00 3F -  .db 1,0,63
 1755 D2:26D7 02 3F 00 -  .db 2,63,0
 1756 D2:26DA 03 00 D9 00 
              01 00 -  -  .dw 3,217,1
 1757 D2:26E0 3F FE FE -  .db 63,-2,-2
 1758 D2:26E3 02 00 3F -  .db 2,0,63
 1759 D2:26E6 01 3F 00 -  .db 1,63,0
 1760 D2:26E9 01 00 D8 00 
              01 00 -  -  .dw 1,216,1
 1761 D2:26EF F6 FF ED FF 
              92 00 -  -  .dw -10,-19,146
 1762 D2:26F5 DE CB 09 -  .db -34,-53,9
 1763 D2:26F8 0D 00 EE FF 
              88 00 -  -  .dw 13,-18,136
 1764 D2:26FE C2 F5 F6 -  .db -62,-11,-10
 1765 D2:2701 F2 FF F0 FF 
              9C 00 -  -  .dw -14,-16,156
 1766 D2:2707 C8 FF 1D -  .db -56,-1,29
 1767 D2:270A F0 FF F1 FF 
              86 00 -  -  .dw -16,-15,134
 1768 D2:2710 D2 02 D4 -  .db -46,2,-44
 1769 D2:2713 06 00 F1 FF 
              88 00 -  -  .dw 6,-15,136
 1770 D2:2719 D4 01 D2 -  .db -44,1,-46
 1771 D2:271C F1 FF F1 FF 
              8A 00 -  -  .dw -15,-15,138
 1772 D2:2722 E6 DC D3 -  .db -26,-36,-45
 1773 D2:2725 F0 FF F1 FF 
              8F 00 -  -  .dw -16,-15,143
 1774 D2:272B 13 D2 27 -  .db 19,-46,39
 1775 D2:272E FF FF F1 FF 
              88 00 -  -  .dw -1,-15,136
 1776 D2:2734 2D D7 11 -  .db 45,-41,17
 1777 D2:2737 EE FF F2 FF 
              83 00 -  -  .dw -18,-14,131
 1778 D2:273D 32 E5 1C -  .db 50,-27,28
 1779 D2:2740 0A 00 F2 FF 
              9C 00 -  -  .dw 10,-14,156
 1780 D2:2746 0B 3D F2 -  .db 11,61,-14
 1781 D2:2749 01 00 F4 FF 
              75 00 -  -  .dw 1,-12,117
 1782 D2:274F 06 30 D8 -  .db 6,48,-40
 1783 D2:2752 F5 FF F5 FF 
              9A 00 -  -  .dw -11,-11,154
 1784 D2:2758 F5 31 DA -  .db -11,49,-38
 1785 D2:275B 1C 00 F6 FF 
              7C 00 -  -  .dw 28,-10,124
 1786 D2:2761 C3 08 F1 -  .db -61,8,-15
 1787 D2:2764 14 00 F7 FF 
              78 00 -  -  .dw 20,-9,120
 1788 D2:276A DD 34 09 -  .db -35,52,9
 1789 D2:276D 1B 00 F7 FF 
              88 00 -  -  .dw 27,-9,136
 1790 D2:2773 E8 23 D2 -  .db -24,35,-46
 1791 D2:2776 0F 00 F8 FF 
              74 00 -  -  .dw 15,-8,116
 1792 D2:277C 08 EE C4 -  .db 8,-18,-60
 1793 D2:277F 19 00 F8 FF 
              76 00 -  -  .dw 25,-8,118
 1794 D2:2785 09 12 C4 -  .db 9,18,-60
 1795 D2:2788 F1 FF F8 FF 
              A2 00 -  -  .dw -15,-8,162
 1796 D2:278E C9 FF 1F -  .db -55,-1,31
 1797 D2:2791 18 00 F8 FF 
              94 00 -  -  .dw 24,-8,148
 1798 D2:2797 20 F4 35 -  .db 32,-12,53
 1799 D2:279A EA FF FA FF 
              7E 00 -  -  .dw -22,-6,126
 1800 D2:27A0 06 00 3F -  .db 6,0,63
 1801 D2:27A3 05 00 FA FF 
              70 00 -  -  .dw 5,-6,112
 1802 D2:27A9 20 0B 36 -  .db 32,11,54
 1803 D2:27AC EE FF FB FF 
              70 00 -  -  .dw -18,-5,112
 1804 D2:27B2 C1 00 0A -  .db -63,0,10
 1805 D2:27B5 20 00 FB FF 
              73 00 -  -  .dw 32,-5,115
 1806 D2:27BB C1 01 F7 -  .db -63,1,-9
 1807 D2:27BE 24 00 FB FF 
              7C 00 -  -  .dw 36,-5,124
 1808 D2:27C4 C8 E3 FA -  .db -56,-29,-6
 1809 D2:27C7 22 00 FC FF 
              84 00 -  -  .dw 34,-4,132
 1810 D2:27CD C9 1F FB -  .db -55,31,-5
 1811 D2:27D0 0F 00 FC FF 
              9E 00 -  -  .dw 15,-4,158
 1812 D2:27D6 FF 3C ED -  .db -1,60,-19
 1813 D2:27D9 EB FF 00 00 
              6F 00 -  -  .dw -21,0,111
 1814 D2:27DF D9 31 FC -  .db -39,49,-4
 1815 D2:27E2 E8 FF 00 00 
              7E 00 -  -  .dw -24,0,126
 1816 D2:27E8 E3 C8 05 -  .db -29,-56,5
 1817 D2:27EB E5 FF 00 00 
              80 00 -  -  .dw -27,0,128
 1818 D2:27F1 D8 CF FF -  .db -40,-49,-1
 1819 D2:27F4 E9 FF 00 00 
              86 00 -  -  .dw -23,0,134
 1820 D2:27FA 04 C8 E2 -  .db 4,-56,-30
 1821 D2:27FD E9 FF 00 00 
              8A 00 -  -  .dw -23,0,138
 1822 D2:2803 D5 D7 EA -  .db -43,-41,-22
 1823 D2:2806 E9 FF 00 00 
              8E 00 -  -  .dw -23,0,142
 1824 D2:280C FE C3 F0 -  .db -2,-61,-16
 1825 D2:280F EF FF 00 00 
              9B 00 -  -  .dw -17,0,155
 1826 D2:2815 E3 38 FE -  .db -29,56,-2
 1827 D2:2818 EF FF 00 00 
              9C 00 -  -  .dw -17,0,156
 1828 D2:281E E3 38 01 -  .db -29,56,1
 1829 D2:2821 01 00 00 00 
              A3 00 -  -  .dw 1,0,163
 1830 D2:2827 E4 C7 FF -  .db -28,-57,-1
 1831 D2:282A 22 00 02 00 
              84 00 -  -  .dw 34,2,132
 1832 D2:2830 C1 00 FB -  .db -63,0,-5
 1833 D2:2833 0F 00 02 00 
              9E 00 -  -  .dw 15,2,158
 1834 D2:2839 06 37 E1 -  .db 6,55,-31
 1835 D2:283C 20 00 03 00 
              73 00 -  -  .dw 32,3,115
 1836 D2:2842 CD 25 06 -  .db -51,37,6
 1837 D2:2845 24 00 03 00 
              7C 00 -  -  .dw 36,3,124
 1838 D2:284B 14 2D 27 -  .db 20,45,39
 1839 D2:284E EE FF 04 00 
              70 00 -  -  .dw -18,4,112
 1840 D2:2854 C2 00 0C -  .db -62,0,12
 1841 D2:2857 05 00 04 00 
              70 00 -  -  .dw 5,4,112
 1842 D2:285D 33 18 1C -  .db 51,24,28
 1843 D2:2860 EA FF 05 00 
              7F 00 -  -  .dw -22,5,127
 1844 D2:2866 1B 20 D1 -  .db 27,32,-47
 1845 D2:2869 0F 00 06 00 
              74 00 -  -  .dw 15,6,116
 1846 D2:286F D4 F4 2B -  .db -44,-12,43
 1847 D2:2872 18 00 06 00 
              95 00 -  -  .dw 24,6,149
 1848 D2:2878 1B DF D2 -  .db 27,-33,-46
 1849 D2:287B 19 00 07 00 
              76 00 -  -  .dw 25,7,118
 1850 D2:2881 CF 0E 26 -  .db -49,14,38
 1851 D2:2884 14 00 07 00 
              78 00 -  -  .dw 20,7,120
 1852 D2:288A CD DB 09 -  .db -51,-37,9
 1853 D2:288D 1B 00 07 00 
              88 00 -  -  .dw 27,7,136
 1854 D2:2893 0C C3 F5 -  .db 12,-61,-11
 1855 D2:2896 1C 00 08 00 
              7C 00 -  -  .dw 28,8,124
 1856 D2:289C F7 CA E0 -  .db -9,-54,-32
 1857 D2:289F EF FF 08 00 
              A2 00 -  -  .dw -17,8,162
 1858 D2:28A5 D4 25 E6 -  .db -44,37,-26
 1859 D2:28A8 01 00 0B 00 
              75 00 -  -  .dw 1,11,117
 1860 D2:28AE 09 CF D9 -  .db 9,-49,-39
 1861 D2:28B1 F5 FF 0B 00 
              9A 00 -  -  .dw -11,11,154
 1862 D2:28B7 2E 28 11 -  .db 46,40,17
 1863 D2:28BA EE FF 0D 00 
              83 00 -  -  .dw -18,13,131
 1864 D2:28C0 0F C3 FD -  .db 15,-61,-3
 1865 D2:28C3 0A 00 0D 00 
              9C 00 -  -  .dw 10,13,156
 1866 D2:28C9 31 EA 22 -  .db 49,-22,34
 1867 D2:28CC FF FF 0E 00 
              88 00 -  -  .dw -1,14,136
 1868 D2:28D2 F5 D8 D0 -  .db -11,-40,-48
 1869 D2:28D5 F0 FF 0E 00 
              86 00 -  -  .dw -16,14,134
 1870 D2:28DB F4 29 D1 -  .db -12,41,-47
 1871 D2:28DE 06 00 0E 00 
              88 00 -  -  .dw 6,14,136
 1872 D2:28E4 0D 3E FE -  .db 13,62,-2
 1873 D2:28E7 F1 FF 0E 00 
              8A 00 -  -  .dw -15,14,138
 1874 D2:28ED 31 16 22 -  .db 49,22,34
 1875 D2:28F0 EF FF 0E 00 
              8F 00 -  -  .dw -17,14,143
 1876 D2:28F6 38 1D FD -  .db 56,29,-3
 1877 D2:28F9 F1 FF 10 00 
              9B 00 -  -  .dw -15,16,155
 1878 D2:28FF 18 18 CB -  .db 24,24,-53
 1879 D2:2902 0C 00 12 00 
              89 00 -  -  .dw 12,18,137
 1880 D2:2908 38 E3 FD -  .db 56,-29,-3
 1881 D2:290B F6 FF 12 00 
              91 00 -  -  .dw -10,18,145
 1882 D2:2911 18 E8 CB -  .db 24,-24,-53
 1883 D2:2914 -  -  -  -  TRIDATA:
 1884 D2:2914 00 82 02 -  .dl 164352
 1885 D2:2917 10 01 00 20 
              00 00 40 00 
              00 -  -  -  .f 17,2,4
Listing for file "C:\Users\Zeromus\Documents\GitHub\Virtual3D\XML.ez80"
 1886 D2:2920 00 -  -  -  .db 0
 1887 D2:2921 D4 78 -  -  .db 212,120
 1888 D2:2923 EB 78 -  -  .db 235,120
 1889 D2:2925 EB 7F -  -  .db 235,127
 1890 D2:2927 10 01 00 40 
              00 00 F0 00 
              00 -  -  -  .f 17,4,15
 1891 D2:2930 00 -  -  -  .db 0
 1892 D2:2931 D4 78 -  -  .db 212,120
 1893 D2:2933 EB 7F -  -  .db 235,127
 1894 D2:2935 D4 7F -  -  .db 212,127
 1895 D2:2937 70 00 00 C0 
              00 00 A0 00 
              00 -  -  -  .f 7,12,10
 1896 D2:2940 00 -  -  -  .db 0
 1897 D2:2941 EF 88 -  -  .db 239,136
 1898 D2:2943 E8 88 -  -  .db 232,136
 1899 D2:2945 E8 8F -  -  .db 232,143
 1900 D2:2947 70 00 00 A0 
              00 00 90 00 
              00 -  -  -  .f 7,10,9
 1901 D2:2950 00 -  -  -  .db 0
 1902 D2:2951 EF 88 -  -  .db 239,136
 1903 D2:2953 E8 8F -  -  .db 232,143
 1904 D2:2955 EF 8F -  -  .db 239,143
 1905 D2:2957 00 01 00 30 
              00 00 20 00 
              00 -  -  -  .f 16,3,2
 1906 D2:2960 00 -  -  -  .db 0
 1907 D2:2961 E4 2C -  -  .db 228,44
 1908 D2:2963 FB 2C -  -  .db 251,44
 1909 D2:2965 FB 3A -  -  .db 251,58
 1910 D2:2967 00 01 00 20 
              00 00 10 01 
              00 -  -  -  .f 16,2,17
 1911 D2:2970 00 -  -  -  .db 0
 1912 D2:2971 E4 2C -  -  .db 228,44
 1913 D2:2973 FB 3A -  -  .db 251,58
 1914 D2:2975 E4 3A -  -  .db 228,58
 1915 D2:2977 B0 00 00 D0 
              00 00 20 01 
              00 -  -  -  .f 11,13,18
 1916 D2:2980 00 -  -  -  .db 0
 1917 D2:2981 80 2C -  -  .db 128,44
 1918 D2:2983 8A 2C -  -  .db 138,44
 1919 D2:2985 8A 4A -  -  .db 138,74
 1920 D2:2987 B0 00 00 20 
              01 00 30 01 
              00 -  -  -  .f 11,18,19
 1921 D2:2990 00 -  -  -  .db 0
 1922 D2:2991 80 2C -  -  .db 128,44
 1923 D2:2993 8A 4A -  -  .db 138,74
 1924 D2:2995 80 4A -  -  .db 128,74
 1925 D2:2997 80 00 00 B0 
              00 00 C0 00 
              00 -  -  -  .f 8,11,12
 1926 D2:29A0 00 -  -  -  .db 0
 1927 D2:29A1 B8 5C -  -  .db 184,92
 1928 D2:29A3 CB 5C -  -  .db 203,92
 1929 D2:29A5 CB 67 -  -  .db 203,103
 1930 D2:29A7 80 00 00 C0 
              00 00 70 00 
              00 -  -  -  .f 8,12,7
 1931 D2:29B0 00 -  -  -  .db 0
 1932 D2:29B1 B8 5C -  -  .db 184,92
 1933 D2:29B3 CB 67 -  -  .db 203,103
 1934 D2:29B5 B8 67 -  -  .db 184,103
 1935 D2:29B7 E0 00 00 60 
              00 00 30 00 
              00 -  -  -  .f 14,6,3
 1936 D2:29C0 00 -  -  -  .db 0
 1937 D2:29C1 B7 5C -  -  .db 183,92
 1938 D2:29C3 9C 5C -  -  .db 156,92
 1939 D2:29C5 9C 67 -  -  .db 156,103
 1940 D2:29C7 E0 00 00 30 
              00 00 00 01 
              00 -  -  -  .f 14,3,16
 1941 D2:29D0 00 -  -  -  .db 0
 1942 D2:29D1 B7 5C -  -  .db 183,92
 1943 D2:29D3 9C 67 -  -  .db 156,103
 1944 D2:29D5 B7 67 -  -  .db 183,103
 1945 D2:29D7 50 00 00 D0 
              00 00 B0 00 
              00 -  -  -  .f 5,13,11
 1946 D2:29E0 00 -  -  -  .db 0
 1947 D2:29E1 EC 78 -  -  .db 236,120
 1948 D2:29E3 FF 78 -  -  .db 255,120
 1949 D2:29E5 FF 7F -  -  .db 255,127
 1950 D2:29E7 50 00 00 B0 
              00 00 80 00 
              00 -  -  -  .f 5,11,8
 1951 D2:29F0 00 -  -  -  .db 0
 1952 D2:29F1 EC 78 -  -  .db 236,120
 1953 D2:29F3 FF 7F -  -  .db 255,127
 1954 D2:29F5 EC 7F -  -  .db 236,127
 1955 D2:29F7 F0 00 00 40 
              00 00 90 00 
              00 -  -  -  .f 15,4,9
 1956 D2:2A00 00 -  -  -  .db 0
 1957 D2:2A01 8E 9C -  -  .db 142,156
 1958 D2:2A03 8C 9C -  -  .db 140,156
 1959 D2:2A05 8C 9F -  -  .db 140,159
 1960 D2:2A07 F0 00 00 90 
              00 00 A0 00 
              00 -  -  -  .f 15,9,10
 1961 D2:2A10 00 -  -  -  .db 0
 1962 D2:2A11 8E 9C -  -  .db 142,156
 1963 D2:2A13 8C 9F -  -  .db 140,159
 1964 D2:2A15 8E 9F -  -  .db 142,159
 1965 D2:2A17 50 00 00 60 
              00 00 E0 00 
              00 -  -  -  .f 5,6,14
 1966 D2:2A20 00 -  -  -  .db 0
 1967 D2:2A21 92 9C -  -  .db 146,156
 1968 D2:2A23 90 9C -  -  .db 144,156
 1969 D2:2A25 90 9F -  -  .db 144,159
 1970 D2:2A27 50 00 00 E0 
              00 00 D0 00 
              00 -  -  -  .f 5,14,13
 1971 D2:2A30 00 -  -  -  .db 0
 1972 D2:2A31 92 9C -  -  .db 146,156
 1973 D2:2A33 90 9F -  -  .db 144,159
 1974 D2:2A35 92 9F -  -  .db 146,159
 1975 D2:2A37 50 00 00 80 
              00 00 00 00 
              00 -  -  -  .f 5,8,0
 1976 D2:2A40 00 -  -  -  .db 0
 1977 D2:2A41 8A 2C -  -  .db 138,44
 1978 D2:2A43 80 2C -  -  .db 128,44
 1979 D2:2A45 80 4A -  -  .db 128,74
 1980 D2:2A47 50 00 00 00 
              00 00 10 00 
              00 -  -  -  .f 5,0,1
 1981 D2:2A50 00 -  -  -  .db 0
 1982 D2:2A51 8A 2C -  -  .db 138,44
 1983 D2:2A53 80 4A -  -  .db 128,74
 1984 D2:2A55 8A 4A -  -  .db 138,74
 1985 D2:2A57 30 01 00 10 
              01 00 F0 00 
              00 -  -  -  .f 19,17,15
 1986 D2:2A60 00 -  -  -  .db 0
 1987 D2:2A61 8E 9C -  -  .db 142,156
 1988 D2:2A63 8C 9C -  -  .db 140,156
 1989 D2:2A65 8C 9F -  -  .db 140,159
 1990 D2:2A67 A0 00 00 C0 
              00 00 30 01 
              00 -  -  -  .f 10,12,19
 1991 D2:2A70 00 -  -  -  .db 0
 1992 D2:2A71 90 97 -  -  .db 144,151
 1993 D2:2A73 90 90 -  -  .db 144,144
 1994 D2:2A75 96 90 -  -  .db 150,144
 1995 D2:2A77 30 01 00 F0 
              00 00 A0 00 
              00 -  -  -  .f 19,15,10
 1996 D2:2A80 00 -  -  -  .db 0
 1997 D2:2A81 96 90 -  -  .db 150,144
 1998 D2:2A83 96 97 -  -  .db 150,151
 1999 D2:2A85 90 97 -  -  .db 144,151
 2000 D2:2A87 10 01 00 30 
              01 00 20 01 
              00 -  -  -  .f 17,19,18
 2001 D2:2A90 00 -  -  -  .db 0
 2002 D2:2A91 F3 67 -  -  .db 243,103
 2003 D2:2A93 E8 67 -  -  .db 232,103
 2004 D2:2A95 E8 5C -  -  .db 232,92
 2005 D2:2A97 20 01 00 00 
              01 00 10 01 
              00 -  -  -  .f 18,16,17
 2006 D2:2AA0 00 -  -  -  .db 0
 2007 D2:2AA1 E8 5C -  -  .db 232,92
 2008 D2:2AA3 F3 5C -  -  .db 243,92
 2009 D2:2AA5 F3 67 -  -  .db 243,103
 2010 D2:2AA7 30 01 00 C0 
              00 00 B0 00 
              00 -  -  -  .f 19,12,11
 2011 D2:2AB0 00 -  -  -  .db 0
 2012 D2:2AB1 FF 67 -  -  .db 255,103
 2013 D2:2AB3 F4 67 -  -  .db 244,103
 2014 D2:2AB5 F4 5C -  -  .db 244,92
 2015 D2:2AB7 E0 00 00 00 
              01 00 20 01 
              00 -  -  -  .f 14,16,18
 2016 D2:2AC0 00 -  -  -  .db 0
 2017 D2:2AC1 DB 5C -  -  .db 219,92
 2018 D2:2AC3 DB 67 -  -  .db 219,103
 2019 D2:2AC5 CC 67 -  -  .db 204,103
 2020 D2:2AC7 20 01 00 D0 
              00 00 E0 00 
              00 -  -  -  .f 18,13,14
 2021 D2:2AD0 00 -  -  -  .db 0
 2022 D2:2AD1 CC 67 -  -  .db 204,103
 2023 D2:2AD3 CC 5C -  -  .db 204,92
 2024 D2:2AD5 DB 5C -  -  .db 219,92
 2025 D2:2AD7 00 00 00 40 
              00 00 20 00 
              00 -  -  -  .f 0,4,2
 2026 D2:2AE0 00 -  -  -  .db 0
 2027 D2:2AE1 8E 9C -  -  .db 142,156
 2028 D2:2AE3 8C 9C -  -  .db 140,156
 2029 D2:2AE5 8C 9F -  -  .db 140,159
 2030 D2:2AE7 00 00 00 70 
              00 00 90 00 
              00 -  -  -  .f 0,7,9
 2031 D2:2AF0 00 -  -  -  .db 0
 2032 D2:2AF1 96 90 -  -  .db 150,144
 2033 D2:2AF3 90 90 -  -  .db 144,144
 2034 D2:2AF5 90 97 -  -  .db 144,151
 2035 D2:2AF7 90 00 00 40 
              00 00 00 00 
              00 -  -  -  .f 9,4,0
 2036 D2:2B00 00 -  -  -  .db 0
 2037 D2:2B01 90 97 -  -  .db 144,151
 2038 D2:2B03 96 97 -  -  .db 150,151
 2039 D2:2B05 96 90 -  -  .db 150,144
 2040 D2:2B07 10 00 00 00 
              00 00 20 00 
              00 -  -  -  .f 1,0,2
 2041 D2:2B10 00 -  -  -  .db 0
 2042 D2:2B11 E8 5C -  -  .db 232,92
 2043 D2:2B13 E8 67 -  -  .db 232,103
 2044 D2:2B15 F3 67 -  -  .db 243,103
 2045 D2:2B17 20 00 00 30 
              00 00 10 00 
              00 -  -  -  .f 2,3,1
 2046 D2:2B20 00 -  -  -  .db 0
 2047 D2:2B21 F3 67 -  -  .db 243,103
 2048 D2:2B23 F3 5C -  -  .db 243,92
 2049 D2:2B25 E8 5C -  -  .db 232,92
 2050 D2:2B27 80 00 00 70 
              00 00 00 00 
              00 -  -  -  .f 8,7,0
 2051 D2:2B30 00 -  -  -  .db 0
 2052 D2:2B31 F4 5C -  -  .db 244,92
 2053 D2:2B33 F4 67 -  -  .db 244,103
 2054 D2:2B35 FF 67 -  -  .db 255,103
 2055 D2:2B37 10 00 00 30 
              00 00 60 00 
              00 -  -  -  .f 1,3,6
 2056 D2:2B40 00 -  -  -  .db 0
 2057 D2:2B41 CC 67 -  -  .db 204,103
 2058 D2:2B43 DB 67 -  -  .db 219,103
 2059 D2:2B45 DB 5C -  -  .db 219,92
 2060 D2:2B47 60 00 00 50 
              00 00 10 00 
              00 -  -  -  .f 6,5,1
 2061 D2:2B50 00 -  -  -  .db 0
 2062 D2:2B51 DB 5C -  -  .db 219,92
 2063 D2:2B53 CC 5C -  -  .db 204,92
 2064 D2:2B55 CC 67 -  -  .db 204,103
 2065 D2:2B57 D0 02 00 A0 
              02 00 90 02 
              00 -  -  -  .f 45,42,41
 2066 D2:2B60 00 -  -  -  .db 0
 2067 D2:2B61 BB 2C -  -  .db 187,44
 2068 D2:2B63 B4 2C -  -  .db 180,44
 2069 D2:2B65 B4 3E -  -  .db 180,62
 2070 D2:2B67 D0 02 00 90 
              02 00 C0 02 
              00 -  -  -  .f 45,41,44
 2071 D2:2B70 00 -  -  -  .db 0
 2072 D2:2B71 BB 2C -  -  .db 187,44
 2073 D2:2B73 B4 3E -  -  .db 180,62
 2074 D2:2B75 BB 3E -  -  .db 187,62
 2075 D2:2B77 90 02 00 F0 
              01 00 10 02 
              00 -  -  -  .f 41,31,33
 2076 D2:2B80 00 -  -  -  .db 0
 2077 D2:2B81 96 9C -  -  .db 150,156
 2078 D2:2B83 94 9C -  -  .db 148,156
 2079 D2:2B85 94 9F -  -  .db 148,159
 2080 D2:2B87 90 02 00 10 
              02 00 80 02 
              00 -  -  -  .f 41,33,40
 2081 D2:2B90 00 -  -  -  .db 0
 2082 D2:2B91 96 9C -  -  .db 150,156
 2083 D2:2B93 94 9F -  -  .db 148,159
 2084 D2:2B95 96 9F -  -  .db 150,159
 2085 D2:2B97 A0 02 00 E0 
              01 00 F0 01 
              00 -  -  -  .f 42,30,31
 2086 D2:2BA0 00 -  -  -  .db 0
 2087 D2:2BA1 B2 2C -  -  .db 178,44
 2088 D2:2BA3 AC 2C -  -  .db 172,44
 2089 D2:2BA5 AC 3E -  -  .db 172,62
 2090 D2:2BA7 A0 02 00 F0 
              01 00 90 02 
              00 -  -  -  .f 42,31,41
 2091 D2:2BB0 00 -  -  -  .db 0
 2092 D2:2BB1 B2 2C -  -  .db 178,44
 2093 D2:2BB3 AC 3E -  -  .db 172,62
 2094 D2:2BB5 B2 3E -  -  .db 178,62
 2095 D2:2BB7 E0 01 00 80 
              01 00 B0 01 
              00 -  -  -  .f 30,24,27
 2096 D2:2BC0 00 -  -  -  .db 0
 2097 D2:2BC1 C3 2C -  -  .db 195,44
 2098 D2:2BC3 BC 2C -  -  .db 188,44
 2099 D2:2BC5 BC 3E -  -  .db 188,62
 2100 D2:2BC7 E0 01 00 B0 
              01 00 F0 01 
              00 -  -  -  .f 30,27,31
 2101 D2:2BD0 00 -  -  -  .db 0
 2102 D2:2BD1 C3 2C -  -  .db 195,44
 2103 D2:2BD3 BC 3E -  -  .db 188,62
 2104 D2:2BD5 C3 3E -  -  .db 195,62
 2105 D2:2BD7 A0 02 00 D0 
              02 00 30 02 
              00 -  -  -  .f 42,45,35
 2106 D2:2BE0 00 -  -  -  .db 0
 2107 D2:2BE1 82 9C -  -  .db 130,156
 2108 D2:2BE3 80 9C -  -  .db 128,156
 2109 D2:2BE5 80 9F -  -  .db 128,159
 2110 D2:2BE7 A0 02 00 30 
              02 00 80 01 
              00 -  -  -  .f 42,35,24
 2111 D2:2BF0 00 -  -  -  .db 0
 2112 D2:2BF1 82 9C -  -  .db 130,156
 2113 D2:2BF3 80 9F -  -  .db 128,159
 2114 D2:2BF5 82 9F -  -  .db 130,159
 2115 D2:2BF7 50 01 00 40 
              01 00 60 01 
              00 -  -  -  .f 21,20,22
 2116 D2:2C00 00 -  -  -  .db 0
 2117 D2:2C01 AA 6C -  -  .db 170,108
 2118 D2:2C03 A4 6C -  -  .db 164,108
 2119 D2:2C05 A4 77 -  -  .db 164,119
 2120 D2:2C07 50 01 00 60 
              01 00 70 01 
              00 -  -  -  .f 21,22,23
 2121 D2:2C10 00 -  -  -  .db 0
 2122 D2:2C11 AA 6C -  -  .db 170,108
 2123 D2:2C13 A4 77 -  -  .db 164,119
 2124 D2:2C15 AA 77 -  -  .db 170,119
 2125 D2:2C17 A0 01 00 90 
              01 00 40 01 
              00 -  -  -  .f 26,25,20
 2126 D2:2C20 00 -  -  -  .db 0
 2127 D2:2C21 A4 6C -  -  .db 164,108
 2128 D2:2C23 AA 6C -  -  .db 170,108
 2129 D2:2C25 AA 77 -  -  .db 170,119
 2130 D2:2C27 A0 01 00 40 
              01 00 50 01 
              00 -  -  -  .f 26,20,21
 2131 D2:2C30 00 -  -  -  .db 0
 2132 D2:2C31 A4 6C -  -  .db 164,108
 2133 D2:2C33 AA 77 -  -  .db 170,119
 2134 D2:2C35 A4 77 -  -  .db 164,119
 2135 D2:2C37 50 02 00 70 
              02 00 80 02 
              00 -  -  -  .f 37,39,40
 2136 D2:2C40 00 -  -  -  .db 0
 2137 D2:2C41 96 9C -  -  .db 150,156
 2138 D2:2C43 94 9C -  -  .db 148,156
 2139 D2:2C45 94 9F -  -  .db 148,159
 2140 D2:2C47 80 02 00 70 
              02 00 B0 02 
              00 -  -  -  .f 40,39,43
 2141 D2:2C50 00 -  -  -  .db 0
 2142 D2:2C51 96 9C -  -  .db 150,156
 2143 D2:2C53 94 9C -  -  .db 148,156
 2144 D2:2C55 94 9F -  -  .db 148,159
 2145 D2:2C57 10 02 00 50 
              02 00 80 02 
              00 -  -  -  .f 33,37,40
 2146 D2:2C60 00 -  -  -  .db 0
 2147 D2:2C61 96 9C -  -  .db 150,156
 2148 D2:2C63 94 9C -  -  .db 148,156
 2149 D2:2C65 94 9F -  -  .db 148,159
 2150 D2:2C67 00 02 00 20 
              02 00 10 02 
              00 -  -  -  .f 32,34,33
 2151 D2:2C70 00 -  -  -  .db 0
 2152 D2:2C71 96 9C -  -  .db 150,156
 2153 D2:2C73 94 9C -  -  .db 148,156
 2154 D2:2C75 94 9F -  -  .db 148,159
 2155 D2:2C77 50 02 00 10 
              02 00 20 02 
              00 -  -  -  .f 37,33,34
 2156 D2:2C80 00 -  -  -  .db 0
 2157 D2:2C81 96 9C -  -  .db 150,156
 2158 D2:2C83 94 9C -  -  .db 148,156
 2159 D2:2C85 94 9F -  -  .db 148,159
 2160 D2:2C87 70 02 00 20 
              02 00 60 02 
              00 -  -  -  .f 39,34,38
 2161 D2:2C90 00 -  -  -  .db 0
 2162 D2:2C91 96 9C -  -  .db 150,156
 2163 D2:2C93 94 9C -  -  .db 148,156
 2164 D2:2C95 94 9F -  -  .db 148,159
 2165 D2:2C97 60 02 00 20 
              02 00 00 02 
              00 -  -  -  .f 38,34,32
 2166 D2:2CA0 00 -  -  -  .db 0
 2167 D2:2CA1 96 9C -  -  .db 150,156
 2168 D2:2CA3 94 9C -  -  .db 148,156
 2169 D2:2CA5 94 9F -  -  .db 148,159
 2170 D2:2CA7 B0 02 00 70 
              02 00 60 02 
              00 -  -  -  .f 43,39,38
 2171 D2:2CB0 00 -  -  -  .db 0
 2172 D2:2CB1 96 9C -  -  .db 150,156
 2173 D2:2CB3 94 9C -  -  .db 148,156
 2174 D2:2CB5 94 9F -  -  .db 148,159
 2175 D2:2CB7 80 02 00 B0 
              02 00 90 02 
              00 -  -  -  .f 40,43,41
 2176 D2:2CC0 00 -  -  -  .db 0
 2177 D2:2CC1 96 9C -  -  .db 150,156
 2178 D2:2CC3 94 9C -  -  .db 148,156
 2179 D2:2CC5 94 9F -  -  .db 148,159
 2180 D2:2CC7 00 02 00 10 
              02 00 B0 01 
              00 -  -  -  .f 32,33,27
 2181 D2:2CD0 00 -  -  -  .db 0
 2182 D2:2CD1 96 9C -  -  .db 150,156
 2183 D2:2CD3 94 9C -  -  .db 148,156
 2184 D2:2CD5 94 9F -  -  .db 148,159
 2185 D2:2CD7 40 02 00 60 
              02 00 00 02 
              00 -  -  -  .f 36,38,32
 2186 D2:2CE0 00 -  -  -  .db 0
 2187 D2:2CE1 B2 6C -  -  .db 178,108
 2188 D2:2CE3 B2 77 -  -  .db 178,119
 2189 D2:2CE5 AC 77 -  -  .db 172,119
 2190 D2:2CE7 B0 01 00 80 
              01 00 30 02 
              00 -  -  -  .f 27,24,35
 2191 D2:2CF0 00 -  -  -  .db 0
 2192 D2:2CF1 AA 3E -  -  .db 170,62
 2193 D2:2CF3 AA 2C -  -  .db 170,44
 2194 D2:2CF5 A4 2C -  -  .db 164,44
 2195 D2:2CF7 C0 02 00 B0 
              02 00 60 02 
              00 -  -  -  .f 44,43,38
 2196 D2:2D00 00 -  -  -  .db 0
 2197 D2:2D01 AC 6C -  -  .db 172,108
 2198 D2:2D03 AC 77 -  -  .db 172,119
 2199 D2:2D05 B2 77 -  -  .db 178,119
 2200 D2:2D07 40 02 00 30 
              02 00 D0 02 
              00 -  -  -  .f 36,35,45
 2201 D2:2D10 00 -  -  -  .db 0
 2202 D2:2D11 A2 3E -  -  .db 162,62
 2203 D2:2D13 A2 2C -  -  .db 162,44
 2204 D2:2D15 9C 2C -  -  .db 156,44
 2205 D2:2D17 E0 01 00 A0 
              02 00 80 01 
              00 -  -  -  .f 30,42,24
 2206 D2:2D20 00 -  -  -  .db 0
 2207 D2:2D21 82 9C -  -  .db 130,156
 2208 D2:2D23 80 9C -  -  .db 128,156
 2209 D2:2D25 80 9F -  -  .db 128,159
 2210 D2:2D27 20 02 00 70 
              02 00 50 02 
              00 -  -  -  .f 34,39,37
 2211 D2:2D30 00 -  -  -  .db 0
 2212 D2:2D31 96 9C -  -  .db 150,156
 2213 D2:2D33 94 9C -  -  .db 148,156
 2214 D2:2D35 94 9F -  -  .db 148,159
 2215 D2:2D37 60 01 00 C0 
              01 00 D0 01 
              00 -  -  -  .f 22,28,29
 2216 D2:2D40 00 -  -  -  .db 0
 2217 D2:2D41 A4 6C -  -  .db 164,108
 2218 D2:2D43 A4 77 -  -  .db 164,119
 2219 D2:2D45 AA 77 -  -  .db 170,119
 2220 D2:2D47 D0 01 00 70 
              01 00 60 01 
              00 -  -  -  .f 29,23,22
 2221 D2:2D50 00 -  -  -  .db 0
 2222 D2:2D51 AA 77 -  -  .db 170,119
 2223 D2:2D53 AA 6C -  -  .db 170,108
 2224 D2:2D55 A4 6C -  -  .db 164,108
 2225 D2:2D57 70 01 00 D0 
              01 00 A0 01 
              00 -  -  -  .f 23,29,26
 2226 D2:2D60 00 -  -  -  .db 0
 2227 D2:2D61 A4 77 -  -  .db 164,119
 2228 D2:2D63 AA 77 -  -  .db 170,119
 2229 D2:2D65 AA 6C -  -  .db 170,108
 2230 D2:2D67 A0 01 00 50 
              01 00 70 01 
              00 -  -  -  .f 26,21,23
 2231 D2:2D70 00 -  -  -  .db 0
 2232 D2:2D71 AA 6C -  -  .db 170,108
 2233 D2:2D73 A4 6C -  -  .db 164,108
 2234 D2:2D75 A4 77 -  -  .db 164,119
 2235 D2:2D77 40 01 00 90 
              01 00 C0 01 
              00 -  -  -  .f 20,25,28
 2236 D2:2D80 00 -  -  -  .db 0
 2237 D2:2D81 AA 6C -  -  .db 170,108
 2238 D2:2D83 A4 6C -  -  .db 164,108
 2239 D2:2D85 A4 77 -  -  .db 164,119
 2240 D2:2D87 C0 01 00 60 
              01 00 40 01 
              00 -  -  -  .f 28,22,20
 2241 D2:2D90 00 -  -  -  .db 0
 2242 D2:2D91 A4 77 -  -  .db 164,119
 2243 D2:2D93 AA 77 -  -  .db 170,119
 2244 D2:2D95 AA 6C -  -  .db 170,108
 2245 D2:2D97 00 02 00 B0 
              01 00 40 02 
              00 -  -  -  .f 32,27,36
 2246 D2:2DA0 00 -  -  -  .db 0
 2247 D2:2DA1 AC 77 -  -  .db 172,119
 2248 D2:2DA3 AC 6C -  -  .db 172,108
 2249 D2:2DA5 B2 6C -  -  .db 178,108
 2250 D2:2DA7 D0 02 00 C0 
              02 00 40 02 
              00 -  -  -  .f 45,44,36
 2251 D2:2DB0 00 -  -  -  .db 0
 2252 D2:2DB1 9C 2C -  -  .db 156,44
 2253 D2:2DB3 9C 3E -  -  .db 156,62
 2254 D2:2DB5 A2 3E -  -  .db 162,62
 2255 D2:2DB7 60 02 00 40 
              02 00 C0 02 
              00 -  -  -  .f 38,36,44
 2256 D2:2DC0 00 -  -  -  .db 0
 2257 D2:2DC1 B2 77 -  -  .db 178,119
 2258 D2:2DC3 B2 6C -  -  .db 178,108
 2259 D2:2DC5 AC 6C -  -  .db 172,108
 2260 D2:2DC7 B0 02 00 C0 
              02 00 90 02 
              00 -  -  -  .f 43,44,41
 2261 D2:2DD0 00 -  -  -  .db 0
 2262 D2:2DD1 96 9C -  -  .db 150,156
 2263 D2:2DD3 94 9C -  -  .db 148,156
 2264 D2:2DD5 94 9F -  -  .db 148,159
 2265 D2:2DD7 10 02 00 F0 
              01 00 B0 01 
              00 -  -  -  .f 33,31,27
 2266 D2:2DE0 00 -  -  -  .db 0
 2267 D2:2DE1 96 9C -  -  .db 150,156
 2268 D2:2DE3 94 9C -  -  .db 148,156
 2269 D2:2DE5 94 9F -  -  .db 148,159
 2270 D2:2DE7 30 02 00 40 
              02 00 B0 01 
              00 -  -  -  .f 35,36,27
 2271 D2:2DF0 00 -  -  -  .db 0
 2272 D2:2DF1 A4 2C -  -  .db 164,44
 2273 D2:2DF3 A4 3E -  -  .db 164,62
 2274 D2:2DF5 AA 3E -  -  .db 170,62
 2275 D2:2DF7 D0 01 00 C0 
              01 00 90 01 
              00 -  -  -  .f 29,28,25
 2276 D2:2E00 00 -  -  -  .db 0
 2277 D2:2E01 7F 2B -  -  .db 127,43
 2278 D2:2E03 7F 2B -  -  .db 127,43
 2279 D2:2E05 7F 2B -  -  .db 127,43
 2280 D2:2E07 D0 01 00 90 
              01 00 A0 01 
              00 -  -  -  .f 29,25,26
 2281 D2:2E10 00 -  -  -  .db 0
 2282 D2:2E11 7F 2B -  -  .db 127,43
 2283 D2:2E13 7F 2B -  -  .db 127,43
 2284 D2:2E15 7F 2B -  -  .db 127,43
 2285 D2:2E17 E0 03 00 60 
              03 00 00 03 
              00 -  -  -  .f 62,54,48
 2286 D2:2E20 00 -  -  -  .db 0
 2287 D2:2E21 A8 90 -  -  .db 168,144
 2288 D2:2E23 AE 90 -  -  .db 174,144
 2289 D2:2E25 AE 97 -  -  .db 174,151
 2290 D2:2E27 E0 03 00 00 
              03 00 20 04 
              00 -  -  -  .f 62,48,66
 2291 D2:2E30 00 -  -  -  .db 0
 2292 D2:2E31 A8 90 -  -  .db 168,144
 2293 D2:2E33 AE 97 -  -  .db 174,151
 2294 D2:2E35 A8 97 -  -  .db 168,151
 2295 D2:2E37 E0 03 00 10 
              04 00 B0 03 
              00 -  -  -  .f 62,65,59
 2296 D2:2E40 00 -  -  -  .db 0
 2297 D2:2E41 96 9C -  -  .db 150,156
 2298 D2:2E43 94 9C -  -  .db 148,156
 2299 D2:2E45 94 9F -  -  .db 148,159
 2300 D2:2E47 E0 03 00 B0 
              03 00 30 03 
              00 -  -  -  .f 62,59,51
 2301 D2:2E50 00 -  -  -  .db 0
 2302 D2:2E51 96 9C -  -  .db 150,156
 2303 D2:2E53 94 9F -  -  .db 148,159
 2304 D2:2E55 96 9F -  -  .db 150,159
 2305 D2:2E57 20 04 00 00 
              03 00 10 03 
              00 -  -  -  .f 66,48,49
 2306 D2:2E60 00 -  -  -  .db 0
 2307 D2:2E61 A8 90 -  -  .db 168,144
 2308 D2:2E63 AE 90 -  -  .db 174,144
 2309 D2:2E65 AE 97 -  -  .db 174,151
 2310 D2:2E67 20 04 00 10 
              03 00 F0 03 
              00 -  -  -  .f 66,49,63
 2311 D2:2E70 00 -  -  -  .db 0
 2312 D2:2E71 A8 90 -  -  .db 168,144
 2313 D2:2E73 AE 97 -  -  .db 174,151
 2314 D2:2E75 A8 97 -  -  .db 168,151
 2315 D2:2E77 F0 03 00 10 
              03 00 50 03 
              00 -  -  -  .f 63,49,53
 2316 D2:2E80 00 -  -  -  .db 0
 2317 D2:2E81 8C 5C -  -  .db 140,92
 2318 D2:2E83 92 5C -  -  .db 146,92
 2319 D2:2E85 92 6B -  -  .db 146,107
 2320 D2:2E87 F0 03 00 50 
              03 00 D0 03 
              00 -  -  -  .f 63,53,61
 2321 D2:2E90 00 -  -  -  .db 0
 2322 D2:2E91 8C 5C -  -  .db 140,92
 2323 D2:2E93 92 6B -  -  .db 146,107
 2324 D2:2E95 8C 6B -  -  .db 140,107
 2325 D2:2E97 80 03 00 C0 
              03 00 D0 03 
              00 -  -  -  .f 56,60,61
 2326 D2:2EA0 00 -  -  -  .db 0
 2327 D2:2EA1 98 9F -  -  .db 152,159
 2328 D2:2EA3 98 9C -  -  .db 152,156
 2329 D2:2EA5 9A 9C -  -  .db 154,156
 2330 D2:2EA7 D0 03 00 C0 
              03 00 00 04 
              00 -  -  -  .f 61,60,64
 2331 D2:2EB0 00 -  -  -  .db 0
 2332 D2:2EB1 98 9F -  -  .db 152,159
 2333 D2:2EB3 98 9C -  -  .db 152,156
 2334 D2:2EB5 9A 9C -  -  .db 154,156
 2335 D2:2EB7 50 03 00 80 
              03 00 D0 03 
              00 -  -  -  .f 53,56,61
 2336 D2:2EC0 00 -  -  -  .db 0
 2337 D2:2EC1 98 9F -  -  .db 152,159
 2338 D2:2EC3 98 9C -  -  .db 152,156
 2339 D2:2EC5 9A 9C -  -  .db 154,156
 2340 D2:2EC7 20 03 00 40 
              03 00 50 03 
              00 -  -  -  .f 50,52,53
 2341 D2:2ED0 00 -  -  -  .db 0
 2342 D2:2ED1 98 9F -  -  .db 152,159
 2343 D2:2ED3 98 9C -  -  .db 152,156
 2344 D2:2ED5 9A 9C -  -  .db 154,156
 2345 D2:2ED7 80 03 00 50 
              03 00 40 03 
              00 -  -  -  .f 56,53,52
 2346 D2:2EE0 00 -  -  -  .db 0
 2347 D2:2EE1 98 9F -  -  .db 152,159
 2348 D2:2EE3 98 9C -  -  .db 152,156
 2349 D2:2EE5 9A 9C -  -  .db 154,156
 2350 D2:2EE7 C0 03 00 40 
              03 00 A0 03 
              00 -  -  -  .f 60,52,58
 2351 D2:2EF0 00 -  -  -  .db 0
 2352 D2:2EF1 98 9F -  -  .db 152,159
 2353 D2:2EF3 98 9C -  -  .db 152,156
 2354 D2:2EF5 9A 9C -  -  .db 154,156
 2355 D2:2EF7 A0 03 00 40 
              03 00 20 03 
              00 -  -  -  .f 58,52,50
 2356 D2:2F00 00 -  -  -  .db 0
 2357 D2:2F01 98 9F -  -  .db 152,159
 2358 D2:2F03 98 9C -  -  .db 152,156
 2359 D2:2F05 9A 9C -  -  .db 154,156
 2360 D2:2F07 00 04 00 C0 
              03 00 A0 03 
              00 -  -  -  .f 64,60,58
 2361 D2:2F10 00 -  -  -  .db 0
 2362 D2:2F11 98 9F -  -  .db 152,159
 2363 D2:2F13 98 9C -  -  .db 152,156
 2364 D2:2F15 9A 9C -  -  .db 154,156
 2365 D2:2F17 20 04 00 40 
              04 00 10 04 
              00 -  -  -  .f 66,68,65
 2366 D2:2F20 00 -  -  -  .db 0
 2367 D2:2F21 A8 97 -  -  .db 168,151
 2368 D2:2F23 AE 97 -  -  .db 174,151
 2369 D2:2F25 AE 90 -  -  .db 174,144
 2370 D2:2F27 10 04 00 E0 
              03 00 20 04 
              00 -  -  -  .f 65,62,66
 2371 D2:2F30 00 -  -  -  .db 0
 2372 D2:2F31 AE 90 -  -  .db 174,144
 2373 D2:2F33 A8 90 -  -  .db 168,144
 2374 D2:2F35 A8 97 -  -  .db 168,151
 2375 D2:2F37 30 03 00 E0 
              02 00 00 03 
              00 -  -  -  .f 51,46,48
 2376 D2:2F40 00 -  -  -  .db 0
 2377 D2:2F41 A8 90 -  -  .db 168,144
 2378 D2:2F43 A8 97 -  -  .db 168,151
 2379 D2:2F45 AE 97 -  -  .db 174,151
 2380 D2:2F47 00 03 00 60 
              03 00 30 03 
              00 -  -  -  .f 48,54,51
 2381 D2:2F50 00 -  -  -  .db 0
 2382 D2:2F51 AE 97 -  -  .db 174,151
 2383 D2:2F53 AE 90 -  -  .db 174,144
 2384 D2:2F55 A8 90 -  -  .db 168,144
 2385 D2:2F57 90 03 00 E0 
              02 00 30 03 
              00 -  -  -  .f 57,46,51
 2386 D2:2F60 00 -  -  -  .db 0
 2387 D2:2F61 A8 97 -  -  .db 168,151
 2388 D2:2F63 AE 97 -  -  .db 174,151
 2389 D2:2F65 AE 90 -  -  .db 174,144
 2390 D2:2F67 30 03 00 B0 
              03 00 90 03 
              00 -  -  -  .f 51,59,57
 2391 D2:2F70 00 -  -  -  .db 0
 2392 D2:2F71 AE 90 -  -  .db 174,144
 2393 D2:2F73 A8 90 -  -  .db 168,144
 2394 D2:2F75 A8 97 -  -  .db 168,151
 2395 D2:2F77 10 04 00 40 
              04 00 90 03 
              00 -  -  -  .f 65,68,57
 2396 D2:2F80 00 -  -  -  .db 0
 2397 D2:2F81 AE 90 -  -  .db 174,144
 2398 D2:2F83 AE 97 -  -  .db 174,151
 2399 D2:2F85 A8 97 -  -  .db 168,151
 2400 D2:2F87 90 03 00 B0 
              03 00 10 04 
              00 -  -  -  .f 57,59,65
 2401 D2:2F90 00 -  -  -  .db 0
 2402 D2:2F91 A8 97 -  -  .db 168,151
 2403 D2:2F93 A8 90 -  -  .db 168,144
 2404 D2:2F95 AE 90 -  -  .db 174,144
 2405 D2:2F97 60 03 00 E0 
              03 00 30 03 
              00 -  -  -  .f 54,62,51
 2406 D2:2FA0 00 -  -  -  .db 0
 2407 D2:2FA1 96 9C -  -  .db 150,156
 2408 D2:2FA3 94 9C -  -  .db 148,156
 2409 D2:2FA5 94 9F -  -  .db 148,159
 2410 D2:2FA7 40 03 00 C0 
              03 00 80 03 
              00 -  -  -  .f 52,60,56
 2411 D2:2FB0 00 -  -  -  .db 0
 2412 D2:2FB1 98 9F -  -  .db 152,159
 2413 D2:2FB3 98 9C -  -  .db 152,156
 2414 D2:2FB5 9A 9C -  -  .db 154,156
 2415 D2:2FB7 40 04 00 20 
              04 00 F0 03 
              00 -  -  -  .f 68,66,63
 2416 D2:2FC0 00 -  -  -  .db 0
 2417 D2:2FC1 AE 90 -  -  .db 174,144
 2418 D2:2FC3 A8 90 -  -  .db 168,144
 2419 D2:2FC5 A8 97 -  -  .db 168,151
 2420 D2:2FC7 F0 03 00 30 
              04 00 40 04 
              00 -  -  -  .f 63,67,68
 2421 D2:2FD0 00 -  -  -  .db 0
 2422 D2:2FD1 A8 97 -  -  .db 168,151
 2423 D2:2FD3 AE 97 -  -  .db 174,151
 2424 D2:2FD5 AE 90 -  -  .db 174,144
 2425 D2:2FD7 E0 02 00 F0 
              02 00 10 03 
              00 -  -  -  .f 46,47,49
 2426 D2:2FE0 00 -  -  -  .db 0
 2427 D2:2FE1 A8 90 -  -  .db 168,144
 2428 D2:2FE3 A8 97 -  -  .db 168,151
 2429 D2:2FE5 AE 97 -  -  .db 174,151
 2430 D2:2FE7 10 03 00 00 
              03 00 E0 02 
              00 -  -  -  .f 49,48,46
 2431 D2:2FF0 00 -  -  -  .db 0
 2432 D2:2FF1 AE 97 -  -  .db 174,151
 2433 D2:2FF3 AE 90 -  -  .db 174,144
 2434 D2:2FF5 A8 90 -  -  .db 168,144
 2435 D2:2FF7 90 03 00 70 
              03 00 F0 02 
              00 -  -  -  .f 57,55,47
 2436 D2:3000 00 -  -  -  .db 0
 2437 D2:3001 A8 90 -  -  .db 168,144
 2438 D2:3003 A8 97 -  -  .db 168,151
 2439 D2:3005 AE 97 -  -  .db 174,151
 2440 D2:3007 F0 02 00 E0 
              02 00 90 03 
              00 -  -  -  .f 47,46,57
 2441 D2:3010 00 -  -  -  .db 0
 2442 D2:3011 AE 97 -  -  .db 174,151
 2443 D2:3013 AE 90 -  -  .db 174,144
 2444 D2:3015 A8 90 -  -  .db 168,144
 2445 D2:3017 90 03 00 40 
              04 00 30 04 
              00 -  -  -  .f 57,68,67
 2446 D2:3020 00 -  -  -  .db 0
 2447 D2:3021 AE 90 -  -  .db 174,144
 2448 D2:3023 A8 90 -  -  .db 168,144
 2449 D2:3025 A8 97 -  -  .db 168,151
 2450 D2:3027 30 04 00 70 
              03 00 90 03 
              00 -  -  -  .f 67,55,57
 2451 D2:3030 00 -  -  -  .db 0
 2452 D2:3031 A8 97 -  -  .db 168,151
 2453 D2:3033 AE 97 -  -  .db 174,151
 2454 D2:3035 AE 90 -  -  .db 174,144
 2455 D2:3037 F0 03 00 D0 
              03 00 00 04 
              00 -  -  -  .f 63,61,64
 2456 D2:3040 00 -  -  -  .db 0
 2457 D2:3041 F8 4C -  -  .db 248,76
 2458 D2:3043 F8 5A -  -  .db 248,90
 2459 D2:3045 FF 5A -  -  .db 255,90
 2460 D2:3047 00 04 00 30 
              04 00 F0 03 
              00 -  -  -  .f 64,67,63
 2461 D2:3050 00 -  -  -  .db 0
 2462 D2:3051 FF 5A -  -  .db 255,90
 2463 D2:3053 FF 4C -  -  .db 255,76
 2464 D2:3055 F8 4C -  -  .db 248,76
 2465 D2:3057 10 03 00 F0 
              02 00 20 03 
              00 -  -  -  .f 49,47,50
 2466 D2:3060 00 -  -  -  .db 0
 2467 D2:3061 F8 4C -  -  .db 248,76
 2468 D2:3063 FF 4C -  -  .db 255,76
 2469 D2:3065 FF 5A -  -  .db 255,90
 2470 D2:3067 20 03 00 50 
              03 00 10 03 
              00 -  -  -  .f 50,53,49
 2471 D2:3070 00 -  -  -  .db 0
 2472 D2:3071 FF 5A -  -  .db 255,90
 2473 D2:3073 F8 5A -  -  .db 248,90
 2474 D2:3075 F8 4C -  -  .db 248,76
 2475 D2:3077 70 03 00 A0 
              03 00 20 03 
              00 -  -  -  .f 55,58,50
 2476 D2:3080 00 -  -  -  .db 0
 2477 D2:3081 9A 5C -  -  .db 154,92
 2478 D2:3083 9A 6B -  -  .db 154,107
 2479 D2:3085 94 6B -  -  .db 148,107
 2480 D2:3087 20 03 00 F0 
              02 00 70 03 
              00 -  -  -  .f 50,47,55
 2481 D2:3090 00 -  -  -  .db 0
 2482 D2:3091 94 6B -  -  .db 148,107
 2483 D2:3093 94 5C -  -  .db 148,92
 2484 D2:3095 9A 5C -  -  .db 154,92
 2485 D2:3097 70 03 00 30 
              04 00 00 04 
              00 -  -  -  .f 55,67,64
 2486 D2:30A0 00 -  -  -  .db 0
 2487 D2:30A1 9A 5C -  -  .db 154,92
 2488 D2:30A3 94 5C -  -  .db 148,92
 2489 D2:30A5 94 6B -  -  .db 148,107
 2490 D2:30A7 00 04 00 A0 
              03 00 70 03 
              00 -  -  -  .f 64,58,55
 2491 D2:30B0 00 -  -  -  .db 0
 2492 D2:30B1 94 6B -  -  .db 148,107
 2493 D2:30B3 9A 6B -  -  .db 154,107
 2494 D2:30B5 9A 5C -  -  .db 154,92
 2495 D2:30B7 C0 04 00 D0 
              04 00 E0 04 
              00 -  -  -  .f 76,77,78
 2496 D2:30C0 00 -  -  -  .db 0
 2497 D2:30C1 B7 90 -  -  .db 183,144
 2498 D2:30C3 B0 90 -  -  .db 176,144
 2499 D2:30C5 B0 97 -  -  .db 176,151
 2500 D2:30C7 C0 04 00 E0 
              04 00 90 04 
              00 -  -  -  .f 76,78,73
 2501 D2:30D0 00 -  -  -  .db 0
 2502 D2:30D1 B7 90 -  -  .db 183,144
 2503 D2:30D3 B0 97 -  -  .db 176,151
 2504 D2:30D5 B7 97 -  -  .db 183,151
 2505 D2:30D7 50 04 00 40 
              05 00 10 05 
              00 -  -  -  .f 69,84,81
 2506 D2:30E0 00 -  -  -  .db 0
 2507 D2:30E1 B4 6C -  -  .db 180,108
 2508 D2:30E3 BB 6C -  -  .db 187,108
 2509 D2:30E5 BB 77 -  -  .db 187,119
 2510 D2:30E7 50 04 00 10 
              05 00 80 04 
              00 -  -  -  .f 69,81,72
 2511 D2:30F0 00 -  -  -  .db 0
 2512 D2:30F1 B4 6C -  -  .db 180,108
 2513 D2:30F3 BB 77 -  -  .db 187,119
 2514 D2:30F5 B4 77 -  -  .db 180,119
 2515 D2:30F7 F0 04 00 A0 
              04 00 B0 04 
              00 -  -  -  .f 79,74,75
 2516 D2:3100 00 -  -  -  .db 0
 2517 D2:3101 98 9C -  -  .db 152,156
 2518 D2:3103 9A 9C -  -  .db 154,156
 2519 D2:3105 9A 9F -  -  .db 154,159
 2520 D2:3107 F0 04 00 B0 
              04 00 00 05 
              00 -  -  -  .f 79,75,80
 2521 D2:3110 00 -  -  -  .db 0
 2522 D2:3111 98 9C -  -  .db 152,156
 2523 D2:3113 9A 9F -  -  .db 154,159
 2524 D2:3115 98 9F -  -  .db 152,159
 2525 D2:3117 20 05 00 70 
              04 00 80 04 
              00 -  -  -  .f 82,71,72
 2526 D2:3120 00 -  -  -  .db 0
 2527 D2:3121 88 90 -  -  .db 136,144
 2528 D2:3123 8E 90 -  -  .db 142,144
 2529 D2:3125 8E 97 -  -  .db 142,151
 2530 D2:3127 20 05 00 80 
              04 00 10 05 
              00 -  -  -  .f 82,72,81
 2531 D2:3130 00 -  -  -  .db 0
 2532 D2:3131 88 90 -  -  .db 136,144
 2533 D2:3133 8E 97 -  -  .db 142,151
 2534 D2:3135 88 97 -  -  .db 136,151
 2535 D2:3137 00 05 00 B0 
              04 00 70 04 
              00 -  -  -  .f 80,75,71
 2536 D2:3140 00 -  -  -  .db 0
 2537 D2:3141 F4 98 -  -  .db 244,152
 2538 D2:3143 FB 98 -  -  .db 251,152
 2539 D2:3145 FB 9B -  -  .db 251,155
 2540 D2:3147 00 05 00 70 
              04 00 20 05 
              00 -  -  -  .f 80,71,82
 2541 D2:3150 00 -  -  -  .db 0
 2542 D2:3151 F4 98 -  -  .db 244,152
 2543 D2:3153 FB 9B -  -  .db 251,155
 2544 D2:3155 F4 9B -  -  .db 244,155
 2545 D2:3157 A0 04 00 F0 
              04 00 30 05 
              00 -  -  -  .f 74,79,83
 2546 D2:3160 00 -  -  -  .db 0
 2547 D2:3161 E7 88 -  -  .db 231,136
 2548 D2:3163 E0 88 -  -  .db 224,136
 2549 D2:3165 E0 8F -  -  .db 224,143
 2550 D2:3167 A0 04 00 30 
              05 00 60 04 
              00 -  -  -  .f 74,83,70
 2551 D2:3170 00 -  -  -  .db 0
 2552 D2:3171 E7 88 -  -  .db 231,136
 2553 D2:3173 E0 8F -  -  .db 224,143
 2554 D2:3175 E7 8F -  -  .db 231,143
 2555 D2:3177 60 04 00 30 
              05 00 D0 04 
              00 -  -  -  .f 70,83,77
 2556 D2:3180 00 -  -  -  .db 0
 2557 D2:3181 BF 90 -  -  .db 191,144
 2558 D2:3183 B8 90 -  -  .db 184,144
 2559 D2:3185 B8 97 -  -  .db 184,151
 2560 D2:3187 60 04 00 D0 
              04 00 C0 04 
              00 -  -  -  .f 70,77,76
 2561 D2:3190 00 -  -  -  .db 0
 2562 D2:3191 BF 90 -  -  .db 191,144
 2563 D2:3193 B8 97 -  -  .db 184,151
 2564 D2:3195 BF 97 -  -  .db 191,151
 2565 D2:3197 80 04 00 70 
              04 00 60 04 
              00 -  -  -  .f 72,71,70
 2566 D2:31A0 00 -  -  -  .db 0
 2567 D2:31A1 8E 8F -  -  .db 142,143
 2568 D2:31A3 8E 88 -  -  .db 142,136
 2569 D2:31A5 80 88 -  -  .db 128,136
 2570 D2:31A7 60 04 00 50 
              04 00 80 04 
              00 -  -  -  .f 70,69,72
 2571 D2:31B0 00 -  -  -  .db 0
 2572 D2:31B1 80 88 -  -  .db 128,136
 2573 D2:31B3 80 8F -  -  .db 128,143
 2574 D2:31B5 8E 8F -  -  .db 142,143
 2575 D2:31B7 30 05 00 20 
              05 00 10 05 
              00 -  -  -  .f 83,82,81
 2576 D2:31C0 00 -  -  -  .db 0
 2577 D2:31C1 80 88 -  -  .db 128,136
 2578 D2:31C3 8E 88 -  -  .db 142,136
 2579 D2:31C5 8E 8F -  -  .db 142,143
 2580 D2:31C7 10 05 00 40 
              05 00 30 05 
              00 -  -  -  .f 81,84,83
 2581 D2:31D0 00 -  -  -  .db 0
 2582 D2:31D1 8E 8F -  -  .db 142,143
 2583 D2:31D3 80 8F -  -  .db 128,143
 2584 D2:31D5 80 88 -  -  .db 128,136
 2585 D2:31D7 A0 04 00 60 
              04 00 70 04 
              00 -  -  -  .f 74,70,71
 2586 D2:31E0 00 -  -  -  .db 0
 2587 D2:31E1 90 88 -  -  .db 144,136
 2588 D2:31E3 90 8F -  -  .db 144,143
 2589 D2:31E5 9E 8F -  -  .db 158,143
 2590 D2:31E7 70 04 00 B0 
              04 00 A0 04 
              00 -  -  -  .f 71,75,74
 2591 D2:31F0 00 -  -  -  .db 0
 2592 D2:31F1 9E 8F -  -  .db 158,143
 2593 D2:31F3 9E 88 -  -  .db 158,136
 2594 D2:31F5 90 88 -  -  .db 144,136
 2595 D2:31F7 00 05 00 20 
              05 00 30 05 
              00 -  -  -  .f 80,82,83
 2596 D2:3200 00 -  -  -  .db 0
 2597 D2:3201 9E 88 -  -  .db 158,136
 2598 D2:3203 9E 8F -  -  .db 158,143
 2599 D2:3205 90 8F -  -  .db 144,143
 2600 D2:3207 30 05 00 F0 
              04 00 00 05 
              00 -  -  -  .f 83,79,80
 2601 D2:3210 00 -  -  -  .db 0
 2602 D2:3211 90 8F -  -  .db 144,143
 2603 D2:3213 90 88 -  -  .db 144,136
 2604 D2:3215 9E 88 -  -  .db 158,136
 2605 D2:3217 E0 04 00 40 
              05 00 50 04 
              00 -  -  -  .f 78,84,69
 2606 D2:3220 00 -  -  -  .db 0
 2607 D2:3221 DF 88 -  -  .db 223,136
 2608 D2:3223 DF 8F -  -  .db 223,143
 2609 D2:3225 D8 8F -  -  .db 216,143
 2610 D2:3227 50 04 00 90 
              04 00 E0 04 
              00 -  -  -  .f 69,73,78
 2611 D2:3230 00 -  -  -  .db 0
 2612 D2:3231 D8 8F -  -  .db 216,143
 2613 D2:3233 D8 88 -  -  .db 216,136
 2614 D2:3235 DF 88 -  -  .db 223,136
 2615 D2:3237 90 04 00 50 
              04 00 60 04 
              00 -  -  -  .f 73,69,70
 2616 D2:3240 00 -  -  -  .db 0
 2617 D2:3241 F8 8F -  -  .db 248,143
 2618 D2:3243 FF 8F -  -  .db 255,143
 2619 D2:3245 FF 88 -  -  .db 255,136
 2620 D2:3247 60 04 00 C0 
              04 00 90 04 
              00 -  -  -  .f 70,76,73
 2621 D2:3250 00 -  -  -  .db 0
 2622 D2:3251 FF 88 -  -  .db 255,136
 2623 D2:3253 F8 88 -  -  .db 248,136
 2624 D2:3255 F8 8F -  -  .db 248,143
 2625 D2:3257 D0 04 00 30 
              05 00 40 05 
              00 -  -  -  .f 77,83,84
 2626 D2:3260 00 -  -  -  .db 0
 2627 D2:3261 F8 88 -  -  .db 248,136
 2628 D2:3263 FF 88 -  -  .db 255,136
 2629 D2:3265 FF 8F -  -  .db 255,143
 2630 D2:3267 40 05 00 E0 
              04 00 D0 04 
              00 -  -  -  .f 84,78,77
 2631 D2:3270 00 -  -  -  .db 0
 2632 D2:3271 FF 8F -  -  .db 255,143
 2633 D2:3273 F8 8F -  -  .db 248,143
 2634 D2:3275 F8 88 -  -  .db 248,136
 2635 D2:3277 90 05 00 50 
              05 00 60 05 
              00 -  -  -  .f 89,85,86
 2636 D2:3280 00 -  -  -  .db 0
 2637 D2:3281 B4 2C -  -  .db 180,44
 2638 D2:3283 BB 2C -  -  .db 187,44
 2639 D2:3285 BB 3E -  -  .db 187,62
 2640 D2:3287 90 05 00 60 
              05 00 80 05 
              00 -  -  -  .f 89,86,88
 2641 D2:3290 00 -  -  -  .db 0
 2642 D2:3291 B4 2C -  -  .db 180,44
 2643 D2:3293 BB 3E -  -  .db 187,62
 2644 D2:3295 B4 3E -  -  .db 180,62
 2645 D2:3297 80 05 00 A0 
              05 00 10 06 
              00 -  -  -  .f 88,90,97
 2646 D2:32A0 00 -  -  -  .db 0
 2647 D2:32A1 96 9C -  -  .db 150,156
 2648 D2:32A3 94 9C -  -  .db 148,156
 2649 D2:32A5 94 9F -  -  .db 148,159
 2650 D2:32A7 80 05 00 10 
              06 00 30 06 
              00 -  -  -  .f 88,97,99
 2651 D2:32B0 00 -  -  -  .db 0
 2652 D2:32B1 96 9C -  -  .db 150,156
 2653 D2:32B3 94 9F -  -  .db 148,159
 2654 D2:32B5 96 9F -  -  .db 150,159
 2655 D2:32B7 40 06 00 90 
              05 00 80 05 
              00 -  -  -  .f 100,89,88
 2656 D2:32C0 00 -  -  -  .db 0
 2657 D2:32C1 AC 2C -  -  .db 172,44
 2658 D2:32C3 B2 2C -  -  .db 178,44
 2659 D2:32C5 B2 3E -  -  .db 178,62
 2660 D2:32C7 40 06 00 80 
              05 00 30 06 
              00 -  -  -  .f 100,88,99
 2661 D2:32D0 00 -  -  -  .db 0
 2662 D2:32D1 AC 2C -  -  .db 172,44
 2663 D2:32D3 B2 3E -  -  .db 178,62
 2664 D2:32D5 AC 3E -  -  .db 172,62
 2665 D2:32D7 A0 06 00 40 
              06 00 30 06 
              00 -  -  -  .f 106,100,99
 2666 D2:32E0 00 -  -  -  .db 0
 2667 D2:32E1 BC 2C -  -  .db 188,44
 2668 D2:32E3 C3 2C -  -  .db 195,44
 2669 D2:32E5 C3 3E -  -  .db 195,62
 2670 D2:32E7 A0 06 00 30 
              06 00 60 06 
              00 -  -  -  .f 106,99,102
 2671 D2:32F0 00 -  -  -  .db 0
 2672 D2:32F1 BC 2C -  -  .db 188,44
 2673 D2:32F3 C3 3E -  -  .db 195,62
 2674 D2:32F5 BC 3E -  -  .db 188,62
 2675 D2:32F7 A0 06 00 50 
              05 00 90 05 
              00 -  -  -  .f 106,85,89
 2676 D2:3300 00 -  -  -  .db 0
 2677 D2:3301 82 9C -  -  .db 130,156
 2678 D2:3303 80 9C -  -  .db 128,156
 2679 D2:3305 80 9F -  -  .db 128,159
 2680 D2:3307 A0 06 00 90 
              05 00 40 06 
              00 -  -  -  .f 106,89,100
 2681 D2:3310 00 -  -  -  .db 0
 2682 D2:3311 82 9C -  -  .db 130,156
 2683 D2:3313 80 9F -  -  .db 128,159
 2684 D2:3315 82 9F -  -  .db 130,159
 2685 D2:3317 E0 06 00 D0 
              06 00 B0 06 
              00 -  -  -  .f 110,109,107
 2686 D2:3320 00 -  -  -  .db 0
 2687 D2:3321 A4 6C -  -  .db 164,108
 2688 D2:3323 AA 6C -  -  .db 170,108
 2689 D2:3325 AA 77 -  -  .db 170,119
 2690 D2:3327 E0 06 00 B0 
              06 00 C0 06 
              00 -  -  -  .f 110,107,108
 2691 D2:3330 00 -  -  -  .db 0
 2692 D2:3331 A4 6C -  -  .db 164,108
 2693 D2:3333 AA 77 -  -  .db 170,119
 2694 D2:3335 A4 77 -  -  .db 164,119
 2695 D2:3337 80 06 00 D0 
              06 00 E0 06 
              00 -  -  -  .f 104,109,110
 2696 D2:3340 00 -  -  -  .db 0
 2697 D2:3341 A4 6C -  -  .db 164,108
 2698 D2:3343 AA 6C -  -  .db 170,108
 2699 D2:3345 AA 77 -  -  .db 170,119
 2700 D2:3347 80 06 00 E0 
              06 00 90 06 
              00 -  -  -  .f 104,110,105
 2701 D2:3350 00 -  -  -  .db 0
 2702 D2:3351 A4 6C -  -  .db 164,108
 2703 D2:3353 AA 77 -  -  .db 170,119
 2704 D2:3355 A4 77 -  -  .db 164,119
 2705 D2:3357 C0 05 00 A0 
              05 00 B0 05 
              00 -  -  -  .f 92,90,91
 2706 D2:3360 00 -  -  -  .db 0
 2707 D2:3361 96 9C -  -  .db 150,156
 2708 D2:3363 94 9C -  -  .db 148,156
 2709 D2:3365 94 9F -  -  .db 148,159
 2710 D2:3367 A0 05 00 70 
              05 00 B0 05 
              00 -  -  -  .f 90,87,91
 2711 D2:3370 00 -  -  -  .db 0
 2712 D2:3371 96 9C -  -  .db 150,156
 2713 D2:3373 94 9C -  -  .db 148,156
 2714 D2:3375 94 9F -  -  .db 148,159
 2715 D2:3377 10 06 00 A0 
              05 00 C0 05 
              00 -  -  -  .f 97,90,92
 2716 D2:3380 00 -  -  -  .db 0
 2717 D2:3381 96 9C -  -  .db 150,156
 2718 D2:3383 94 9C -  -  .db 148,156
 2719 D2:3385 94 9F -  -  .db 148,159
 2720 D2:3387 20 06 00 10 
              06 00 00 06 
              00 -  -  -  .f 98,97,96
 2721 D2:3390 00 -  -  -  .db 0
 2722 D2:3391 96 9C -  -  .db 150,156
 2723 D2:3393 94 9C -  -  .db 148,156
 2724 D2:3395 94 9F -  -  .db 148,159
 2725 D2:3397 C0 05 00 00 
              06 00 10 06 
              00 -  -  -  .f 92,96,97
 2726 D2:33A0 00 -  -  -  .db 0
 2727 D2:33A1 96 9C -  -  .db 150,156
 2728 D2:33A3 94 9C -  -  .db 148,156
 2729 D2:33A5 94 9F -  -  .db 148,159
 2730 D2:33A7 B0 05 00 D0 
              05 00 00 06 
              00 -  -  -  .f 91,93,96
 2731 D2:33B0 00 -  -  -  .db 0
 2732 D2:33B1 96 9C -  -  .db 150,156
 2733 D2:33B3 94 9C -  -  .db 148,156
 2734 D2:33B5 94 9F -  -  .db 148,159
 2735 D2:33B7 D0 05 00 20 
              06 00 00 06 
              00 -  -  -  .f 93,98,96
 2736 D2:33C0 00 -  -  -  .db 0
 2737 D2:33C1 96 9C -  -  .db 150,156
 2738 D2:33C3 94 9C -  -  .db 148,156
 2739 D2:33C5 94 9F -  -  .db 148,159
 2740 D2:33C7 70 05 00 D0 
              05 00 B0 05 
              00 -  -  -  .f 87,93,91
 2741 D2:33D0 00 -  -  -  .db 0
 2742 D2:33D1 96 9C -  -  .db 150,156
 2743 D2:33D3 94 9C -  -  .db 148,156
 2744 D2:33D5 94 9F -  -  .db 148,159
 2745 D2:33D7 A0 05 00 80 
              05 00 70 05 
              00 -  -  -  .f 90,88,87
 2746 D2:33E0 00 -  -  -  .db 0
 2747 D2:33E1 96 9C -  -  .db 150,156
 2748 D2:33E3 94 9C -  -  .db 148,156
 2749 D2:33E5 94 9F -  -  .db 148,159
 2750 D2:33E7 20 06 00 60 
              06 00 10 06 
              00 -  -  -  .f 98,102,97
 2751 D2:33F0 00 -  -  -  .db 0
 2752 D2:33F1 96 9C -  -  .db 150,156
 2753 D2:33F3 94 9C -  -  .db 148,156
 2754 D2:33F5 94 9F -  -  .db 148,159
 2755 D2:33F7 20 06 00 D0 
              05 00 E0 05 
              00 -  -  -  .f 98,93,94
 2756 D2:3400 00 -  -  -  .db 0
 2757 D2:3401 AC 77 -  -  .db 172,119
 2758 D2:3403 B2 77 -  -  .db 178,119
 2759 D2:3405 B2 6C -  -  .db 178,108
 2760 D2:3407 F0 05 00 A0 
              06 00 60 06 
              00 -  -  -  .f 95,106,102
 2761 D2:3410 00 -  -  -  .db 0
 2762 D2:3411 A4 2C -  -  .db 164,44
 2763 D2:3413 AA 2C -  -  .db 170,44
 2764 D2:3415 AA 3E -  -  .db 170,62
 2765 D2:3417 D0 05 00 70 
              05 00 60 05 
              00 -  -  -  .f 93,87,86
 2766 D2:3420 00 -  -  -  .db 0
 2767 D2:3421 B2 77 -  -  .db 178,119
 2768 D2:3423 AC 77 -  -  .db 172,119
 2769 D2:3425 AC 6C -  -  .db 172,108
 2770 D2:3427 50 05 00 F0 
              05 00 E0 05 
              00 -  -  -  .f 85,95,94
 2771 D2:3430 00 -  -  -  .db 0
 2772 D2:3431 9C 2C -  -  .db 156,44
 2773 D2:3433 A2 2C -  -  .db 162,44
 2774 D2:3435 A2 3E -  -  .db 162,62
 2775 D2:3437 F0 05 00 50 
              05 00 A0 06 
              00 -  -  -  .f 95,85,106
 2776 D2:3440 00 -  -  -  .db 0
 2777 D2:3441 82 9C -  -  .db 130,156
 2778 D2:3443 80 9C -  -  .db 128,156
 2779 D2:3445 80 9F -  -  .db 128,159
 2780 D2:3447 00 06 00 C0 
              05 00 B0 05 
              00 -  -  -  .f 96,92,91
 2781 D2:3450 00 -  -  -  .db 0
 2782 D2:3451 96 9C -  -  .db 150,156
 2783 D2:3453 94 9C -  -  .db 148,156
 2784 D2:3455 94 9F -  -  .db 148,159
 2785 D2:3457 50 06 00 70 
              06 00 C0 06 
              00 -  -  -  .f 101,103,108
 2786 D2:3460 00 -  -  -  .db 0
 2787 D2:3461 A4 77 -  -  .db 164,119
 2788 D2:3463 A4 6C -  -  .db 164,108
 2789 D2:3465 AA 6C -  -  .db 170,108
 2790 D2:3467 C0 06 00 B0 
              06 00 50 06 
              00 -  -  -  .f 108,107,101
 2791 D2:3470 00 -  -  -  .db 0
 2792 D2:3471 AA 6C -  -  .db 170,108
 2793 D2:3473 AA 77 -  -  .db 170,119
 2794 D2:3475 A4 77 -  -  .db 164,119
 2795 D2:3477 80 06 00 50 
              06 00 B0 06 
              00 -  -  -  .f 104,101,107
 2796 D2:3480 00 -  -  -  .db 0
 2797 D2:3481 AA 6C -  -  .db 170,108
 2798 D2:3483 AA 77 -  -  .db 170,119
 2799 D2:3485 A4 77 -  -  .db 164,119
 2800 D2:3487 B0 06 00 D0 
              06 00 80 06 
              00 -  -  -  .f 107,109,104
 2801 D2:3490 00 -  -  -  .db 0
 2802 D2:3491 A4 77 -  -  .db 164,119
 2803 D2:3493 A4 6C -  -  .db 164,108
 2804 D2:3495 AA 6C -  -  .db 170,108
 2805 D2:3497 70 06 00 90 
              06 00 E0 06 
              00 -  -  -  .f 103,105,110
 2806 D2:34A0 00 -  -  -  .db 0
 2807 D2:34A1 A4 77 -  -  .db 164,119
 2808 D2:34A3 A4 6C -  -  .db 164,108
 2809 D2:34A5 AA 6C -  -  .db 170,108
 2810 D2:34A7 E0 06 00 C0 
              06 00 70 06 
              00 -  -  -  .f 110,108,103
 2811 D2:34B0 00 -  -  -  .db 0
 2812 D2:34B1 AA 6C -  -  .db 170,108
 2813 D2:34B3 AA 77 -  -  .db 170,119
 2814 D2:34B5 A4 77 -  -  .db 164,119
 2815 D2:34B7 E0 05 00 60 
              06 00 20 06 
              00 -  -  -  .f 94,102,98
 2816 D2:34C0 00 -  -  -  .db 0
 2817 D2:34C1 B2 6C -  -  .db 178,108
 2818 D2:34C3 AC 6C -  -  .db 172,108
 2819 D2:34C5 AC 77 -  -  .db 172,119
 2820 D2:34C7 E0 05 00 60 
              05 00 50 05 
              00 -  -  -  .f 94,86,85
 2821 D2:34D0 00 -  -  -  .db 0
 2822 D2:34D1 A2 3E -  -  .db 162,62
 2823 D2:34D3 9C 3E -  -  .db 156,62
 2824 D2:34D5 9C 2C -  -  .db 156,44
 2825 D2:34D7 60 05 00 E0 
              05 00 D0 05 
              00 -  -  -  .f 86,94,93
 2826 D2:34E0 00 -  -  -  .db 0
 2827 D2:34E1 AC 6C -  -  .db 172,108
 2828 D2:34E3 B2 6C -  -  .db 178,108
 2829 D2:34E5 B2 77 -  -  .db 178,119
 2830 D2:34E7 70 05 00 80 
              05 00 60 05 
              00 -  -  -  .f 87,88,86
 2831 D2:34F0 00 -  -  -  .db 0
 2832 D2:34F1 96 9C -  -  .db 150,156
 2833 D2:34F3 94 9C -  -  .db 148,156
 2834 D2:34F5 94 9F -  -  .db 148,159
 2835 D2:34F7 10 06 00 60 
              06 00 30 06 
              00 -  -  -  .f 97,102,99
 2836 D2:3500 00 -  -  -  .db 0
 2837 D2:3501 96 9C -  -  .db 150,156
 2838 D2:3503 94 9C -  -  .db 148,156
 2839 D2:3505 94 9F -  -  .db 148,159
 2840 D2:3507 60 06 00 E0 
              05 00 F0 05 
              00 -  -  -  .f 102,94,95
 2841 D2:3510 00 -  -  -  .db 0
 2842 D2:3511 AA 3E -  -  .db 170,62
 2843 D2:3513 A4 3E -  -  .db 164,62
 2844 D2:3515 A4 2C -  -  .db 164,44
 2845 D2:3517 70 06 00 50 
              06 00 80 06 
              00 -  -  -  .f 103,101,104
 2846 D2:3520 00 -  -  -  .db 0
 2847 D2:3521 7F 2B -  -  .db 127,43
 2848 D2:3523 7F 2B -  -  .db 127,43
 2849 D2:3525 7F 2B -  -  .db 127,43
 2850 D2:3527 70 06 00 80 
              06 00 90 06 
              00 -  -  -  .f 103,104,105
 2851 D2:3530 00 -  -  -  .db 0
 2852 D2:3531 7F 2B -  -  .db 127,43
 2853 D2:3533 7F 2B -  -  .db 127,43
 2854 D2:3535 7F 2B -  -  .db 127,43
 2855 D2:3537 E0 07 00 60 
              07 00 10 07 
              00 -  -  -  .f 126,118,113
 2856 D2:3540 00 -  -  -  .db 0
 2857 D2:3541 A8 90 -  -  .db 168,144
 2858 D2:3543 AE 90 -  -  .db 174,144
 2859 D2:3545 AE 97 -  -  .db 174,151
 2860 D2:3547 E0 07 00 10 
              07 00 30 08 
              00 -  -  -  .f 126,113,131
 2861 D2:3550 00 -  -  -  .db 0
 2862 D2:3551 A8 90 -  -  .db 168,144
 2863 D2:3553 AE 97 -  -  .db 174,151
 2864 D2:3555 A8 97 -  -  .db 168,151
 2865 D2:3557 10 08 00 20 
              07 00 60 07 
              00 -  -  -  .f 129,114,118
 2866 D2:3560 00 -  -  -  .db 0
 2867 D2:3561 96 9C -  -  .db 150,156
 2868 D2:3563 94 9C -  -  .db 148,156
 2869 D2:3565 94 9F -  -  .db 148,159
 2870 D2:3567 10 08 00 60 
              07 00 E0 07 
              00 -  -  -  .f 129,118,126
 2871 D2:3570 00 -  -  -  .db 0
 2872 D2:3571 96 9C -  -  .db 150,156
 2873 D2:3573 94 9F -  -  .db 148,159
 2874 D2:3575 96 9F -  -  .db 150,159
 2875 D2:3577 30 08 00 10 
              07 00 40 07 
              00 -  -  -  .f 131,113,116
 2876 D2:3580 00 -  -  -  .db 0
 2877 D2:3581 A8 90 -  -  .db 168,144
 2878 D2:3583 AE 90 -  -  .db 174,144
 2879 D2:3585 AE 97 -  -  .db 174,151
 2880 D2:3587 30 08 00 40 
              07 00 20 08 
              00 -  -  -  .f 131,116,130
 2881 D2:3590 00 -  -  -  .db 0
 2882 D2:3591 A8 90 -  -  .db 168,144
 2883 D2:3593 AE 97 -  -  .db 174,151
 2884 D2:3595 A8 97 -  -  .db 168,151
 2885 D2:3597 20 08 00 40 
              07 00 50 07 
              00 -  -  -  .f 130,116,117
 2886 D2:35A0 00 -  -  -  .db 0
 2887 D2:35A1 8C 5C -  -  .db 140,92
 2888 D2:35A3 92 5C -  -  .db 146,92
 2889 D2:35A5 92 6B -  -  .db 146,107
 2890 D2:35A7 20 08 00 50 
              07 00 D0 07 
              00 -  -  -  .f 130,117,125
 2891 D2:35B0 00 -  -  -  .db 0
 2892 D2:35B1 8C 5C -  -  .db 140,92
 2893 D2:35B3 92 6B -  -  .db 146,107
 2894 D2:35B5 8C 6B -  -  .db 140,107
 2895 D2:35B7 A0 07 00 50 
              07 00 70 07 
              00 -  -  -  .f 122,117,119
 2896 D2:35C0 00 -  -  -  .db 0
 2897 D2:35C1 9A 9F -  -  .db 154,159
 2898 D2:35C3 98 9F -  -  .db 152,159
 2899 D2:35C5 98 9C -  -  .db 152,156
 2900 D2:35C7 50 07 00 30 
              07 00 70 07 
              00 -  -  -  .f 117,115,119
 2901 D2:35D0 00 -  -  -  .db 0
 2902 D2:35D1 9A 9F -  -  .db 154,159
 2903 D2:35D3 98 9F -  -  .db 152,159
 2904 D2:35D5 98 9C -  -  .db 152,156
 2905 D2:35D7 D0 07 00 50 
              07 00 A0 07 
              00 -  -  -  .f 125,117,122
 2906 D2:35E0 00 -  -  -  .db 0
 2907 D2:35E1 9A 9F -  -  .db 154,159
 2908 D2:35E3 98 9F -  -  .db 152,159
 2909 D2:35E5 98 9C -  -  .db 152,156
 2910 D2:35E7 00 08 00 D0 
              07 00 F0 07 
              00 -  -  -  .f 128,125,127
 2911 D2:35F0 00 -  -  -  .db 0
 2912 D2:35F1 9A 9F -  -  .db 154,159
 2913 D2:35F3 98 9F -  -  .db 152,159
 2914 D2:35F5 98 9C -  -  .db 152,156
 2915 D2:35F7 A0 07 00 F0 
              07 00 D0 07 
              00 -  -  -  .f 122,127,125
 2916 D2:3600 00 -  -  -  .db 0
 2917 D2:3601 9A 9F -  -  .db 154,159
 2918 D2:3603 98 9F -  -  .db 152,159
 2919 D2:3605 98 9C -  -  .db 152,156
 2920 D2:3607 70 07 00 80 
              07 00 F0 07 
              00 -  -  -  .f 119,120,127
 2921 D2:3610 00 -  -  -  .db 0
 2922 D2:3611 9A 9F -  -  .db 154,159
 2923 D2:3613 98 9F -  -  .db 152,159
 2924 D2:3615 98 9C -  -  .db 152,156
 2925 D2:3617 80 07 00 00 
              08 00 F0 07 
              00 -  -  -  .f 120,128,127
 2926 D2:3620 00 -  -  -  .db 0
 2927 D2:3621 9A 9F -  -  .db 154,159
 2928 D2:3623 98 9F -  -  .db 152,159
 2929 D2:3625 98 9C -  -  .db 152,156
 2930 D2:3627 30 07 00 80 
              07 00 70 07 
              00 -  -  -  .f 115,120,119
 2931 D2:3630 00 -  -  -  .db 0
 2932 D2:3631 9A 9F -  -  .db 154,159
 2933 D2:3633 98 9F -  -  .db 152,159
 2934 D2:3635 98 9C -  -  .db 152,156
 2935 D2:3637 10 07 00 60 
              07 00 20 07 
              00 -  -  -  .f 113,118,114
 2936 D2:3640 00 -  -  -  .db 0
 2937 D2:3641 AE 97 -  -  .db 174,151
 2938 D2:3643 AE 90 -  -  .db 174,144
 2939 D2:3645 A8 90 -  -  .db 168,144
 2940 D2:3647 20 07 00 F0 
              06 00 10 07 
              00 -  -  -  .f 114,111,113
 2941 D2:3650 00 -  -  -  .db 0
 2942 D2:3651 A8 90 -  -  .db 168,144
 2943 D2:3653 A8 97 -  -  .db 168,151
 2944 D2:3655 AE 97 -  -  .db 174,151
 2945 D2:3657 30 08 00 50 
              08 00 10 08 
              00 -  -  -  .f 131,133,129
 2946 D2:3660 00 -  -  -  .db 0
 2947 D2:3661 AE 97 -  -  .db 174,151
 2948 D2:3663 A8 97 -  -  .db 168,151
 2949 D2:3665 A8 90 -  -  .db 168,144
 2950 D2:3667 10 08 00 E0 
              07 00 30 08 
              00 -  -  -  .f 129,126,131
 2951 D2:3670 00 -  -  -  .db 0
 2952 D2:3671 A8 90 -  -  .db 168,144
 2953 D2:3673 AE 90 -  -  .db 174,144
 2954 D2:3675 AE 97 -  -  .db 174,151
 2955 D2:3677 C0 07 00 90 
              07 00 10 08 
              00 -  -  -  .f 124,121,129
 2956 D2:3680 00 -  -  -  .db 0
 2957 D2:3681 AE 97 -  -  .db 174,151
 2958 D2:3683 AE 90 -  -  .db 174,144
 2959 D2:3685 A8 90 -  -  .db 168,144
 2960 D2:3687 10 08 00 50 
              08 00 C0 07 
              00 -  -  -  .f 129,133,124
 2961 D2:3690 00 -  -  -  .db 0
 2962 D2:3691 A8 90 -  -  .db 168,144
 2963 D2:3693 A8 97 -  -  .db 168,151
 2964 D2:3695 AE 97 -  -  .db 174,151
 2965 D2:3697 C0 07 00 F0 
              06 00 20 07 
              00 -  -  -  .f 124,111,114
 2966 D2:36A0 00 -  -  -  .db 0
 2967 D2:36A1 A8 97 -  -  .db 168,151
 2968 D2:36A3 AE 97 -  -  .db 174,151
 2969 D2:36A5 AE 90 -  -  .db 174,144
 2970 D2:36A7 20 07 00 90 
              07 00 C0 07 
              00 -  -  -  .f 114,121,124
 2971 D2:36B0 00 -  -  -  .db 0
 2972 D2:36B1 AE 90 -  -  .db 174,144
 2973 D2:36B3 A8 90 -  -  .db 168,144
 2974 D2:36B5 A8 97 -  -  .db 168,151
 2975 D2:36B7 90 07 00 20 
              07 00 10 08 
              00 -  -  -  .f 121,114,129
 2976 D2:36C0 00 -  -  -  .db 0
 2977 D2:36C1 96 9C -  -  .db 150,156
 2978 D2:36C3 94 9C -  -  .db 148,156
 2979 D2:36C5 94 9F -  -  .db 148,159
 2980 D2:36C7 F0 07 00 A0 
              07 00 70 07 
              00 -  -  -  .f 127,122,119
 2981 D2:36D0 00 -  -  -  .db 0
 2982 D2:36D1 9A 9F -  -  .db 154,159
 2983 D2:36D3 98 9F -  -  .db 152,159
 2984 D2:36D5 98 9C -  -  .db 152,156
 2985 D2:36D7 40 07 00 10 
              07 00 F0 06 
              00 -  -  -  .f 116,113,111
 2986 D2:36E0 00 -  -  -  .db 0
 2987 D2:36E1 AE 97 -  -  .db 174,151
 2988 D2:36E3 AE 90 -  -  .db 174,144
 2989 D2:36E5 A8 90 -  -  .db 168,144
 2990 D2:36E7 F0 06 00 00 
              07 00 40 07 
              00 -  -  -  .f 111,112,116
 2991 D2:36F0 00 -  -  -  .db 0
 2992 D2:36F1 A8 90 -  -  .db 168,144
 2993 D2:36F3 A8 97 -  -  .db 168,151
 2994 D2:36F5 AE 97 -  -  .db 174,151
 2995 D2:36F7 50 08 00 30 
              08 00 20 08 
              00 -  -  -  .f 133,131,130
 2996 D2:3700 00 -  -  -  .db 0
 2997 D2:3701 A8 90 -  -  .db 168,144
 2998 D2:3703 AE 90 -  -  .db 174,144
 2999 D2:3705 AE 97 -  -  .db 174,151
 3000 D2:3707 20 08 00 40 
              08 00 50 08 
              00 -  -  -  .f 130,132,133
 3001 D2:3710 00 -  -  -  .db 0
 3002 D2:3711 AE 97 -  -  .db 174,151
 3003 D2:3713 A8 97 -  -  .db 168,151
 3004 D2:3715 A8 90 -  -  .db 168,144
 3005 D2:3717 C0 07 00 50 
              08 00 40 08 
              00 -  -  -  .f 124,133,132
 3006 D2:3720 00 -  -  -  .db 0
 3007 D2:3721 AE 90 -  -  .db 174,144
 3008 D2:3723 A8 90 -  -  .db 168,144
 3009 D2:3725 A8 97 -  -  .db 168,151
 3010 D2:3727 40 08 00 B0 
              07 00 C0 07 
              00 -  -  -  .f 132,123,124
 3011 D2:3730 00 -  -  -  .db 0
 3012 D2:3731 A8 97 -  -  .db 168,151
 3013 D2:3733 AE 97 -  -  .db 174,151
 3014 D2:3735 AE 90 -  -  .db 174,144
 3015 D2:3737 00 07 00 F0 
              06 00 C0 07 
              00 -  -  -  .f 112,111,124
 3016 D2:3740 00 -  -  -  .db 0
 3017 D2:3741 AE 97 -  -  .db 174,151
 3018 D2:3743 AE 90 -  -  .db 174,144
 3019 D2:3745 A8 90 -  -  .db 168,144
 3020 D2:3747 C0 07 00 B0 
              07 00 00 07 
              00 -  -  -  .f 124,123,112
 3021 D2:3750 00 -  -  -  .db 0
 3022 D2:3751 A8 90 -  -  .db 168,144
 3023 D2:3753 A8 97 -  -  .db 168,151
 3024 D2:3755 AE 97 -  -  .db 174,151
 3025 D2:3757 40 07 00 00 
              07 00 30 07 
              00 -  -  -  .f 116,112,115
 3026 D2:3760 00 -  -  -  .db 0
 3027 D2:3761 F8 4C -  -  .db 248,76
 3028 D2:3763 FF 4C -  -  .db 255,76
 3029 D2:3765 FF 5A -  -  .db 255,90
 3030 D2:3767 30 07 00 50 
              07 00 40 07 
              00 -  -  -  .f 115,117,116
 3031 D2:3770 00 -  -  -  .db 0
 3032 D2:3771 FF 5A -  -  .db 255,90
 3033 D2:3773 F8 5A -  -  .db 248,90
 3034 D2:3775 F8 4C -  -  .db 248,76
 3035 D2:3777 00 08 00 40 
              08 00 20 08 
              00 -  -  -  .f 128,132,130
 3036 D2:3780 00 -  -  -  .db 0
 3037 D2:3781 FF 5A -  -  .db 255,90
 3038 D2:3783 FF 4C -  -  .db 255,76
 3039 D2:3785 F8 4C -  -  .db 248,76
 3040 D2:3787 20 08 00 D0 
              07 00 00 08 
              00 -  -  -  .f 130,125,128
 3041 D2:3790 00 -  -  -  .db 0
 3042 D2:3791 F8 4C -  -  .db 248,76
 3043 D2:3793 F8 5A -  -  .db 248,90
 3044 D2:3795 FF 5A -  -  .db 255,90
 3045 D2:3797 B0 07 00 40 
              08 00 00 08 
              00 -  -  -  .f 123,132,128
 3046 D2:37A0 00 -  -  -  .db 0
 3047 D2:37A1 9A 5C -  -  .db 154,92
 3048 D2:37A3 94 5C -  -  .db 148,92
 3049 D2:37A5 94 6B -  -  .db 148,107
 3050 D2:37A7 00 08 00 80 
              07 00 B0 07 
              00 -  -  -  .f 128,120,123
 3051 D2:37B0 00 -  -  -  .db 0
 3052 D2:37B1 94 6B -  -  .db 148,107
 3053 D2:37B3 9A 6B -  -  .db 154,107
 3054 D2:37B5 9A 5C -  -  .db 154,92
 3055 D2:37B7 30 07 00 00 
              07 00 B0 07 
              00 -  -  -  .f 115,112,123
 3056 D2:37C0 00 -  -  -  .db 0
 3057 D2:37C1 94 6B -  -  .db 148,107
 3058 D2:37C3 94 5C -  -  .db 148,92
 3059 D2:37C5 9A 5C -  -  .db 154,92
 3060 D2:37C7 B0 07 00 80 
              07 00 30 07 
              00 -  -  -  .f 123,120,115
 3061 D2:37D0 00 -  -  -  .db 0
 3062 D2:37D1 9A 5C -  -  .db 154,92
 3063 D2:37D3 9A 6B -  -  .db 154,107
 3064 D2:37D5 94 6B -  -  .db 148,107
 3065 D2:37D7 D0 08 00 E0 
              08 00 F0 08 
              00 -  -  -  .f 141,142,143
 3066 D2:37E0 00 -  -  -  .db 0
 3067 D2:37E1 B0 90 -  -  .db 176,144
 3068 D2:37E3 B7 90 -  -  .db 183,144
 3069 D2:37E5 B7 97 -  -  .db 183,151
 3070 D2:37E7 D0 08 00 F0 
              08 00 A0 08 
              00 -  -  -  .f 141,143,138
 3071 D2:37F0 00 -  -  -  .db 0
 3072 D2:37F1 B0 90 -  -  .db 176,144
 3073 D2:37F3 B7 97 -  -  .db 183,151
 3074 D2:37F5 B0 97 -  -  .db 176,151
 3075 D2:37F7 60 08 00 50 
              09 00 20 09 
              00 -  -  -  .f 134,149,146
 3076 D2:3800 00 -  -  -  .db 0
 3077 D2:3801 BB 6C -  -  .db 187,108
 3078 D2:3803 B4 6C -  -  .db 180,108
 3079 D2:3805 B4 77 -  -  .db 180,119
 3080 D2:3807 60 08 00 20 
              09 00 90 08 
              00 -  -  -  .f 134,146,137
 3081 D2:3810 00 -  -  -  .db 0
 3082 D2:3811 BB 6C -  -  .db 187,108
 3083 D2:3813 B4 77 -  -  .db 180,119
 3084 D2:3815 BB 77 -  -  .db 187,119
 3085 D2:3817 B0 08 00 C0 
              08 00 10 09 
              00 -  -  -  .f 139,140,145
 3086 D2:3820 00 -  -  -  .db 0
 3087 D2:3821 98 9C -  -  .db 152,156
 3088 D2:3823 9A 9C -  -  .db 154,156
 3089 D2:3825 9A 9F -  -  .db 154,159
 3090 D2:3827 B0 08 00 10 
              09 00 00 09 
              00 -  -  -  .f 139,145,144
 3091 D2:3830 00 -  -  -  .db 0
 3092 D2:3831 98 9C -  -  .db 152,156
 3093 D2:3833 9A 9F -  -  .db 154,159
 3094 D2:3835 98 9F -  -  .db 152,159
 3095 D2:3837 30 09 00 80 
              08 00 90 08 
              00 -  -  -  .f 147,136,137
 3096 D2:3840 00 -  -  -  .db 0
 3097 D2:3841 88 90 -  -  .db 136,144
 3098 D2:3843 8E 90 -  -  .db 142,144
 3099 D2:3845 8E 97 -  -  .db 142,151
 3100 D2:3847 30 09 00 90 
              08 00 20 09 
              00 -  -  -  .f 147,137,146
 3101 D2:3850 00 -  -  -  .db 0
 3102 D2:3851 88 90 -  -  .db 136,144
 3103 D2:3853 8E 97 -  -  .db 142,151
 3104 D2:3855 88 97 -  -  .db 136,151
 3105 D2:3857 10 09 00 C0 
              08 00 80 08 
              00 -  -  -  .f 145,140,136
 3106 D2:3860 00 -  -  -  .db 0
 3107 D2:3861 F4 98 -  -  .db 244,152
 3108 D2:3863 FB 98 -  -  .db 251,152
 3109 D2:3865 FB 9B -  -  .db 251,155
 3110 D2:3867 10 09 00 80 
              08 00 30 09 
              00 -  -  -  .f 145,136,147
 3111 D2:3870 00 -  -  -  .db 0
 3112 D2:3871 F4 98 -  -  .db 244,152
 3113 D2:3873 FB 9B -  -  .db 251,155
 3114 D2:3875 F4 9B -  -  .db 244,155
 3115 D2:3877 B0 08 00 00 
              09 00 40 09 
              00 -  -  -  .f 139,144,148
 3116 D2:3880 00 -  -  -  .db 0
 3117 D2:3881 E0 88 -  -  .db 224,136
 3118 D2:3883 E7 88 -  -  .db 231,136
 3119 D2:3885 E7 8F -  -  .db 231,143
 3120 D2:3887 B0 08 00 40 
              09 00 70 08 
              00 -  -  -  .f 139,148,135
 3121 D2:3890 00 -  -  -  .db 0
 3122 D2:3891 E0 88 -  -  .db 224,136
 3123 D2:3893 E7 8F -  -  .db 231,143
 3124 D2:3895 E0 8F -  -  .db 224,143
 3125 D2:3897 70 08 00 40 
              09 00 E0 08 
              00 -  -  -  .f 135,148,142
 3126 D2:38A0 00 -  -  -  .db 0
 3127 D2:38A1 B8 90 -  -  .db 184,144
 3128 D2:38A3 BF 90 -  -  .db 191,144
 3129 D2:38A5 BF 97 -  -  .db 191,151
 3130 D2:38A7 70 08 00 E0 
              08 00 D0 08 
              00 -  -  -  .f 135,142,141
 3131 D2:38B0 00 -  -  -  .db 0
 3132 D2:38B1 B8 90 -  -  .db 184,144
 3133 D2:38B3 BF 97 -  -  .db 191,151
 3134 D2:38B5 B8 97 -  -  .db 184,151
 3135 D2:38B7 40 09 00 30 
              09 00 20 09 
              00 -  -  -  .f 148,147,146
 3136 D2:38C0 00 -  -  -  .db 0
 3137 D2:38C1 80 88 -  -  .db 128,136
 3138 D2:38C3 8E 88 -  -  .db 142,136
 3139 D2:38C5 8E 8F -  -  .db 142,143
 3140 D2:38C7 20 09 00 50 
              09 00 40 09 
              00 -  -  -  .f 146,149,148
 3141 D2:38D0 00 -  -  -  .db 0
 3142 D2:38D1 8E 8F -  -  .db 142,143
 3143 D2:38D3 80 8F -  -  .db 128,143
 3144 D2:38D5 80 88 -  -  .db 128,136
 3145 D2:38D7 90 08 00 80 
              08 00 70 08 
              00 -  -  -  .f 137,136,135
 3146 D2:38E0 00 -  -  -  .db 0
 3147 D2:38E1 8E 8F -  -  .db 142,143
 3148 D2:38E3 8E 88 -  -  .db 142,136
 3149 D2:38E5 80 88 -  -  .db 128,136
 3150 D2:38E7 70 08 00 60 
              08 00 90 08 
              00 -  -  -  .f 135,134,137
 3151 D2:38F0 00 -  -  -  .db 0
 3152 D2:38F1 80 88 -  -  .db 128,136
 3153 D2:38F3 80 8F -  -  .db 128,143
 3154 D2:38F5 8E 8F -  -  .db 142,143
 3155 D2:38F7 30 09 00 40 
              09 00 00 09 
              00 -  -  -  .f 147,148,144
 3156 D2:3900 00 -  -  -  .db 0
 3157 D2:3901 9E 8F -  -  .db 158,143
 3158 D2:3903 90 8F -  -  .db 144,143
 3159 D2:3905 90 88 -  -  .db 144,136
 3160 D2:3907 00 09 00 10 
              09 00 30 09 
              00 -  -  -  .f 144,145,147
 3161 D2:3910 00 -  -  -  .db 0
 3162 D2:3911 90 88 -  -  .db 144,136
 3163 D2:3913 9E 88 -  -  .db 158,136
 3164 D2:3915 9E 8F -  -  .db 158,143
 3165 D2:3917 70 08 00 80 
              08 00 C0 08 
              00 -  -  -  .f 135,136,140
 3166 D2:3920 00 -  -  -  .db 0
 3167 D2:3921 90 8F -  -  .db 144,143
 3168 D2:3923 9E 8F -  -  .db 158,143
 3169 D2:3925 9E 88 -  -  .db 158,136
 3170 D2:3927 C0 08 00 B0 
              08 00 70 08 
              00 -  -  -  .f 140,139,135
 3171 D2:3930 00 -  -  -  .db 0
 3172 D2:3931 9E 88 -  -  .db 158,136
 3173 D2:3933 90 88 -  -  .db 144,136
 3174 D2:3935 90 8F -  -  .db 144,143
 3175 D2:3937 50 09 00 60 
              08 00 A0 08 
              00 -  -  -  .f 149,134,138
 3176 D2:3940 00 -  -  -  .db 0
 3177 D2:3941 D8 8F -  -  .db 216,143
 3178 D2:3943 DF 8F -  -  .db 223,143
 3179 D2:3945 DF 88 -  -  .db 223,136
 3180 D2:3947 A0 08 00 F0 
              08 00 50 09 
              00 -  -  -  .f 138,143,149
 3181 D2:3950 00 -  -  -  .db 0
 3182 D2:3951 DF 88 -  -  .db 223,136
 3183 D2:3953 D8 88 -  -  .db 216,136
 3184 D2:3955 D8 8F -  -  .db 216,143
 3185 D2:3957 40 09 00 50 
              09 00 F0 08 
              00 -  -  -  .f 148,149,143
 3186 D2:3960 00 -  -  -  .db 0
 3187 D2:3961 FF 88 -  -  .db 255,136
 3188 D2:3963 FF 8F -  -  .db 255,143
 3189 D2:3965 F8 8F -  -  .db 248,143
 3190 D2:3967 F0 08 00 E0 
              08 00 40 09 
              00 -  -  -  .f 143,142,148
 3191 D2:3970 00 -  -  -  .db 0
 3192 D2:3971 F8 8F -  -  .db 248,143
 3193 D2:3973 F8 88 -  -  .db 248,136
 3194 D2:3975 FF 88 -  -  .db 255,136
 3195 D2:3977 60 08 00 70 
              08 00 D0 08 
              00 -  -  -  .f 134,135,141
 3196 D2:3980 00 -  -  -  .db 0
 3197 D2:3981 FF 8F -  -  .db 255,143
 3198 D2:3983 FF 88 -  -  .db 255,136
 3199 D2:3985 F8 88 -  -  .db 248,136
 3200 D2:3987 D0 08 00 A0 
              08 00 60 08 
              00 -  -  -  .f 141,138,134
 3201 D2:3990 00 -  -  -  .db 0
 3202 D2:3991 F8 88 -  -  .db 248,136
 3203 D2:3993 F8 8F -  -  .db 248,143
 3204 D2:3995 FF 8F -  -  .db 255,143
 3205 D2:3997 80 0A 00 80 
              0C 00 90 0C 
              00 -  -  -  .f 168,200,201
 3206 D2:39A0 00 -  -  -  .db 0
 3207 D2:39A1 92 9C -  -  .db 146,156
 3208 D2:39A3 90 9C -  -  .db 144,156
 3209 D2:39A5 90 9F -  -  .db 144,159
 3210 D2:39A7 80 0A 00 90 
              0C 00 90 0A 
              00 -  -  -  .f 168,201,169
 3211 D2:39B0 00 -  -  -  .db 0
 3212 D2:39B1 92 9C -  -  .db 146,156
 3213 D2:39B3 90 9F -  -  .db 144,159
 3214 D2:39B5 92 9F -  -  .db 146,159
 3215 D2:39B7 90 0B 00 B0 
              0B 00 60 0B 
              00 -  -  -  .f 185,187,182
 3216 D2:39C0 00 -  -  -  .db 0
 3217 D2:39C1 94 9C -  -  .db 148,156
 3218 D2:39C3 96 9C -  -  .db 150,156
 3219 D2:39C5 96 9F -  -  .db 150,159
 3220 D2:39C7 90 0B 00 60 
              0B 00 70 0B 
              00 -  -  -  .f 185,182,183
 3221 D2:39D0 00 -  -  -  .db 0
 3222 D2:39D1 94 9C -  -  .db 148,156
 3223 D2:39D3 96 9F -  -  .db 150,159
 3224 D2:39D5 94 9F -  -  .db 148,159
 3225 D2:39D7 90 0B 00 70 
              0B 00 80 0B 
              00 -  -  -  .f 185,183,184
 3226 D2:39E0 00 -  -  -  .db 0
 3227 D2:39E1 94 9C -  -  .db 148,156
 3228 D2:39E3 96 9C -  -  .db 150,156
 3229 D2:39E5 96 9F -  -  .db 150,159
 3230 D2:39E7 90 0B 00 80 
              0B 00 A0 0B 
              00 -  -  -  .f 185,184,186
 3231 D2:39F0 00 -  -  -  .db 0
 3232 D2:39F1 94 9C -  -  .db 148,156
 3233 D2:39F3 96 9F -  -  .db 150,159
 3234 D2:39F5 94 9F -  -  .db 148,159
 3235 D2:39F7 50 0B 00 C0 
              0B 00 A0 0B 
              00 -  -  -  .f 181,188,186
 3236 D2:3A00 00 -  -  -  .db 0
 3237 D2:3A01 94 9C -  -  .db 148,156
 3238 D2:3A03 96 9C -  -  .db 150,156
 3239 D2:3A05 96 9F -  -  .db 150,159
 3240 D2:3A07 50 0B 00 A0 
              0B 00 80 0B 
              00 -  -  -  .f 181,186,184
 3241 D2:3A10 00 -  -  -  .db 0
 3242 D2:3A11 94 9C -  -  .db 148,156
 3243 D2:3A13 96 9F -  -  .db 150,159
 3244 D2:3A15 94 9F -  -  .db 148,159
 3245 D2:3A17 60 0C 00 B0 
              0A 00 20 0B 
              00 -  -  -  .f 198,171,178
 3246 D2:3A20 00 -  -  -  .db 0
 3247 D2:3A21 E4 98 -  -  .db 228,152
 3248 D2:3A23 F3 98 -  -  .db 243,152
 3249 D2:3A25 F3 9B -  -  .db 243,155
 3250 D2:3A27 60 0C 00 20 
              0B 00 30 0C 
              00 -  -  -  .f 198,178,195
 3251 D2:3A30 00 -  -  -  .db 0
 3252 D2:3A31 E4 98 -  -  .db 228,152
 3253 D2:3A33 F3 9B -  -  .db 243,155
 3254 D2:3A35 E4 9B -  -  .db 228,155
 3255 D2:3A37 30 0C 00 20 
              0B 00 90 0A 
              00 -  -  -  .f 195,178,169
 3256 D2:3A40 00 -  -  -  .db 0
 3257 D2:3A41 E4 80 -  -  .db 228,128
 3258 D2:3A43 F3 80 -  -  .db 243,128
 3259 D2:3A45 F3 87 -  -  .db 243,135
 3260 D2:3A47 30 0C 00 90 
              0A 00 90 0C 
              00 -  -  -  .f 195,169,201
 3261 D2:3A50 00 -  -  -  .db 0
 3262 D2:3A51 E4 80 -  -  .db 228,128
 3263 D2:3A53 F3 87 -  -  .db 243,135
 3264 D2:3A55 E4 87 -  -  .db 228,135
 3265 D2:3A57 C0 0A 00 70 
              0C 00 40 0C 
              00 -  -  -  .f 172,199,196
 3266 D2:3A60 00 -  -  -  .db 0
 3267 D2:3A61 A6 80 -  -  .db 166,128
 3268 D2:3A63 94 80 -  -  .db 148,128
 3269 D2:3A65 94 87 -  -  .db 148,135
 3270 D2:3A67 C0 0A 00 40 
              0C 00 30 0B 
              00 -  -  -  .f 172,196,179
 3271 D2:3A70 00 -  -  -  .db 0
 3272 D2:3A71 A6 80 -  -  .db 166,128
 3273 D2:3A73 94 87 -  -  .db 148,135
 3274 D2:3A75 A6 87 -  -  .db 166,135
 3275 D2:3A77 30 0B 00 40 
              0C 00 80 0C 
              00 -  -  -  .f 179,196,200
 3276 D2:3A80 00 -  -  -  .db 0
 3277 D2:3A81 BB 80 -  -  .db 187,128
 3278 D2:3A83 A8 80 -  -  .db 168,128
 3279 D2:3A85 A8 87 -  -  .db 168,135
 3280 D2:3A87 30 0B 00 80 
              0C 00 80 0A 
              00 -  -  -  .f 179,200,168
 3281 D2:3A90 00 -  -  -  .db 0
 3282 D2:3A91 BB 80 -  -  .db 187,128
 3283 D2:3A93 A8 87 -  -  .db 168,135
 3284 D2:3A95 BB 87 -  -  .db 187,135
 3285 D2:3A97 60 0B 00 B0 
              0B 00 D0 0B 
              00 -  -  -  .f 182,187,189
 3286 D2:3AA0 00 -  -  -  .db 0
 3287 D2:3AA1 C3 88 -  -  .db 195,136
 3288 D2:3AA3 B8 88 -  -  .db 184,136
 3289 D2:3AA5 B8 8F -  -  .db 184,143
 3290 D2:3AA7 60 0B 00 D0 
              0B 00 40 0B 
              00 -  -  -  .f 182,189,180
 3291 D2:3AB0 00 -  -  -  .db 0
 3292 D2:3AB1 C3 88 -  -  .db 195,136
 3293 D2:3AB3 B8 8F -  -  .db 184,143
 3294 D2:3AB5 C3 8F -  -  .db 195,143
 3295 D2:3AB7 D0 0A 00 20 
              0C 00 70 0C 
              00 -  -  -  .f 173,194,199
 3296 D2:3AC0 00 -  -  -  .db 0
 3297 D2:3AC1 CF 80 -  -  .db 207,128
 3298 D2:3AC3 BC 80 -  -  .db 188,128
 3299 D2:3AC5 BC 87 -  -  .db 188,135
 3300 D2:3AC7 D0 0A 00 70 
              0C 00 C0 0A 
              00 -  -  -  .f 173,199,172
 3301 D2:3AD0 00 -  -  -  .db 0
 3302 D2:3AD1 CF 80 -  -  .db 207,128
 3303 D2:3AD3 BC 87 -  -  .db 188,135
 3304 D2:3AD5 CF 87 -  -  .db 207,135
 3305 D2:3AD7 E0 0A 00 00 
              0C 00 50 0C 
              00 -  -  -  .f 174,192,197
 3306 D2:3AE0 00 -  -  -  .db 0
 3307 D2:3AE1 92 80 -  -  .db 146,128
 3308 D2:3AE3 80 80 -  -  .db 128,128
 3309 D2:3AE5 80 87 -  -  .db 128,135
 3310 D2:3AE7 E0 0A 00 50 
              0C 00 A0 0A 
              00 -  -  -  .f 174,197,170
 3311 D2:3AF0 00 -  -  -  .db 0
 3312 D2:3AF1 92 80 -  -  .db 146,128
 3313 D2:3AF3 80 87 -  -  .db 128,135
 3314 D2:3AF5 92 87 -  -  .db 146,135
 3315 D2:3AF7 A0 0A 00 50 
              0C 00 F0 0B 
              00 -  -  -  .f 170,197,191
 3316 D2:3B00 00 -  -  -  .db 0
 3317 D2:3B01 E3 80 -  -  .db 227,128
 3318 D2:3B03 D0 80 -  -  .db 208,128
 3319 D2:3B05 D0 87 -  -  .db 208,135
 3320 D2:3B07 A0 0A 00 F0 
              0B 00 10 0B 
              00 -  -  -  .f 170,191,177
 3321 D2:3B10 00 -  -  -  .db 0
 3322 D2:3B11 E3 80 -  -  .db 227,128
 3323 D2:3B13 D0 87 -  -  .db 208,135
 3324 D2:3B15 E3 87 -  -  .db 227,135
 3325 D2:3B17 F0 0A 00 10 
              0C 00 00 0C 
              00 -  -  -  .f 175,193,192
 3326 D2:3B20 00 -  -  -  .db 0
 3327 D2:3B21 C4 98 -  -  .db 196,152
 3328 D2:3B23 D3 98 -  -  .db 211,152
 3329 D2:3B25 D3 9B -  -  .db 211,155
 3330 D2:3B27 F0 0A 00 00 
              0C 00 E0 0A 
              00 -  -  -  .f 175,192,174
 3331 D2:3B30 00 -  -  -  .db 0
 3332 D2:3B31 C4 98 -  -  .db 196,152
 3333 D2:3B33 D3 9B -  -  .db 211,155
 3334 D2:3B35 C4 9B -  -  .db 196,155
 3335 D2:3B37 10 0B 00 F0 
              0B 00 E0 0B 
              00 -  -  -  .f 177,191,190
 3336 D2:3B40 00 -  -  -  .db 0
 3337 D2:3B41 AE 98 -  -  .db 174,152
 3338 D2:3B43 9C 98 -  -  .db 156,152
 3339 D2:3B45 9C 9B -  -  .db 156,155
 3340 D2:3B47 10 0B 00 E0 
              0B 00 00 0B 
              00 -  -  -  .f 177,190,176
 3341 D2:3B50 00 -  -  -  .db 0
 3342 D2:3B51 AE 98 -  -  .db 174,152
 3343 D2:3B53 9C 9B -  -  .db 156,155
 3344 D2:3B55 AE 9B -  -  .db 174,155
 3345 D2:3B57 40 0B 00 D0 
              0B 00 10 0C 
              00 -  -  -  .f 180,189,193
 3346 D2:3B60 00 -  -  -  .db 0
 3347 D2:3B61 96 9C -  -  .db 150,156
 3348 D2:3B63 94 9C -  -  .db 148,156
 3349 D2:3B65 94 9F -  -  .db 148,159
 3350 D2:3B67 40 0B 00 10 
              0C 00 F0 0A 
              00 -  -  -  .f 180,193,175
 3351 D2:3B70 00 -  -  -  .db 0
 3352 D2:3B71 96 9C -  -  .db 150,156
 3353 D2:3B73 94 9F -  -  .db 148,159
 3354 D2:3B75 96 9F -  -  .db 150,159
 3355 D2:3B77 00 0B 00 E0 
              0B 00 20 0C 
              00 -  -  -  .f 176,190,194
 3356 D2:3B80 00 -  -  -  .db 0
 3357 D2:3B81 C3 98 -  -  .db 195,152
 3358 D2:3B83 B0 98 -  -  .db 176,152
 3359 D2:3B85 B0 9B -  -  .db 176,155
 3360 D2:3B87 00 0B 00 20 
              0C 00 D0 0A 
              00 -  -  -  .f 176,194,173
 3361 D2:3B90 00 -  -  -  .db 0
 3362 D2:3B91 C3 98 -  -  .db 195,152
 3363 D2:3B93 B0 9B -  -  .db 176,155
 3364 D2:3B95 C3 9B -  -  .db 195,155
 3365 D2:3B97 E0 0C 00 30 
              0A 00 20 0A 
              00 -  -  -  .f 206,163,162
 3366 D2:3BA0 00 -  -  -  .db 0
 3367 D2:3BA1 DF 90 -  -  .db 223,144
 3368 D2:3BA3 C4 90 -  -  .db 196,144
 3369 D2:3BA5 C4 93 -  -  .db 196,147
 3370 D2:3BA7 E0 0C 00 20 
              0A 00 10 0D 
              00 -  -  -  .f 206,162,209
 3371 D2:3BB0 00 -  -  -  .db 0
 3372 D2:3BB1 DF 90 -  -  .db 223,144
 3373 D2:3BB3 C4 93 -  -  .db 196,147
 3374 D2:3BB5 DF 93 -  -  .db 223,147
 3375 D2:3BB7 A0 0C 00 70 
              0A 00 30 0A 
              00 -  -  -  .f 202,167,163
 3376 D2:3BC0 00 -  -  -  .db 0
 3377 D2:3BC1 E0 90 -  -  .db 224,144
 3378 D2:3BC3 FB 90 -  -  .db 251,144
 3379 D2:3BC5 FB 93 -  -  .db 251,147
 3380 D2:3BC7 A0 0C 00 30 
              0A 00 E0 0C 
              00 -  -  -  .f 202,163,206
 3381 D2:3BD0 00 -  -  -  .db 0
 3382 D2:3BD1 E0 90 -  -  .db 224,144
 3383 D2:3BD3 FB 93 -  -  .db 251,147
 3384 D2:3BD5 E0 93 -  -  .db 224,147
 3385 D2:3BD7 B0 0C 00 40 
              0A 00 70 0A 
              00 -  -  -  .f 203,164,167
 3386 D2:3BE0 00 -  -  -  .db 0
 3387 D2:3BE1 C8 2C -  -  .db 200,44
 3388 D2:3BE3 E3 2C -  -  .db 227,44
 3389 D2:3BE5 E3 3A -  -  .db 227,58
 3390 D2:3BE7 B0 0C 00 70 
              0A 00 A0 0C 
              00 -  -  -  .f 203,167,202
 3391 D2:3BF0 00 -  -  -  .db 0
 3392 D2:3BF1 C8 2C -  -  .db 200,44
 3393 D2:3BF3 E3 3A -  -  .db 227,58
 3394 D2:3BF5 C8 3A -  -  .db 200,58
 3395 D2:3BF7 D0 0C 00 60 
              0A 00 40 0A 
              00 -  -  -  .f 205,166,164
 3396 D2:3C00 00 -  -  -  .db 0
 3397 D2:3C01 9C 78 -  -  .db 156,120
 3398 D2:3C03 B7 78 -  -  .db 183,120
 3399 D2:3C05 B7 7F -  -  .db 183,127
 3400 D2:3C07 D0 0C 00 40 
              0A 00 B0 0C 
              00 -  -  -  .f 205,164,203
 3401 D2:3C10 00 -  -  -  .db 0
 3402 D2:3C11 9C 78 -  -  .db 156,120
 3403 D2:3C13 B7 7F -  -  .db 183,127
 3404 D2:3C15 9C 7F -  -  .db 156,127
 3405 D2:3C17 60 0A 00 D0 
              0C 00 C0 0C 
              00 -  -  -  .f 166,205,204
 3406 D2:3C20 00 -  -  -  .db 0
 3407 D2:3C21 9A 98 -  -  .db 154,152
 3408 D2:3C23 80 98 -  -  .db 128,152
 3409 D2:3C25 80 9B -  -  .db 128,155
 3410 D2:3C27 60 0A 00 C0 
              0C 00 50 0A 
              00 -  -  -  .f 166,204,165
 3411 D2:3C30 00 -  -  -  .db 0
 3412 D2:3C31 9A 98 -  -  .db 154,152
 3413 D2:3C33 80 9B -  -  .db 128,155
 3414 D2:3C35 9A 9B -  -  .db 154,155
 3415 D2:3C37 10 0D 00 20 
              0A 00 B0 0A 
              00 -  -  -  .f 209,162,171
 3416 D2:3C40 00 -  -  -  .db 0
 3417 D2:3C41 D4 98 -  -  .db 212,152
 3418 D2:3C43 E3 98 -  -  .db 227,152
 3419 D2:3C45 E3 9B -  -  .db 227,155
 3420 D2:3C47 10 0D 00 B0 
              0A 00 60 0C 
              00 -  -  -  .f 209,171,198
 3421 D2:3C50 00 -  -  -  .db 0
 3422 D2:3C51 D4 98 -  -  .db 212,152
 3423 D2:3C53 E3 9B -  -  .db 227,155
 3424 D2:3C55 D4 9B -  -  .db 212,155
 3425 D2:3C57 E0 09 00 D0 
              0A 00 C0 0A 
              00 -  -  -  .f 158,173,172
 3426 D2:3C60 00 -  -  -  .db 0
 3427 D2:3C61 FC 90 -  -  .db 252,144
 3428 D2:3C63 FF 90 -  -  .db 255,144
 3429 D2:3C65 FF 93 -  -  .db 255,147
 3430 D2:3C67 70 0C 00 20 
              0C 00 30 0D 
              00 -  -  -  .f 199,194,211
 3431 D2:3C70 00 -  -  -  .db 0
 3432 D2:3C71 FF 93 -  -  .db 255,147
 3433 D2:3C73 FF 90 -  -  .db 255,144
 3434 D2:3C75 FC 90 -  -  .db 252,144
 3435 D2:3C77 20 0A 00 E0 
              09 00 C0 0A 
              00 -  -  -  .f 162,158,172
 3436 D2:3C80 00 -  -  -  .db 0
 3437 D2:3C81 F4 6C -  -  .db 244,108
 3438 D2:3C83 FF 6C -  -  .db 255,108
 3439 D2:3C85 FF 73 -  -  .db 255,115
 3440 D2:3C87 C0 0A 00 B0 
              0A 00 20 0A 
              00 -  -  -  .f 172,171,162
 3441 D2:3C90 00 -  -  -  .db 0
 3442 D2:3C91 FF 73 -  -  .db 255,115
 3443 D2:3C93 F4 73 -  -  .db 244,115
 3444 D2:3C95 F4 6C -  -  .db 244,108
 3445 D2:3C97 30 0D 00 10 
              0D 00 60 0C 
              00 -  -  -  .f 211,209,198
 3446 D2:3CA0 00 -  -  -  .db 0
 3447 D2:3CA1 FF 6C -  -  .db 255,108
 3448 D2:3CA3 F4 6C -  -  .db 244,108
 3449 D2:3CA5 F4 73 -  -  .db 244,115
 3450 D2:3CA7 60 0C 00 70 
              0C 00 30 0D 
              00 -  -  -  .f 198,199,211
 3451 D2:3CB0 00 -  -  -  .db 0
 3452 D2:3CB1 F4 73 -  -  .db 244,115
 3453 D2:3CB3 FF 73 -  -  .db 255,115
 3454 D2:3CB5 FF 6C -  -  .db 255,108
 3455 D2:3CB7 70 09 00 E0 
              09 00 20 0A 
              00 -  -  -  .f 151,158,162
 3456 D2:3CC0 00 -  -  -  .db 0
 3457 D2:3CC1 CF 88 -  -  .db 207,136
 3458 D2:3CC3 CF 8F -  -  .db 207,143
 3459 D2:3CC5 C4 8F -  -  .db 196,143
 3460 D2:3CC7 90 09 00 80 
              09 00 70 09 
              00 -  -  -  .f 153,152,151
 3461 D2:3CD0 00 -  -  -  .db 0
 3462 D2:3CD1 9C 6C -  -  .db 156,108
 3463 D2:3CD3 A2 6C -  -  .db 162,108
 3464 D2:3CD5 A2 77 -  -  .db 162,119
 3465 D2:3CD7 10 0D 00 30 
              0D 00 80 0D 
              00 -  -  -  .f 209,211,216
 3466 D2:3CE0 00 -  -  -  .db 0
 3467 D2:3CE1 C4 8F -  -  .db 196,143
 3468 D2:3CE3 CF 8F -  -  .db 207,143
 3469 D2:3CE5 CF 88 -  -  .db 207,136
 3470 D2:3CE7 80 0D 00 90 
              0D 00 A0 0D 
              00 -  -  -  .f 216,217,218
 3471 D2:3CF0 00 -  -  -  .db 0
 3472 D2:3CF1 A2 77 -  -  .db 162,119
 3473 D2:3CF3 A2 6C -  -  .db 162,108
 3474 D2:3CF5 9C 6C -  -  .db 156,108
 3475 D2:3CF7 D0 0B 00 B0 
              0B 00 90 0D 
              00 -  -  -  .f 189,187,217
 3476 D2:3D00 00 -  -  -  .db 0
 3477 D2:3D01 98 97 -  -  .db 152,151
 3478 D2:3D03 98 90 -  -  .db 152,144
 3479 D2:3D05 9E 90 -  -  .db 158,144
 3480 D2:3D07 80 0D 00 70 
              0D 00 90 0D 
              00 -  -  -  .f 216,215,217
 3481 D2:3D10 00 -  -  -  .db 0
 3482 D2:3D11 C0 97 -  -  .db 192,151
 3483 D2:3D13 C0 90 -  -  .db 192,144
 3484 D2:3D15 C3 90 -  -  .db 195,144
 3485 D2:3D17 50 0B 00 80 
              0B 00 60 0B 
              00 -  -  -  .f 181,184,182
 3486 D2:3D20 00 -  -  -  .db 0
 3487 D2:3D21 94 9F -  -  .db 148,159
 3488 D2:3D23 94 9C -  -  .db 148,156
 3489 D2:3D25 96 9C -  -  .db 150,156
 3490 D2:3D27 80 0B 00 70 
              0B 00 60 0B 
              00 -  -  -  .f 184,183,182
 3491 D2:3D30 00 -  -  -  .db 0
 3492 D2:3D31 94 9F -  -  .db 148,159
 3493 D2:3D33 94 9C -  -  .db 148,156
 3494 D2:3D35 96 9C -  -  .db 150,156
 3495 D2:3D37 C0 0B 00 B0 
              0B 00 A0 0B 
              00 -  -  -  .f 188,187,186
 3496 D2:3D40 00 -  -  -  .db 0
 3497 D2:3D41 94 9F -  -  .db 148,159
 3498 D2:3D43 94 9C -  -  .db 148,156
 3499 D2:3D45 96 9C -  -  .db 150,156
 3500 D2:3D47 90 0B 00 A0 
              0B 00 B0 0B 
              00 -  -  -  .f 185,186,187
 3501 D2:3D50 00 -  -  -  .db 0
 3502 D2:3D51 94 9F -  -  .db 148,159
 3503 D2:3D53 94 9C -  -  .db 148,156
 3504 D2:3D55 96 9C -  -  .db 150,156
 3505 D2:3D57 40 0C 00 70 
              0C 00 60 0C 
              00 -  -  -  .f 196,199,198
 3506 D2:3D60 00 -  -  -  .db 0
 3507 D2:3D61 FF 87 -  -  .db 255,135
 3508 D2:3D63 FF 80 -  -  .db 255,128
 3509 D2:3D65 F4 80 -  -  .db 244,128
 3510 D2:3D67 90 0C 00 80 
              0C 00 40 0C 
              00 -  -  -  .f 201,200,196
 3511 D2:3D70 00 -  -  -  .db 0
 3512 D2:3D71 AC 8F -  -  .db 172,143
 3513 D2:3D73 B7 8F -  -  .db 183,143
 3514 D2:3D75 B7 88 -  -  .db 183,136
 3515 D2:3D77 20 0B 00 B0 
              0A 00 C0 0A 
              00 -  -  -  .f 178,171,172
 3516 D2:3D80 00 -  -  -  .db 0
 3517 D2:3D81 F4 87 -  -  .db 244,135
 3518 D2:3D83 F4 80 -  -  .db 244,128
 3519 D2:3D85 FF 80 -  -  .db 255,128
 3520 D2:3D87 80 0A 00 90 
              0A 00 20 0B 
              00 -  -  -  .f 168,169,178
 3521 D2:3D90 00 -  -  -  .db 0
 3522 D2:3D91 B7 8F -  -  .db 183,143
 3523 D2:3D93 AC 8F -  -  .db 172,143
 3524 D2:3D95 AC 88 -  -  .db 172,136
 3525 D2:3D97 40 0B 00 A0 
              09 00 80 09 
              00 -  -  -  .f 180,154,152
 3526 D2:3DA0 00 -  -  -  .db 0
 3527 D2:3DA1 98 97 -  -  .db 152,151
 3528 D2:3DA3 9E 97 -  -  .db 158,151
 3529 D2:3DA5 9E 90 -  -  .db 158,144
 3530 D2:3DA7 50 0B 00 90 
              09 00 50 0A 
              00 -  -  -  .f 181,153,165
 3531 D2:3DB0 00 -  -  -  .db 0
 3532 D2:3DB1 AA 88 -  -  .db 170,136
 3533 D2:3DB3 A0 88 -  -  .db 160,136
 3534 D2:3DB5 A0 8F -  -  .db 160,143
 3535 D2:3DB7 80 09 00 90 
              09 00 50 0B 
              00 -  -  -  .f 152,153,181
 3536 D2:3DC0 00 -  -  -  .db 0
 3537 D2:3DC1 86 97 -  -  .db 134,151
 3538 D2:3DC3 86 90 -  -  .db 134,144
 3539 D2:3DC5 80 90 -  -  .db 128,144
 3540 D2:3DC7 A0 0D 00 90 
              0D 00 B0 0B 
              00 -  -  -  .f 218,217,187
 3541 D2:3DD0 00 -  -  -  .db 0
 3542 D2:3DD1 86 90 -  -  .db 134,144
 3543 D2:3DD3 86 97 -  -  .db 134,151
 3544 D2:3DD5 80 97 -  -  .db 128,151
 3545 D2:3DD7 10 0D 00 A0 
              0D 00 C0 0C 
              00 -  -  -  .f 209,218,204
 3546 D2:3DE0 00 -  -  -  .db 0
 3547 D2:3DE1 C4 3E -  -  .db 196,62
 3548 D2:3DE3 C4 2C -  -  .db 196,44
 3549 D2:3DE5 C7 2C -  -  .db 199,44
 3550 D2:3DE7 50 0B 00 60 
              0B 00 80 09 
              00 -  -  -  .f 181,182,152
 3551 D2:3DF0 00 -  -  -  .db 0
 3552 D2:3DF1 80 90 -  -  .db 128,144
 3553 D2:3DF3 80 97 -  -  .db 128,151
 3554 D2:3DF5 86 97 -  -  .db 134,151
 3555 D2:3DF7 B0 0B 00 C0 
              0B 00 A0 0D 
              00 -  -  -  .f 187,188,218
 3556 D2:3E00 00 -  -  -  .db 0
 3557 D2:3E01 80 97 -  -  .db 128,151
 3558 D2:3E03 80 90 -  -  .db 128,144
 3559 D2:3E05 86 90 -  -  .db 134,144
 3560 D2:3E07 80 09 00 60 
              0B 00 40 0B 
              00 -  -  -  .f 152,182,180
 3561 D2:3E10 00 -  -  -  .db 0
 3562 D2:3E11 9E 90 -  -  .db 158,144
 3563 D2:3E13 98 90 -  -  .db 152,144
 3564 D2:3E15 98 97 -  -  .db 152,151
 3565 D2:3E17 90 0D 00 70 
              0D 00 D0 0B 
              00 -  -  -  .f 217,215,189
 3566 D2:3E20 00 -  -  -  .db 0
 3567 D2:3E21 9E 90 -  -  .db 158,144
 3568 D2:3E23 9E 97 -  -  .db 158,151
 3569 D2:3E25 98 97 -  -  .db 152,151
 3570 D2:3E27 80 09 00 A0 
              09 00 70 09 
              00 -  -  -  .f 152,154,151
 3571 D2:3E30 00 -  -  -  .db 0
 3572 D2:3E31 C3 90 -  -  .db 195,144
 3573 D2:3E33 C0 90 -  -  .db 192,144
 3574 D2:3E35 C0 97 -  -  .db 192,151
 3575 D2:3E37 00 0C 00 00 
              0D 00 50 0C 
              00 -  -  -  .f 192,208,197
 3576 D2:3E40 00 -  -  -  .db 0
 3577 D2:3E41 92 9C -  -  .db 146,156
 3578 D2:3E43 90 9C -  -  .db 144,156
 3579 D2:3E45 90 9F -  -  .db 144,159
 3580 D2:3E47 00 0D 00 50 
              0D 00 50 0C 
              00 -  -  -  .f 208,213,197
 3581 D2:3E50 00 -  -  -  .db 0
 3582 D2:3E51 92 9C -  -  .db 146,156
 3583 D2:3E53 90 9C -  -  .db 144,156
 3584 D2:3E55 90 9F -  -  .db 144,159
 3585 D2:3E57 50 0D 00 F0 
              0C 00 50 0C 
              00 -  -  -  .f 213,207,197
 3586 D2:3E60 00 -  -  -  .db 0
 3587 D2:3E61 90 9F -  -  .db 144,159
 3588 D2:3E63 90 9C -  -  .db 144,156
 3589 D2:3E65 92 9C -  -  .db 146,156
 3590 D2:3E67 F0 0C 00 F0 
              0B 00 50 0C 
              00 -  -  -  .f 207,191,197
 3591 D2:3E70 00 -  -  -  .db 0
 3592 D2:3E71 90 9F -  -  .db 144,159
 3593 D2:3E73 90 9C -  -  .db 144,156
 3594 D2:3E75 92 9C -  -  .db 146,156
 3595 D2:3E77 10 0C 00 60 
              0D 00 00 0C 
              00 -  -  -  .f 193,214,192
 3596 D2:3E80 00 -  -  -  .db 0
 3597 D2:3E81 92 9F -  -  .db 146,159
 3598 D2:3E83 90 9F -  -  .db 144,159
 3599 D2:3E85 90 9C -  -  .db 144,156
 3600 D2:3E87 00 0D 00 00 
              0C 00 60 0D 
              00 -  -  -  .f 208,192,214
 3601 D2:3E90 00 -  -  -  .db 0
 3602 D2:3E91 90 9C -  -  .db 144,156
 3603 D2:3E93 92 9C -  -  .db 146,156
 3604 D2:3E95 92 9F -  -  .db 146,159
 3605 D2:3E97 00 0D 00 60 
              0D 00 B0 0D 
              00 -  -  -  .f 208,214,219
 3606 D2:3EA0 00 -  -  -  .db 0
 3607 D2:3EA1 92 9C -  -  .db 146,156
 3608 D2:3EA3 92 9F -  -  .db 146,159
 3609 D2:3EA5 90 9F -  -  .db 144,159
 3610 D2:3EA7 B0 0D 00 50 
              0D 00 00 0D 
              00 -  -  -  .f 219,213,208
 3611 D2:3EB0 00 -  -  -  .db 0
 3612 D2:3EB1 90 9F -  -  .db 144,159
 3613 D2:3EB3 90 9C -  -  .db 144,156
 3614 D2:3EB5 92 9C -  -  .db 146,156
 3615 D2:3EB7 50 0D 00 B0 
              0D 00 40 0D 
              00 -  -  -  .f 213,219,212
 3616 D2:3EC0 00 -  -  -  .db 0
 3617 D2:3EC1 92 9C -  -  .db 146,156
 3618 D2:3EC3 92 9F -  -  .db 146,159
 3619 D2:3EC5 90 9F -  -  .db 144,159
 3620 D2:3EC7 40 0D 00 F0 
              0C 00 50 0D 
              00 -  -  -  .f 212,207,213
 3621 D2:3ED0 00 -  -  -  .db 0
 3622 D2:3ED1 90 9F -  -  .db 144,159
 3623 D2:3ED3 90 9C -  -  .db 144,156
 3624 D2:3ED5 92 9C -  -  .db 146,156
 3625 D2:3ED7 F0 0C 00 40 
              0D 00 E0 0B 
              00 -  -  -  .f 207,212,190
 3626 D2:3EE0 00 -  -  -  .db 0
 3627 D2:3EE1 92 9C -  -  .db 146,156
 3628 D2:3EE3 92 9F -  -  .db 146,159
 3629 D2:3EE5 90 9F -  -  .db 144,159
 3630 D2:3EE7 E0 0B 00 F0 
              0B 00 F0 0C 
              00 -  -  -  .f 190,191,207
 3631 D2:3EF0 00 -  -  -  .db 0
 3632 D2:3EF1 90 9F -  -  .db 144,159
 3633 D2:3EF3 90 9C -  -  .db 144,156
 3634 D2:3EF5 92 9C -  -  .db 146,156
 3635 D2:3EF7 70 0D 00 10 
              0C 00 D0 0B 
              00 -  -  -  .f 215,193,189
 3636 D2:3F00 00 -  -  -  .db 0
 3637 D2:3F01 9C 9F -  -  .db 156,159
 3638 D2:3F03 9E 9F -  -  .db 158,159
 3639 D2:3F05 9E 9C -  -  .db 158,156
 3640 D2:3F07 70 0D 00 60 
              0D 00 10 0C 
              00 -  -  -  .f 215,214,193
 3641 D2:3F10 00 -  -  -  .db 0
 3642 D2:3F11 90 9C -  -  .db 144,156
 3643 D2:3F13 92 9C -  -  .db 146,156
 3644 D2:3F15 92 9F -  -  .db 146,159
 3645 D2:3F17 70 0D 00 80 
              0D 00 60 0D 
              00 -  -  -  .f 215,216,214
 3646 D2:3F20 00 -  -  -  .db 0
 3647 D2:3F21 92 9C -  -  .db 146,156
 3648 D2:3F23 92 9F -  -  .db 146,159
 3649 D2:3F25 90 9F -  -  .db 144,159
 3650 D2:3F27 80 0D 00 B0 
              0D 00 60 0D 
              00 -  -  -  .f 216,219,214
 3651 D2:3F30 00 -  -  -  .db 0
 3652 D2:3F31 92 9C -  -  .db 146,156
 3653 D2:3F33 92 9F -  -  .db 146,159
 3654 D2:3F35 90 9F -  -  .db 144,159
 3655 D2:3F37 B0 0D 00 80 
              0D 00 30 0D 
              00 -  -  -  .f 219,216,211
 3656 D2:3F40 00 -  -  -  .db 0
 3657 D2:3F41 FF 98 -  -  .db 255,152
 3658 D2:3F43 FF 9B -  -  .db 255,155
 3659 D2:3F45 FC 9B -  -  .db 252,155
 3660 D2:3F47 30 0D 00 40 
              0D 00 B0 0D 
              00 -  -  -  .f 211,212,219
 3661 D2:3F50 00 -  -  -  .db 0
 3662 D2:3F51 FC 9B -  -  .db 252,155
 3663 D2:3F53 FC 98 -  -  .db 252,152
 3664 D2:3F55 FF 98 -  -  .db 255,152
 3665 D2:3F57 40 0D 00 30 
              0D 00 20 0C 
              00 -  -  -  .f 212,211,194
 3666 D2:3F60 00 -  -  -  .db 0
 3667 D2:3F61 86 9C -  -  .db 134,156
 3668 D2:3F63 86 9F -  -  .db 134,159
 3669 D2:3F65 84 9F -  -  .db 132,159
 3670 D2:3F67 20 0C 00 E0 
              0B 00 40 0D 
              00 -  -  -  .f 194,190,212
 3671 D2:3F70 00 -  -  -  .db 0
 3672 D2:3F71 84 9F -  -  .db 132,159
 3673 D2:3F73 84 9C -  -  .db 132,156
 3674 D2:3F75 86 9C -  -  .db 134,156
 3675 D2:3F77 E0 0A 00 A0 
              0A 00 10 0A 
              00 -  -  -  .f 174,170,161
 3676 D2:3F80 00 -  -  -  .db 0
 3677 D2:3F81 92 9C -  -  .db 146,156
 3678 D2:3F83 90 9C -  -  .db 144,156
 3679 D2:3F85 90 9F -  -  .db 144,159
 3680 D2:3F87 10 0A 00 A0 
              0A 00 C0 09 
              00 -  -  -  .f 161,170,156
 3681 D2:3F90 00 -  -  -  .db 0
 3682 D2:3F91 92 9C -  -  .db 146,156
 3683 D2:3F93 90 9C -  -  .db 144,156
 3684 D2:3F95 90 9F -  -  .db 144,159
 3685 D2:3F97 C0 09 00 A0 
              0A 00 F0 09 
              00 -  -  -  .f 156,170,159
 3686 D2:3FA0 00 -  -  -  .db 0
 3687 D2:3FA1 92 9C -  -  .db 146,156
 3688 D2:3FA3 90 9C -  -  .db 144,156
 3689 D2:3FA5 90 9F -  -  .db 144,159
 3690 D2:3FA7 F0 09 00 A0 
              0A 00 10 0B 
              00 -  -  -  .f 159,170,177
 3691 D2:3FB0 00 -  -  -  .db 0
 3692 D2:3FB1 92 9C -  -  .db 146,156
 3693 D2:3FB3 90 9C -  -  .db 144,156
 3694 D2:3FB5 90 9F -  -  .db 144,159
 3695 D2:3FB7 D0 09 00 F0 
              0A 00 E0 0A 
              00 -  -  -  .f 157,175,174
 3696 D2:3FC0 00 -  -  -  .db 0
 3697 D2:3FC1 92 9F -  -  .db 146,159
 3698 D2:3FC3 90 9F -  -  .db 144,159
 3699 D2:3FC5 90 9C -  -  .db 144,156
 3700 D2:3FC7 E0 0A 00 10 
              0A 00 D0 09 
              00 -  -  -  .f 174,161,157
 3701 D2:3FD0 00 -  -  -  .db 0
 3702 D2:3FD1 90 9C -  -  .db 144,156
 3703 D2:3FD3 92 9C -  -  .db 146,156
 3704 D2:3FD5 92 9F -  -  .db 146,159
 3705 D2:3FD7 60 09 00 D0 
              09 00 10 0A 
              00 -  -  -  .f 150,157,161
 3706 D2:3FE0 00 -  -  -  .db 0
 3707 D2:3FE1 92 9F -  -  .db 146,159
 3708 D2:3FE3 90 9F -  -  .db 144,159
 3709 D2:3FE5 90 9C -  -  .db 144,156
 3710 D2:3FE7 10 0A 00 C0 
              09 00 60 09 
              00 -  -  -  .f 161,156,150
 3711 D2:3FF0 00 -  -  -  .db 0
 3712 D2:3FF1 90 9C -  -  .db 144,156
 3713 D2:3FF3 92 9C -  -  .db 146,156
 3714 D2:3FF5 92 9F -  -  .db 146,159
 3715 D2:3FF7 B0 09 00 60 
              09 00 C0 09 
              00 -  -  -  .f 155,150,156
 3716 D2:4000 00 -  -  -  .db 0
 3717 D2:4001 90 9F -  -  .db 144,159
 3718 D2:4003 92 9F -  -  .db 146,159
 3719 D2:4005 92 9C -  -  .db 146,156
 3720 D2:4007 C0 09 00 F0 
              09 00 B0 09 
              00 -  -  -  .f 156,159,155
 3721 D2:4010 00 -  -  -  .db 0
 3722 D2:4011 92 9C -  -  .db 146,156
 3723 D2:4013 90 9C -  -  .db 144,156
 3724 D2:4015 90 9F -  -  .db 144,159
 3725 D2:4017 00 0B 00 B0 
              09 00 F0 09 
              00 -  -  -  .f 176,155,159
 3726 D2:4020 00 -  -  -  .db 0
 3727 D2:4021 90 9F -  -  .db 144,159
 3728 D2:4023 92 9F -  -  .db 146,159
 3729 D2:4025 92 9C -  -  .db 146,156
 3730 D2:4027 F0 09 00 10 
              0B 00 00 0B 
              00 -  -  -  .f 159,177,176
 3731 D2:4030 00 -  -  -  .db 0
 3732 D2:4031 92 9C -  -  .db 146,156
 3733 D2:4033 90 9C -  -  .db 144,156
 3734 D2:4035 90 9F -  -  .db 144,159
 3735 D2:4037 40 0B 00 F0 
              0A 00 A0 09 
              00 -  -  -  .f 180,175,154
 3736 D2:4040 00 -  -  -  .db 0
 3737 D2:4041 9E 9C -  -  .db 158,156
 3738 D2:4043 9E 9F -  -  .db 158,159
 3739 D2:4045 9C 9F -  -  .db 156,159
 3740 D2:4047 A0 09 00 F0 
              0A 00 D0 09 
              00 -  -  -  .f 154,175,157
 3741 D2:4050 00 -  -  -  .db 0
 3742 D2:4051 90 9C -  -  .db 144,156
 3743 D2:4053 92 9C -  -  .db 146,156
 3744 D2:4055 92 9F -  -  .db 146,159
 3745 D2:4057 A0 09 00 D0 
              09 00 70 09 
              00 -  -  -  .f 154,157,151
 3746 D2:4060 00 -  -  -  .db 0
 3747 D2:4061 92 9C -  -  .db 146,156
 3748 D2:4063 92 9F -  -  .db 146,159
 3749 D2:4065 90 9F -  -  .db 144,159
 3750 D2:4067 70 09 00 D0 
              09 00 60 09 
              00 -  -  -  .f 151,157,150
 3751 D2:4070 00 -  -  -  .db 0
 3752 D2:4071 92 9C -  -  .db 146,156
 3753 D2:4073 92 9F -  -  .db 146,159
 3754 D2:4075 90 9F -  -  .db 144,159
 3755 D2:4077 E0 09 00 70 
              09 00 60 09 
              00 -  -  -  .f 158,151,150
 3756 D2:4080 00 -  -  -  .db 0
 3757 D2:4081 FC 9B -  -  .db 252,155
 3758 D2:4083 FF 9B -  -  .db 255,155
 3759 D2:4085 FF 98 -  -  .db 255,152
 3760 D2:4087 60 09 00 B0 
              09 00 E0 09 
              00 -  -  -  .f 150,155,158
 3761 D2:4090 00 -  -  -  .db 0
 3762 D2:4091 FF 98 -  -  .db 255,152
 3763 D2:4093 FC 98 -  -  .db 252,152
 3764 D2:4095 FC 9B -  -  .db 252,155
 3765 D2:4097 D0 0A 00 E0 
              09 00 B0 09 
              00 -  -  -  .f 173,158,155
 3766 D2:40A0 00 -  -  -  .db 0
 3767 D2:40A1 84 9F -  -  .db 132,159
 3768 D2:40A3 86 9F -  -  .db 134,159
 3769 D2:40A5 86 9C -  -  .db 134,156
 3770 D2:40A7 B0 09 00 00 
              0B 00 D0 0A 
              00 -  -  -  .f 155,176,173
 3771 D2:40B0 00 -  -  -  .db 0
 3772 D2:40B1 86 9C -  -  .db 134,156
 3773 D2:40B3 84 9C -  -  .db 132,156
 3774 D2:40B5 84 9F -  -  .db 132,159
 3775 D2:40B7 A0 0D 00 10 
              0D 00 80 0D 
              00 -  -  -  .f 218,209,216
 3776 D2:40C0 00 -  -  -  .db 0
 3777 D2:40C1 9C 6C -  -  .db 156,108
 3778 D2:40C3 9C 77 -  -  .db 156,119
 3779 D2:40C5 A2 77 -  -  .db 162,119
 3780 D2:40C7 70 09 00 20 
              0A 00 90 09 
              00 -  -  -  .f 151,162,153
 3781 D2:40D0 00 -  -  -  .db 0
 3782 D2:40D1 A2 77 -  -  .db 162,119
 3783 D2:40D3 9C 77 -  -  .db 156,119
 3784 D2:40D5 9C 6C -  -  .db 156,108
 3785 D2:40D7 20 0B 00 30 
              0B 00 80 0A 
              00 -  -  -  .f 178,179,168
 3786 D2:40E0 00 -  -  -  .db 0
 3787 D2:40E1 AC 88 -  -  .db 172,136
 3788 D2:40E3 B7 88 -  -  .db 183,136
 3789 D2:40E5 B7 8F -  -  .db 183,143
 3790 D2:40E7 60 0C 00 30 
              0C 00 40 0C 
              00 -  -  -  .f 198,195,196
 3791 D2:40F0 00 -  -  -  .db 0
 3792 D2:40F1 F4 80 -  -  .db 244,128
 3793 D2:40F3 F4 87 -  -  .db 244,135
 3794 D2:40F5 FF 87 -  -  .db 255,135
 3795 D2:40F7 40 0C 00 30 
              0C 00 90 0C 
              00 -  -  -  .f 196,195,201
 3796 D2:4100 00 -  -  -  .db 0
 3797 D2:4101 B7 88 -  -  .db 183,136
 3798 D2:4103 AC 88 -  -  .db 172,136
 3799 D2:4105 AC 8F -  -  .db 172,143
 3800 D2:4107 C0 0A 00 30 
              0B 00 20 0B 
              00 -  -  -  .f 172,179,178
 3801 D2:4110 00 -  -  -  .db 0
 3802 D2:4111 FF 80 -  -  .db 255,128
 3803 D2:4113 FF 87 -  -  .db 255,135
 3804 D2:4115 F4 87 -  -  .db 244,135
 3805 D2:4117 20 0A 00 30 
              0A 00 00 0A 
              00 -  -  -  .f 162,163,160
 3806 D2:4120 00 -  -  -  .db 0
 3807 D2:4121 92 6C -  -  .db 146,108
 3808 D2:4123 8C 6C -  -  .db 140,108
 3809 D2:4125 8C 77 -  -  .db 140,119
 3810 D2:4127 30 0A 00 70 
              0A 00 00 0A 
              00 -  -  -  .f 163,167,160
 3811 D2:4130 00 -  -  -  .db 0
 3812 D2:4131 92 6C -  -  .db 146,108
 3813 D2:4133 8C 6C -  -  .db 140,108
 3814 D2:4135 8C 77 -  -  .db 140,119
 3815 D2:4137 70 0A 00 40 
              0A 00 00 0A 
              00 -  -  -  .f 167,164,160
 3816 D2:4140 00 -  -  -  .db 0
 3817 D2:4141 92 6C -  -  .db 146,108
 3818 D2:4143 8C 6C -  -  .db 140,108
 3819 D2:4145 8C 77 -  -  .db 140,119
 3820 D2:4147 40 0A 00 60 
              0A 00 00 0A 
              00 -  -  -  .f 164,166,160
 3821 D2:4150 00 -  -  -  .db 0
 3822 D2:4151 92 6C -  -  .db 146,108
 3823 D2:4153 8C 6C -  -  .db 140,108
 3824 D2:4155 8C 77 -  -  .db 140,119
 3825 D2:4157 60 0A 00 50 
              0A 00 00 0A 
              00 -  -  -  .f 166,165,160
 3826 D2:4160 00 -  -  -  .db 0
 3827 D2:4161 92 6C -  -  .db 146,108
 3828 D2:4163 8C 6C -  -  .db 140,108
 3829 D2:4165 8C 77 -  -  .db 140,119
 3830 D2:4167 50 0A 00 20 
              0A 00 00 0A 
              00 -  -  -  .f 165,162,160
 3831 D2:4170 00 -  -  -  .db 0
 3832 D2:4171 92 6C -  -  .db 146,108
 3833 D2:4173 8C 6C -  -  .db 140,108
 3834 D2:4175 8C 77 -  -  .db 140,119
 3835 D2:4177 E0 0C 00 10 
              0D 00 20 0D 
              00 -  -  -  .f 206,209,210
 3836 D2:4180 00 -  -  -  .db 0
 3837 D2:4181 92 6C -  -  .db 146,108
 3838 D2:4183 8C 6C -  -  .db 140,108
 3839 D2:4185 8C 77 -  -  .db 140,119
 3840 D2:4187 A0 0C 00 E0 
              0C 00 20 0D 
              00 -  -  -  .f 202,206,210
 3841 D2:4190 00 -  -  -  .db 0
 3842 D2:4191 92 6C -  -  .db 146,108
 3843 D2:4193 8C 6C -  -  .db 140,108
 3844 D2:4195 8C 77 -  -  .db 140,119
 3845 D2:4197 B0 0C 00 A0 
              0C 00 20 0D 
              00 -  -  -  .f 203,202,210
 3846 D2:41A0 00 -  -  -  .db 0
 3847 D2:41A1 92 6C -  -  .db 146,108
 3848 D2:41A3 8C 6C -  -  .db 140,108
 3849 D2:41A5 8C 77 -  -  .db 140,119
 3850 D2:41A7 D0 0C 00 B0 
              0C 00 20 0D 
              00 -  -  -  .f 205,203,210
 3851 D2:41B0 00 -  -  -  .db 0
 3852 D2:41B1 92 6C -  -  .db 146,108
 3853 D2:41B3 8C 6C -  -  .db 140,108
 3854 D2:41B5 8C 77 -  -  .db 140,119
 3855 D2:41B7 C0 0C 00 D0 
              0C 00 20 0D 
              00 -  -  -  .f 204,205,210
 3856 D2:41C0 00 -  -  -  .db 0
 3857 D2:41C1 92 6C -  -  .db 146,108
 3858 D2:41C3 8C 6C -  -  .db 140,108
 3859 D2:41C5 8C 77 -  -  .db 140,119
 3860 D2:41C7 10 0D 00 C0 
              0C 00 20 0D 
              00 -  -  -  .f 209,204,210
 3861 D2:41D0 00 -  -  -  .db 0
 3862 D2:41D1 92 6C -  -  .db 146,108
 3863 D2:41D3 8C 6C -  -  .db 140,108
 3864 D2:41D5 8C 77 -  -  .db 140,119
 3865 D2:41D7 C0 0C 00 A0 
              0D 00 C0 0B 
              00 -  -  -  .f 204,218,188
 3866 D2:41E0 00 -  -  -  .db 0
 3867 D2:41E1 A0 8F -  -  .db 160,143
 3868 D2:41E3 A0 88 -  -  .db 160,136
 3869 D2:41E5 AA 88 -  -  .db 170,136
 3870 D2:41E7 50 0A 00 90 
              09 00 20 0A 
              00 -  -  -  .f 165,153,162
 3871 D2:41F0 00 -  -  -  .db 0
 3872 D2:41F1 C7 2C -  -  .db 199,44
 3873 D2:41F3 C4 2C -  -  .db 196,44
 3874 D2:41F5 C4 3E -  -  .db 196,62
 3875 D2:41F7 50 0A 00 C0 
              0C 00 C0 0B 
              00 -  -  -  .f 165,204,188
 3876 D2:4200 00 -  -  -  .db 0
 3877 D2:4201 D8 73 -  -  .db 216,115
 3878 D2:4203 F3 73 -  -  .db 243,115
 3879 D2:4205 F3 6C -  -  .db 243,108
 3880 D2:4207 C0 0B 00 50 
              0B 00 50 0A 
              00 -  -  -  .f 188,181,165
 3881 D2:4210 00 -  -  -  .db 0
 3882 D2:4211 F3 6C -  -  .db 243,108
 3883 D2:4213 D8 6C -  -  .db 216,108
 3884 D2:4215 D8 73 -  -  .db 216,115
 3885 D2:4217 40 0E 00 80 
              0E 00 E0 0D 
              00 -  -  -  .f 228,232,222
 3886 D2:4220 00 -  -  -  .db 0
 3887 D2:4221 96 9C -  -  .db 150,156
 3888 D2:4223 94 9C -  -  .db 148,156
 3889 D2:4225 94 9F -  -  .db 148,159
 3890 D2:4227 40 0E 00 E0 
              0D 00 C0 0D 
              00 -  -  -  .f 228,222,220
 3891 D2:4230 00 -  -  -  .db 0
 3892 D2:4231 96 9C -  -  .db 150,156
 3893 D2:4233 94 9F -  -  .db 148,159
 3894 D2:4235 96 9F -  -  .db 150,159
 3895 D2:4237 C0 0D 00 E0 
              0D 00 F0 0D 
              00 -  -  -  .f 220,222,223
 3896 D2:4240 00 -  -  -  .db 0
 3897 D2:4241 96 9C -  -  .db 150,156
 3898 D2:4243 94 9C -  -  .db 148,156
 3899 D2:4245 94 9F -  -  .db 148,159
 3900 D2:4247 C0 0D 00 F0 
              0D 00 D0 0D 
              00 -  -  -  .f 220,223,221
 3901 D2:4250 00 -  -  -  .db 0
 3902 D2:4251 96 9C -  -  .db 150,156
 3903 D2:4253 94 9F -  -  .db 148,159
 3904 D2:4255 96 9F -  -  .db 150,159
 3905 D2:4257 D0 0D 00 F0 
              0D 00 90 0E 
              00 -  -  -  .f 221,223,233
 3906 D2:4260 00 -  -  -  .db 0
 3907 D2:4261 96 9C -  -  .db 150,156
 3908 D2:4263 94 9C -  -  .db 148,156
 3909 D2:4265 94 9F -  -  .db 148,159
 3910 D2:4267 D0 0D 00 90 
              0E 00 50 0E 
              00 -  -  -  .f 221,233,229
 3911 D2:4270 00 -  -  -  .db 0
 3912 D2:4271 96 9C -  -  .db 150,156
 3913 D2:4273 94 9F -  -  .db 148,159
 3914 D2:4275 96 9F -  -  .db 150,159
 3915 D2:4277 50 0E 00 90 
              0E 00 B0 0E 
              00 -  -  -  .f 229,233,235
 3916 D2:4280 00 -  -  -  .db 0
 3917 D2:4281 96 9C -  -  .db 150,156
 3918 D2:4283 94 9C -  -  .db 148,156
 3919 D2:4285 94 9F -  -  .db 148,159
 3920 D2:4287 50 0E 00 B0 
              0E 00 A0 0E 
              00 -  -  -  .f 229,235,234
 3921 D2:4290 00 -  -  -  .db 0
 3922 D2:4291 96 9C -  -  .db 150,156
 3923 D2:4293 94 9F -  -  .db 148,159
 3924 D2:4295 96 9F -  -  .db 150,159
 3925 D2:4297 A0 0E 00 B0 
              0E 00 80 0E 
              00 -  -  -  .f 234,235,232
 3926 D2:42A0 00 -  -  -  .db 0
 3927 D2:42A1 96 9C -  -  .db 150,156
 3928 D2:42A3 94 9C -  -  .db 148,156
 3929 D2:42A5 94 9F -  -  .db 148,159
 3930 D2:42A7 A0 0E 00 80 
              0E 00 40 0E 
              00 -  -  -  .f 234,232,228
 3931 D2:42B0 00 -  -  -  .db 0
 3932 D2:42B1 96 9C -  -  .db 150,156
 3933 D2:42B3 94 9F -  -  .db 148,159
 3934 D2:42B5 96 9F -  -  .db 150,159
 3935 D2:42B7 10 0E 00 E0 
              0D 00 60 0E 
              00 -  -  -  .f 225,222,230
 3936 D2:42C0 00 -  -  -  .db 0
 3937 D2:42C1 96 9C -  -  .db 150,156
 3938 D2:42C3 94 9C -  -  .db 148,156
 3939 D2:42C5 94 9F -  -  .db 148,159
 3940 D2:42C7 E0 0D 00 80 
              0E 00 60 0E 
              00 -  -  -  .f 222,232,230
 3941 D2:42D0 00 -  -  -  .db 0
 3942 D2:42D1 96 9C -  -  .db 150,156
 3943 D2:42D3 94 9C -  -  .db 148,156
 3944 D2:42D5 94 9F -  -  .db 148,159
 3945 D2:42D7 F0 0D 00 E0 
              0D 00 10 0E 
              00 -  -  -  .f 223,222,225
 3946 D2:42E0 00 -  -  -  .db 0
 3947 D2:42E1 96 9C -  -  .db 150,156
 3948 D2:42E3 94 9C -  -  .db 148,156
 3949 D2:42E5 94 9F -  -  .db 148,159
 3950 D2:42E7 90 0E 00 F0 
              0D 00 70 0E 
              00 -  -  -  .f 233,223,231
 3951 D2:42F0 00 -  -  -  .db 0
 3952 D2:42F1 96 9C -  -  .db 150,156
 3953 D2:42F3 94 9C -  -  .db 148,156
 3954 D2:42F5 94 9F -  -  .db 148,159
 3955 D2:42F7 10 0E 00 70 
              0E 00 F0 0D 
              00 -  -  -  .f 225,231,223
 3956 D2:4300 00 -  -  -  .db 0
 3957 D2:4301 96 9C -  -  .db 150,156
 3958 D2:4303 94 9C -  -  .db 148,156
 3959 D2:4305 94 9F -  -  .db 148,159
 3960 D2:4307 60 0E 00 B0 
              0E 00 70 0E 
              00 -  -  -  .f 230,235,231
 3961 D2:4310 00 -  -  -  .db 0
 3962 D2:4311 96 9C -  -  .db 150,156
 3963 D2:4313 94 9C -  -  .db 148,156
 3964 D2:4315 94 9F -  -  .db 148,159
 3965 D2:4317 B0 0E 00 90 
              0E 00 70 0E 
              00 -  -  -  .f 235,233,231
 3966 D2:4320 00 -  -  -  .db 0
 3967 D2:4321 96 9C -  -  .db 150,156
 3968 D2:4323 94 9C -  -  .db 148,156
 3969 D2:4325 94 9F -  -  .db 148,159
 3970 D2:4327 80 0E 00 B0 
              0E 00 60 0E 
              00 -  -  -  .f 232,235,230
 3971 D2:4330 00 -  -  -  .db 0
 3972 D2:4331 96 9C -  -  .db 150,156
 3973 D2:4333 94 9C -  -  .db 148,156
 3974 D2:4335 94 9F -  -  .db 148,159
 3975 D2:4337 00 0E 00 20 
              0E 00 C0 0D 
              00 -  -  -  .f 224,226,220
 3976 D2:4340 00 -  -  -  .db 0
 3977 D2:4341 96 9C -  -  .db 150,156
 3978 D2:4343 94 9C -  -  .db 148,156
 3979 D2:4345 94 9F -  -  .db 148,159
 3980 D2:4347 40 0E 00 C0 
              0D 00 20 0E 
              00 -  -  -  .f 228,220,226
 3981 D2:4350 00 -  -  -  .db 0
 3982 D2:4351 96 9C -  -  .db 150,156
 3983 D2:4353 94 9C -  -  .db 148,156
 3984 D2:4355 94 9F -  -  .db 148,159
 3985 D2:4357 D0 0D 00 00 
              0E 00 C0 0D 
              00 -  -  -  .f 221,224,220
 3986 D2:4360 00 -  -  -  .db 0
 3987 D2:4361 96 9C -  -  .db 150,156
 3988 D2:4363 94 9C -  -  .db 148,156
 3989 D2:4365 94 9F -  -  .db 148,159
 3990 D2:4367 50 0E 00 30 
              0E 00 D0 0D 
              00 -  -  -  .f 229,227,221
 3991 D2:4370 00 -  -  -  .db 0
 3992 D2:4371 96 9C -  -  .db 150,156
 3993 D2:4373 94 9C -  -  .db 148,156
 3994 D2:4375 94 9F -  -  .db 148,159
 3995 D2:4377 30 0E 00 00 
              0E 00 D0 0D 
              00 -  -  -  .f 227,224,221
 3996 D2:4380 00 -  -  -  .db 0
 3997 D2:4381 96 9C -  -  .db 150,156
 3998 D2:4383 94 9C -  -  .db 148,156
 3999 D2:4385 94 9F -  -  .db 148,159
 4000 D2:4387 50 0E 00 A0 
              0E 00 30 0E 
              00 -  -  -  .f 229,234,227
 4001 D2:4390 00 -  -  -  .db 0
 4002 D2:4391 96 9C -  -  .db 150,156
 4003 D2:4393 94 9C -  -  .db 148,156
 4004 D2:4395 94 9F -  -  .db 148,159
 4005 D2:4397 40 0E 00 20 
              0E 00 A0 0E 
              00 -  -  -  .f 228,226,234
 4006 D2:43A0 00 -  -  -  .db 0
 4007 D2:43A1 96 9C -  -  .db 150,156
 4008 D2:43A3 94 9C -  -  .db 148,156
 4009 D2:43A5 94 9F -  -  .db 148,159
 4010 D2:43A7 20 0E 00 30 
              0E 00 A0 0E 
              00 -  -  -  .f 226,227,234
 4011 D2:43B0 00 -  -  -  .db 0
 4012 D2:43B1 96 9C -  -  .db 150,156
 4013 D2:43B3 94 9C -  -  .db 148,156
 4014 D2:43B5 94 9F -  -  .db 148,159
 4015 D2:43B7 70 0E 00 10 
              0E 00 60 0E 
              00 -  -  -  .f 231,225,230
 4016 D2:43C0 00 -  -  -  .db 0
 4017 D2:43C1 96 9C -  -  .db 150,156
 4018 D2:43C3 94 9C -  -  .db 148,156
 4019 D2:43C5 94 9F -  -  .db 148,159
 4020 D2:43C7 20 0E 00 00 
              0E 00 30 0E 
              00 -  -  -  .f 226,224,227
 4021 D2:43D0 00 -  -  -  .db 0
 4022 D2:43D1 96 9C -  -  .db 150,156
 4023 D2:43D3 94 9C -  -  .db 148,156
 4024 D2:43D5 94 9F -  -  .db 148,159
 4025 D2:43D7 50 0F 00 30 
              0F 00 E0 0E 
              00 -  -  -  .f 245,243,238
 4026 D2:43E0 00 -  -  -  .db 0
 4027 D2:43E1 96 9C -  -  .db 150,156
 4028 D2:43E3 94 9C -  -  .db 148,156
 4029 D2:43E5 94 9F -  -  .db 148,159
 4030 D2:43E7 50 0F 00 E0 
              0E 00 C0 0E 
              00 -  -  -  .f 245,238,236
 4031 D2:43F0 00 -  -  -  .db 0
 4032 D2:43F1 96 9C -  -  .db 150,156
 4033 D2:43F3 94 9F -  -  .db 148,159
 4034 D2:43F5 96 9F -  -  .db 150,159
 4035 D2:43F7 C0 0E 00 E0 
              0E 00 F0 0E 
              00 -  -  -  .f 236,238,239
 4036 D2:4400 00 -  -  -  .db 0
 4037 D2:4401 96 9C -  -  .db 150,156
 4038 D2:4403 94 9C -  -  .db 148,156
 4039 D2:4405 94 9F -  -  .db 148,159
 4040 D2:4407 C0 0E 00 F0 
              0E 00 D0 0E 
              00 -  -  -  .f 236,239,237
 4041 D2:4410 00 -  -  -  .db 0
 4042 D2:4411 96 9C -  -  .db 150,156
 4043 D2:4413 94 9F -  -  .db 148,159
 4044 D2:4415 96 9F -  -  .db 150,159
 4045 D2:4417 D0 0E 00 F0 
              0E 00 40 0F 
              00 -  -  -  .f 237,239,244
 4046 D2:4420 00 -  -  -  .db 0
 4047 D2:4421 96 9C -  -  .db 150,156
 4048 D2:4423 94 9C -  -  .db 148,156
 4049 D2:4425 94 9F -  -  .db 148,159
 4050 D2:4427 D0 0E 00 40 
              0F 00 60 0F 
              00 -  -  -  .f 237,244,246
 4051 D2:4430 00 -  -  -  .db 0
 4052 D2:4431 96 9C -  -  .db 150,156
 4053 D2:4433 94 9F -  -  .db 148,159
 4054 D2:4435 96 9F -  -  .db 150,159
 4055 D2:4437 60 0F 00 40 
              0F 00 70 0F 
              00 -  -  -  .f 246,244,247
 4056 D2:4440 00 -  -  -  .db 0
 4057 D2:4441 96 9C -  -  .db 150,156
 4058 D2:4443 94 9C -  -  .db 148,156
 4059 D2:4445 94 9F -  -  .db 148,159
 4060 D2:4447 60 0F 00 70 
              0F 00 80 0F 
              00 -  -  -  .f 246,247,248
 4061 D2:4450 00 -  -  -  .db 0
 4062 D2:4451 96 9C -  -  .db 150,156
 4063 D2:4453 94 9F -  -  .db 148,159
 4064 D2:4455 96 9F -  -  .db 150,159
 4065 D2:4457 80 0F 00 70 
              0F 00 30 0F 
              00 -  -  -  .f 248,247,243
 4066 D2:4460 00 -  -  -  .db 0
 4067 D2:4461 96 9C -  -  .db 150,156
 4068 D2:4463 94 9C -  -  .db 148,156
 4069 D2:4465 94 9F -  -  .db 148,159
 4070 D2:4467 80 0F 00 30 
              0F 00 50 0F 
              00 -  -  -  .f 248,243,245
 4071 D2:4470 00 -  -  -  .db 0
 4072 D2:4471 96 9C -  -  .db 150,156
 4073 D2:4473 94 9F -  -  .db 148,159
 4074 D2:4475 96 9F -  -  .db 150,159
 4075 D2:4477 D0 0E 00 60 
              0F 00 50 0F 
              00 -  -  -  .f 237,246,245
 4076 D2:4480 00 -  -  -  .db 0
 4077 D2:4481 96 9C -  -  .db 150,156
 4078 D2:4483 94 9C -  -  .db 148,156
 4079 D2:4485 94 9F -  -  .db 148,159
 4080 D2:4487 D0 0E 00 50 
              0F 00 C0 0E 
              00 -  -  -  .f 237,245,236
 4081 D2:4490 00 -  -  -  .db 0
 4082 D2:4491 96 9C -  -  .db 150,156
 4083 D2:4493 94 9F -  -  .db 148,159
 4084 D2:4495 96 9F -  -  .db 150,159
 4085 D2:4497 00 0F 00 E0 
              0E 00 10 0F 
              00 -  -  -  .f 240,238,241
 4086 D2:44A0 00 -  -  -  .db 0
 4087 D2:44A1 96 9C -  -  .db 150,156
 4088 D2:44A3 94 9C -  -  .db 148,156
 4089 D2:44A5 94 9F -  -  .db 148,159
 4090 D2:44A7 E0 0E 00 30 
              0F 00 10 0F 
              00 -  -  -  .f 238,243,241
 4091 D2:44B0 00 -  -  -  .db 0
 4092 D2:44B1 96 9C -  -  .db 150,156
 4093 D2:44B3 94 9C -  -  .db 148,156
 4094 D2:44B5 94 9F -  -  .db 148,159
 4095 D2:44B7 F0 0E 00 E0 
              0E 00 00 0F 
              00 -  -  -  .f 239,238,240
 4096 D2:44C0 00 -  -  -  .db 0
 4097 D2:44C1 96 9C -  -  .db 150,156
 4098 D2:44C3 94 9C -  -  .db 148,156
 4099 D2:44C5 94 9F -  -  .db 148,159
 4100 D2:44C7 40 0F 00 F0 
              0E 00 20 0F 
              00 -  -  -  .f 244,239,242
 4101 D2:44D0 00 -  -  -  .db 0
 4102 D2:44D1 96 9C -  -  .db 150,156
 4103 D2:44D3 94 9C -  -  .db 148,156
 4104 D2:44D5 94 9F -  -  .db 148,159
 4105 D2:44D7 00 0F 00 20 
              0F 00 F0 0E 
              00 -  -  -  .f 240,242,239
 4106 D2:44E0 00 -  -  -  .db 0
 4107 D2:44E1 96 9C -  -  .db 150,156
 4108 D2:44E3 94 9C -  -  .db 148,156
 4109 D2:44E5 94 9F -  -  .db 148,159
 4110 D2:44E7 10 0F 00 70 
              0F 00 20 0F 
              00 -  -  -  .f 241,247,242
 4111 D2:44F0 00 -  -  -  .db 0
 4112 D2:44F1 96 9C -  -  .db 150,156
 4113 D2:44F3 94 9C -  -  .db 148,156
 4114 D2:44F5 94 9F -  -  .db 148,159
 4115 D2:44F7 70 0F 00 40 
              0F 00 20 0F 
              00 -  -  -  .f 247,244,242
 4116 D2:4500 00 -  -  -  .db 0
 4117 D2:4501 96 9C -  -  .db 150,156
 4118 D2:4503 94 9C -  -  .db 148,156
 4119 D2:4505 94 9F -  -  .db 148,159
 4120 D2:4507 30 0F 00 70 
              0F 00 10 0F 
              00 -  -  -  .f 243,247,241
 4121 D2:4510 00 -  -  -  .db 0
 4122 D2:4511 96 9C -  -  .db 150,156
 4123 D2:4513 94 9C -  -  .db 148,156
 4124 D2:4515 94 9F -  -  .db 148,159
 4125 D2:4517 50 0F 00 60 
              0F 00 80 0F 
              00 -  -  -  .f 245,246,248
 4126 D2:4520 00 -  -  -  .db 0
 4127 D2:4521 96 9C -  -  .db 150,156
 4128 D2:4523 94 9C -  -  .db 148,156
 4129 D2:4525 94 9F -  -  .db 148,159
 4130 D2:4527 20 0F 00 00 
              0F 00 10 0F 
              00 -  -  -  .f 242,240,241
 4131 D2:4530 00 -  -  -  .db 0
 4132 D2:4531 96 9C -  -  .db 150,156
 4133 D2:4533 94 9C -  -  .db 148,156
 4134 D2:4535 94 9F -  -  .db 148,159
 4135 D2:4537 E0 0F 00 A0 
              0F 00 90 0F 
              00 -  -  -  .f 254,250,249
 4136 D2:4540 00 -  -  -  .db 0
 4137 D2:4541 D4 4C -  -  .db 212,76
 4138 D2:4543 DF 4C -  -  .db 223,76
 4139 D2:4545 DF 5A -  -  .db 223,90
 4140 D2:4547 E0 0F 00 90 
              0F 00 D0 0F 
              00 -  -  -  .f 254,249,253
 4141 D2:4550 00 -  -  -  .db 0
 4142 D2:4551 D4 4C -  -  .db 212,76
 4143 D2:4553 DF 5A -  -  .db 223,90
 4144 D2:4555 D4 5A -  -  .db 212,90
 4145 D2:4557 90 0F 00 A0 
              0F 00 C0 0F 
              00 -  -  -  .f 249,250,252
 4146 D2:4560 00 -  -  -  .db 0
 4147 D2:4561 EB 4C -  -  .db 235,76
 4148 D2:4563 E0 4C -  -  .db 224,76
 4149 D2:4565 E0 5A -  -  .db 224,90
 4150 D2:4567 90 0F 00 C0 
              0F 00 B0 0F 
              00 -  -  -  .f 249,252,251
 4151 D2:4570 00 -  -  -  .db 0
 4152 D2:4571 EB 4C -  -  .db 235,76
 4153 D2:4573 E0 5A -  -  .db 224,90
 4154 D2:4575 EB 5A -  -  .db 235,90
 4155 D2:4577 E0 0F 00 D0 
              0F 00 F0 0F 
              00 -  -  -  .f 254,253,255
 4156 D2:4580 00 -  -  -  .db 0
 4157 D2:4581 EC 4C -  -  .db 236,76
 4158 D2:4583 F7 4C -  -  .db 247,76
 4159 D2:4585 F7 5A -  -  .db 247,90
 4160 D2:4587 E0 0F 00 F0 
              0F 00 00 10 
              00 -  -  -  .f 254,255,256
 4161 D2:4590 00 -  -  -  .db 0
 4162 D2:4591 EC 4C -  -  .db 236,76
 4163 D2:4593 F7 5A -  -  .db 247,90
 4164 D2:4595 EC 5A -  -  .db 236,90
 4165 D2:4597 A0 0F 00 E0 
              0F 00 00 10 
              00 -  -  -  .f 250,254,256
 4166 D2:45A0 00 -  -  -  .db 0
 4167 D2:45A1 D3 4C -  -  .db 211,76
 4168 D2:45A3 C8 4C -  -  .db 200,76
 4169 D2:45A5 C8 5A -  -  .db 200,90
 4170 D2:45A7 A0 0F 00 00 
              10 00 C0 0F 
              00 -  -  -  .f 250,256,252
 4171 D2:45B0 00 -  -  -  .db 0
 4172 D2:45B1 D3 4C -  -  .db 211,76
 4173 D2:45B3 C8 5A -  -  .db 200,90
 4174 D2:45B5 D3 5A -  -  .db 211,90
 4175 D2:45B7 D0 0F 00 90 
              0F 00 B0 0F 
              00 -  -  -  .f 253,249,251
 4176 D2:45C0 00 -  -  -  .db 0
 4177 D2:45C1 8A 5C -  -  .db 138,92
 4178 D2:45C3 80 5C -  -  .db 128,92
 4179 D2:45C5 80 6B -  -  .db 128,107
 4180 D2:45C7 B0 0F 00 F0 
              0F 00 D0 0F 
              00 -  -  -  .f 251,255,253
 4181 D2:45D0 00 -  -  -  .db 0
 4182 D2:45D1 8A 5C -  -  .db 138,92
 4183 D2:45D3 8A 6B -  -  .db 138,107
 4184 D2:45D5 80 6B -  -  .db 128,107
 4185 D2:45D7 F0 0F 00 B0 
              0F 00 C0 0F 
              00 -  -  -  .f 255,251,252
 4186 D2:45E0 00 -  -  -  .db 0
 4187 D2:45E1 7F 2B -  -  .db 127,43
 4188 D2:45E3 7F 2B -  -  .db 127,43
 4189 D2:45E5 7F 2B -  -  .db 127,43
 4190 D2:45E7 F0 0F 00 C0 
              0F 00 00 10 
              00 -  -  -  .f 255,252,256
 4191 D2:45F0 00 -  -  -  .db 0
 4192 D2:45F1 7F 2B -  -  .db 127,43
 4193 D2:45F3 7F 2B -  -  .db 127,43
 4194 D2:45F5 7F 2B -  -  .db 127,43
 4195 D2:45F7 70 10 00 00 
              11 00 E0 10 
              00 -  -  -  .f 263,272,270
 4196 D2:4600 00 -  -  -  .db 0
 4197 D2:4601 96 9C -  -  .db 150,156
 4198 D2:4603 94 9C -  -  .db 148,156
 4199 D2:4605 94 9F -  -  .db 148,159
 4200 D2:4607 70 10 00 E0 
              10 00 40 10 
              00 -  -  -  .f 263,270,260
 4201 D2:4610 00 -  -  -  .db 0
 4202 D2:4611 96 9C -  -  .db 150,156
 4203 D2:4613 94 9F -  -  .db 148,159
 4204 D2:4615 96 9F -  -  .db 150,159
 4205 D2:4617 00 11 00 F0 
              10 00 D0 10 
              00 -  -  -  .f 272,271,269
 4206 D2:4620 00 -  -  -  .db 0
 4207 D2:4621 96 9C -  -  .db 150,156
 4208 D2:4623 94 9C -  -  .db 148,156
 4209 D2:4625 94 9F -  -  .db 148,159
 4210 D2:4627 00 11 00 D0 
              10 00 E0 10 
              00 -  -  -  .f 272,269,270
 4211 D2:4630 00 -  -  -  .db 0
 4212 D2:4631 96 9C -  -  .db 150,156
 4213 D2:4633 94 9F -  -  .db 148,159
 4214 D2:4635 96 9F -  -  .db 150,159
 4215 D2:4637 F0 10 00 80 
              10 00 30 10 
              00 -  -  -  .f 271,264,259
 4216 D2:4640 00 -  -  -  .db 0
 4217 D2:4641 96 9C -  -  .db 150,156
 4218 D2:4643 94 9C -  -  .db 148,156
 4219 D2:4645 94 9F -  -  .db 148,159
 4220 D2:4647 F0 10 00 30 
              10 00 D0 10 
              00 -  -  -  .f 271,259,269
 4221 D2:4650 00 -  -  -  .db 0
 4222 D2:4651 96 9C -  -  .db 150,156
 4223 D2:4653 94 9F -  -  .db 148,159
 4224 D2:4655 96 9F -  -  .db 150,159
 4225 D2:4657 80 10 00 20 
              10 00 10 10 
              00 -  -  -  .f 264,258,257
 4226 D2:4660 00 -  -  -  .db 0
 4227 D2:4661 96 9C -  -  .db 150,156
 4228 D2:4663 94 9C -  -  .db 148,156
 4229 D2:4665 94 9F -  -  .db 148,159
 4230 D2:4667 80 10 00 10 
              10 00 30 10 
              00 -  -  -  .f 264,257,259
 4231 D2:4670 00 -  -  -  .db 0
 4232 D2:4671 96 9C -  -  .db 150,156
 4233 D2:4673 94 9F -  -  .db 148,159
 4234 D2:4675 96 9F -  -  .db 150,159
 4235 D2:4677 20 10 00 70 
              10 00 40 10 
              00 -  -  -  .f 258,263,260
 4236 D2:4680 00 -  -  -  .db 0
 4237 D2:4681 96 9C -  -  .db 150,156
 4238 D2:4683 94 9C -  -  .db 148,156
 4239 D2:4685 94 9F -  -  .db 148,159
 4240 D2:4687 20 10 00 40 
              10 00 10 10 
              00 -  -  -  .f 258,260,257
 4241 D2:4690 00 -  -  -  .db 0
 4242 D2:4691 96 9C -  -  .db 150,156
 4243 D2:4693 94 9F -  -  .db 148,159
 4244 D2:4695 96 9F -  -  .db 150,159
 4245 D2:4697 B0 10 00 50 
              10 00 E0 10 
              00 -  -  -  .f 267,261,270
 4246 D2:46A0 00 -  -  -  .db 0
 4247 D2:46A1 96 9C -  -  .db 150,156
 4248 D2:46A3 94 9C -  -  .db 148,156
 4249 D2:46A5 94 9F -  -  .db 148,159
 4250 D2:46A7 E0 10 00 50 
              10 00 40 10 
              00 -  -  -  .f 270,261,260
 4251 D2:46B0 00 -  -  -  .db 0
 4252 D2:46B1 96 9C -  -  .db 150,156
 4253 D2:46B3 94 9C -  -  .db 148,156
 4254 D2:46B5 94 9F -  -  .db 148,159
 4255 D2:46B7 D0 10 00 B0 
              10 00 E0 10 
              00 -  -  -  .f 269,267,270
 4256 D2:46C0 00 -  -  -  .db 0
 4257 D2:46C1 96 9C -  -  .db 150,156
 4258 D2:46C3 94 9C -  -  .db 148,156
 4259 D2:46C5 94 9F -  -  .db 148,159
 4260 D2:46C7 30 10 00 60 
              10 00 D0 10 
              00 -  -  -  .f 259,262,269
 4261 D2:46D0 00 -  -  -  .db 0
 4262 D2:46D1 96 9C -  -  .db 150,156
 4263 D2:46D3 94 9C -  -  .db 148,156
 4264 D2:46D5 94 9F -  -  .db 148,159
 4265 D2:46D7 B0 10 00 D0 
              10 00 60 10 
              00 -  -  -  .f 267,269,262
 4266 D2:46E0 00 -  -  -  .db 0
 4267 D2:46E1 96 9C -  -  .db 150,156
 4268 D2:46E3 94 9C -  -  .db 148,156
 4269 D2:46E5 94 9F -  -  .db 148,159
 4270 D2:46E7 50 10 00 60 
              10 00 10 10 
              00 -  -  -  .f 261,262,257
 4271 D2:46F0 00 -  -  -  .db 0
 4272 D2:46F1 96 9C -  -  .db 150,156
 4273 D2:46F3 94 9C -  -  .db 148,156
 4274 D2:46F5 94 9F -  -  .db 148,159
 4275 D2:46F7 10 10 00 60 
              10 00 30 10 
              00 -  -  -  .f 257,262,259
 4276 D2:4700 00 -  -  -  .db 0
 4277 D2:4701 96 9C -  -  .db 150,156
 4278 D2:4703 94 9C -  -  .db 148,156
 4279 D2:4705 94 9F -  -  .db 148,159
 4280 D2:4707 40 10 00 50 
              10 00 10 10 
              00 -  -  -  .f 260,261,257
 4281 D2:4710 00 -  -  -  .db 0
 4282 D2:4711 96 9C -  -  .db 150,156
 4283 D2:4713 94 9C -  -  .db 148,156
 4284 D2:4715 94 9F -  -  .db 148,159
 4285 D2:4717 C0 10 00 00 
              11 00 90 10 
              00 -  -  -  .f 268,272,265
 4286 D2:4720 00 -  -  -  .db 0
 4287 D2:4721 96 9C -  -  .db 150,156
 4288 D2:4723 94 9C -  -  .db 148,156
 4289 D2:4725 94 9F -  -  .db 148,159
 4290 D2:4727 70 10 00 90 
              10 00 00 11 
              00 -  -  -  .f 263,265,272
 4291 D2:4730 00 -  -  -  .db 0
 4292 D2:4731 96 9C -  -  .db 150,156
 4293 D2:4733 94 9C -  -  .db 148,156
 4294 D2:4735 94 9F -  -  .db 148,159
 4295 D2:4737 F0 10 00 00 
              11 00 C0 10 
              00 -  -  -  .f 271,272,268
 4296 D2:4740 00 -  -  -  .db 0
 4297 D2:4741 96 9C -  -  .db 150,156
 4298 D2:4743 94 9C -  -  .db 148,156
 4299 D2:4745 94 9F -  -  .db 148,159
 4300 D2:4747 80 10 00 F0 
              10 00 A0 10 
              00 -  -  -  .f 264,271,266
 4301 D2:4750 00 -  -  -  .db 0
 4302 D2:4751 96 9C -  -  .db 150,156
 4303 D2:4753 94 9C -  -  .db 148,156
 4304 D2:4755 94 9F -  -  .db 148,159
 4305 D2:4757 A0 10 00 F0 
              10 00 C0 10 
              00 -  -  -  .f 266,271,268
 4306 D2:4760 00 -  -  -  .db 0
 4307 D2:4761 96 9C -  -  .db 150,156
 4308 D2:4763 94 9C -  -  .db 148,156
 4309 D2:4765 94 9F -  -  .db 148,159
 4310 D2:4767 80 10 00 A0 
              10 00 20 10 
              00 -  -  -  .f 264,266,258
 4311 D2:4770 00 -  -  -  .db 0
 4312 D2:4771 96 9C -  -  .db 150,156
 4313 D2:4773 94 9C -  -  .db 148,156
 4314 D2:4775 94 9F -  -  .db 148,159
 4315 D2:4777 70 10 00 20 
              10 00 90 10 
              00 -  -  -  .f 263,258,265
 4316 D2:4780 00 -  -  -  .db 0
 4317 D2:4781 96 9C -  -  .db 150,156
 4318 D2:4783 94 9C -  -  .db 148,156
 4319 D2:4785 94 9F -  -  .db 148,159
 4320 D2:4787 90 10 00 20 
              10 00 A0 10 
              00 -  -  -  .f 265,258,266
 4321 D2:4790 00 -  -  -  .db 0
 4322 D2:4791 96 9C -  -  .db 150,156
 4323 D2:4793 94 9C -  -  .db 148,156
 4324 D2:4795 94 9F -  -  .db 148,159
 4325 D2:4797 60 10 00 50 
              10 00 B0 10 
              00 -  -  -  .f 262,261,267
 4326 D2:47A0 00 -  -  -  .db 0
 4327 D2:47A1 96 9C -  -  .db 150,156
 4328 D2:47A3 94 9C -  -  .db 148,156
 4329 D2:47A5 94 9F -  -  .db 148,159
 4330 D2:47A7 90 10 00 A0 
              10 00 C0 10 
              00 -  -  -  .f 265,266,268
 4331 D2:47B0 00 -  -  -  .db 0
 4332 D2:47B1 96 9C -  -  .db 150,156
 4333 D2:47B3 94 9C -  -  .db 148,156
 4334 D2:47B5 94 9F -  -  .db 148,159
 4335 D2:47B7 50 11 00 C0 
              11 00 A0 11 
              00 -  -  -  .f 277,284,282
 4336 D2:47C0 00 -  -  -  .db 0
 4337 D2:47C1 96 9C -  -  .db 150,156
 4338 D2:47C3 94 9C -  -  .db 148,156
 4339 D2:47C5 94 9F -  -  .db 148,159
 4340 D2:47C7 50 11 00 A0 
              11 00 30 11 
              00 -  -  -  .f 277,282,275
 4341 D2:47D0 00 -  -  -  .db 0
 4342 D2:47D1 96 9C -  -  .db 150,156
 4343 D2:47D3 94 9F -  -  .db 148,159
 4344 D2:47D5 96 9F -  -  .db 150,159
 4345 D2:47D7 C0 11 00 D0 
              11 00 B0 11 
              00 -  -  -  .f 284,285,283
 4346 D2:47E0 00 -  -  -  .db 0
 4347 D2:47E1 96 9C -  -  .db 150,156
 4348 D2:47E3 94 9C -  -  .db 148,156
 4349 D2:47E5 94 9F -  -  .db 148,159
 4350 D2:47E7 C0 11 00 B0 
              11 00 A0 11 
              00 -  -  -  .f 284,283,282
 4351 D2:47F0 00 -  -  -  .db 0
 4352 D2:47F1 96 9C -  -  .db 150,156
 4353 D2:47F3 94 9F -  -  .db 148,159
 4354 D2:47F5 96 9F -  -  .db 150,159
 4355 D2:47F7 D0 11 00 60 
              11 00 40 11 
              00 -  -  -  .f 285,278,276
 4356 D2:4800 00 -  -  -  .db 0
 4357 D2:4801 96 9C -  -  .db 150,156
 4358 D2:4803 94 9C -  -  .db 148,156
 4359 D2:4805 94 9F -  -  .db 148,159
 4360 D2:4807 D0 11 00 40 
              11 00 B0 11 
              00 -  -  -  .f 285,276,283
 4361 D2:4810 00 -  -  -  .db 0
 4362 D2:4811 96 9C -  -  .db 150,156
 4363 D2:4813 94 9F -  -  .db 148,159
 4364 D2:4815 96 9F -  -  .db 150,159
 4365 D2:4817 60 11 00 10 
              11 00 20 11 
              00 -  -  -  .f 278,273,274
 4366 D2:4820 00 -  -  -  .db 0
 4367 D2:4821 96 9C -  -  .db 150,156
 4368 D2:4823 94 9C -  -  .db 148,156
 4369 D2:4825 94 9F -  -  .db 148,159
 4370 D2:4827 60 11 00 20 
              11 00 40 11 
              00 -  -  -  .f 278,274,276
 4371 D2:4830 00 -  -  -  .db 0
 4372 D2:4831 96 9C -  -  .db 150,156
 4373 D2:4833 94 9F -  -  .db 148,159
 4374 D2:4835 96 9F -  -  .db 150,159
 4375 D2:4837 10 11 00 50 
              11 00 30 11 
              00 -  -  -  .f 273,277,275
 4376 D2:4840 00 -  -  -  .db 0
 4377 D2:4841 96 9C -  -  .db 150,156
 4378 D2:4843 94 9C -  -  .db 148,156
 4379 D2:4845 94 9F -  -  .db 148,159
 4380 D2:4847 10 11 00 30 
              11 00 20 11 
              00 -  -  -  .f 273,275,274
 4381 D2:4850 00 -  -  -  .db 0
 4382 D2:4851 96 9C -  -  .db 150,156
 4383 D2:4853 94 9F -  -  .db 148,159
 4384 D2:4855 96 9F -  -  .db 150,159
 4385 D2:4857 D0 11 00 C0 
              11 00 50 11 
              00 -  -  -  .f 285,284,277
 4386 D2:4860 00 -  -  -  .db 0
 4387 D2:4861 96 9C -  -  .db 150,156
 4388 D2:4863 94 9C -  -  .db 148,156
 4389 D2:4865 94 9F -  -  .db 148,159
 4390 D2:4867 D0 11 00 50 
              11 00 60 11 
              00 -  -  -  .f 285,277,278
 4391 D2:4870 00 -  -  -  .db 0
 4392 D2:4871 96 9C -  -  .db 150,156
 4393 D2:4873 94 9F -  -  .db 148,159
 4394 D2:4875 96 9F -  -  .db 150,159
 4395 D2:4877 90 11 00 70 
              11 00 A0 11 
              00 -  -  -  .f 281,279,282
 4396 D2:4880 00 -  -  -  .db 0
 4397 D2:4881 96 9C -  -  .db 150,156
 4398 D2:4883 94 9C -  -  .db 148,156
 4399 D2:4885 94 9F -  -  .db 148,159
 4400 D2:4887 A0 11 00 70 
              11 00 30 11 
              00 -  -  -  .f 282,279,275
 4401 D2:4890 00 -  -  -  .db 0
 4402 D2:4891 96 9C -  -  .db 150,156
 4403 D2:4893 94 9C -  -  .db 148,156
 4404 D2:4895 94 9F -  -  .db 148,159
 4405 D2:4897 B0 11 00 90 
              11 00 A0 11 
              00 -  -  -  .f 283,281,282
 4406 D2:48A0 00 -  -  -  .db 0
 4407 D2:48A1 96 9C -  -  .db 150,156
 4408 D2:48A3 94 9C -  -  .db 148,156
 4409 D2:48A5 94 9F -  -  .db 148,159
 4410 D2:48A7 40 11 00 80 
              11 00 B0 11 
              00 -  -  -  .f 276,280,283
 4411 D2:48B0 00 -  -  -  .db 0
 4412 D2:48B1 96 9C -  -  .db 150,156
 4413 D2:48B3 94 9C -  -  .db 148,156
 4414 D2:48B5 94 9F -  -  .db 148,159
 4415 D2:48B7 90 11 00 B0 
              11 00 80 11 
              00 -  -  -  .f 281,283,280
 4416 D2:48C0 00 -  -  -  .db 0
 4417 D2:48C1 96 9C -  -  .db 150,156
 4418 D2:48C3 94 9C -  -  .db 148,156
 4419 D2:48C5 94 9F -  -  .db 148,159
 4420 D2:48C7 70 11 00 80 
              11 00 20 11 
              00 -  -  -  .f 279,280,274
 4421 D2:48D0 00 -  -  -  .db 0
 4422 D2:48D1 96 9C -  -  .db 150,156
 4423 D2:48D3 94 9C -  -  .db 148,156
 4424 D2:48D5 94 9F -  -  .db 148,159
 4425 D2:48D7 20 11 00 80 
              11 00 40 11 
              00 -  -  -  .f 274,280,276
 4426 D2:48E0 00 -  -  -  .db 0
 4427 D2:48E1 96 9C -  -  .db 150,156
 4428 D2:48E3 94 9C -  -  .db 148,156
 4429 D2:48E5 94 9F -  -  .db 148,159
 4430 D2:48E7 30 11 00 70 
              11 00 20 11 
              00 -  -  -  .f 275,279,274
 4431 D2:48F0 00 -  -  -  .db 0
 4432 D2:48F1 96 9C -  -  .db 150,156
 4433 D2:48F3 94 9C -  -  .db 148,156
 4434 D2:48F5 94 9F -  -  .db 148,159
 4435 D2:48F7 50 11 00 10 
              11 00 60 11 
              00 -  -  -  .f 277,273,278
 4436 D2:4900 00 -  -  -  .db 0
 4437 D2:4901 96 9C -  -  .db 150,156
 4438 D2:4903 94 9C -  -  .db 148,156
 4439 D2:4905 94 9F -  -  .db 148,159
 4440 D2:4907 80 11 00 70 
              11 00 90 11 
              00 -  -  -  .f 280,279,281
 4441 D2:4910 00 -  -  -  .db 0
 4442 D2:4911 96 9C -  -  .db 150,156
 4443 D2:4913 94 9C -  -  .db 148,156
 4444 D2:4915 94 9F -  -  .db 148,159
 4445 D2:4917 00 12 00 40 
              12 00 50 12 
              00 -  -  -  .f 288,292,293
 4446 D2:4920 00 -  -  -  .db 0
 4447 D2:4921 D4 4C -  -  .db 212,76
 4448 D2:4923 DF 4C -  -  .db 223,76
 4449 D2:4925 DF 5A -  -  .db 223,90
 4450 D2:4927 00 12 00 50 
              12 00 10 12 
              00 -  -  -  .f 288,293,289
 4451 D2:4930 00 -  -  -  .db 0
 4452 D2:4931 D4 4C -  -  .db 212,76
 4453 D2:4933 DF 5A -  -  .db 223,90
 4454 D2:4935 D4 5A -  -  .db 212,90
 4455 D2:4937 50 12 00 40 
              12 00 20 12 
              00 -  -  -  .f 293,292,290
 4456 D2:4940 00 -  -  -  .db 0
 4457 D2:4941 E0 4C -  -  .db 224,76
 4458 D2:4943 EB 4C -  -  .db 235,76
 4459 D2:4945 EB 5A -  -  .db 235,90
 4460 D2:4947 50 12 00 20 
              12 00 30 12 
              00 -  -  -  .f 293,290,291
 4461 D2:4950 00 -  -  -  .db 0
 4462 D2:4951 E0 4C -  -  .db 224,76
 4463 D2:4953 EB 5A -  -  .db 235,90
 4464 D2:4955 E0 5A -  -  .db 224,90
 4465 D2:4957 F0 11 00 E0 
              11 00 00 12 
              00 -  -  -  .f 287,286,288
 4466 D2:4960 00 -  -  -  .db 0
 4467 D2:4961 EC 4C -  -  .db 236,76
 4468 D2:4963 F7 4C -  -  .db 247,76
 4469 D2:4965 F7 5A -  -  .db 247,90
 4470 D2:4967 F0 11 00 00 
              12 00 10 12 
              00 -  -  -  .f 287,288,289
 4471 D2:4970 00 -  -  -  .db 0
 4472 D2:4971 EC 4C -  -  .db 236,76
 4473 D2:4973 F7 5A -  -  .db 247,90
 4474 D2:4975 EC 5A -  -  .db 236,90
 4475 D2:4977 10 12 00 50 
              12 00 30 12 
              00 -  -  -  .f 289,293,291
 4476 D2:4980 00 -  -  -  .db 0
 4477 D2:4981 C8 4C -  -  .db 200,76
 4478 D2:4983 D3 4C -  -  .db 211,76
 4479 D2:4985 D3 5A -  -  .db 211,90
 4480 D2:4987 10 12 00 30 
              12 00 F0 11 
              00 -  -  -  .f 289,291,287
 4481 D2:4990 00 -  -  -  .db 0
 4482 D2:4991 C8 4C -  -  .db 200,76
 4483 D2:4993 D3 5A -  -  .db 211,90
 4484 D2:4995 C8 5A -  -  .db 200,90
 4485 D2:4997 40 12 00 00 
              12 00 20 12 
              00 -  -  -  .f 292,288,290
 4486 D2:49A0 00 -  -  -  .db 0
 4487 D2:49A1 80 5C -  -  .db 128,92
 4488 D2:49A3 8A 5C -  -  .db 138,92
 4489 D2:49A5 8A 6B -  -  .db 138,107
 4490 D2:49A7 E0 11 00 20 
              12 00 00 12 
              00 -  -  -  .f 286,290,288
 4491 D2:49B0 00 -  -  -  .db 0
 4492 D2:49B1 80 6B -  -  .db 128,107
 4493 D2:49B3 8A 6B -  -  .db 138,107
 4494 D2:49B5 8A 5C -  -  .db 138,92
 4495 D2:49B7 E0 11 00 F0 
              11 00 30 12 
              00 -  -  -  .f 286,287,291
 4496 D2:49C0 00 -  -  -  .db 0
 4497 D2:49C1 7F 2B -  -  .db 127,43
 4498 D2:49C3 7F 2B -  -  .db 127,43
 4499 D2:49C5 7F 2B -  -  .db 127,43
 4500 D2:49C7 E0 11 00 30 
              12 00 20 12 
              00 -  -  -  .f 286,291,290
 4501 D2:49D0 00 -  -  -  .db 0
 4502 D2:49D1 7F 2B -  -  .db 127,43
 4503 D2:49D3 7F 2B -  -  .db 127,43
 4504 D2:49D5 7F 2B -  -  .db 127,43
 4505 D2:49D7 C0 12 00 10 
              13 00 60 14 
              00 -  -  -  .f 300,305,326
 4506 D2:49E0 00 -  -  -  .db 0
 4507 D2:49E1 E7 67 -  -  .db 231,103
 4508 D2:49E3 E7 5C -  -  .db 231,92
 4509 D2:49E5 DC 5C -  -  .db 220,92
 4510 D2:49E7 10 14 00 00 
              14 00 B0 13 
              00 -  -  -  .f 321,320,315
 4511 D2:49F0 00 -  -  -  .db 0
 4512 D2:49F1 9A 6C -  -  .db 154,108
 4513 D2:49F3 9A 77 -  -  .db 154,119
 4514 D2:49F5 94 77 -  -  .db 148,119
 4515 D2:49F7 F0 12 00 40 
              13 00 80 13 
              00 -  -  -  .f 303,308,312
 4516 D2:4A00 00 -  -  -  .db 0
 4517 D2:4A01 8C 3E -  -  .db 140,62
 4518 D2:4A03 8C 2C -  -  .db 140,44
 4519 D2:4A05 9A 2C -  -  .db 154,44
 4520 D2:4A07 10 16 00 30 
              15 00 D0 15 
              00 -  -  -  .f 353,339,349
 4521 D2:4A10 00 -  -  -  .db 0
 4522 D2:4A11 8C 3E -  -  .db 140,62
 4523 D2:4A13 9A 3E -  -  .db 154,62
 4524 D2:4A15 9A 2C -  -  .db 154,44
 4525 D2:4A17 60 14 00 80 
              15 00 F0 15 
              00 -  -  -  .f 326,344,351
 4526 D2:4A20 00 -  -  -  .db 0
 4527 D2:4A21 DC 5C -  -  .db 220,92
 4528 D2:4A23 E7 5C -  -  .db 231,92
 4529 D2:4A25 E7 67 -  -  .db 231,103
 4530 D2:4A27 D0 14 00 00 
              14 00 10 14 
              00 -  -  -  .f 333,320,321
 4531 D2:4A30 00 -  -  -  .db 0
 4532 D2:4A31 94 77 -  -  .db 148,119
 4533 D2:4A33 9A 77 -  -  .db 154,119
 4534 D2:4A35 9A 6C -  -  .db 154,108
 4535 D2:4A37 00 14 00 A0 
              13 00 B0 13 
              00 -  -  -  .f 320,314,315
 4536 D2:4A40 00 -  -  -  .db 0
 4537 D2:4A41 88 9F -  -  .db 136,159
 4538 D2:4A43 8A 9F -  -  .db 138,159
 4539 D2:4A45 8A 9C -  -  .db 138,156
 4540 D2:4A47 E0 14 00 A0 
              13 00 D0 14 
              00 -  -  -  .f 334,314,333
 4541 D2:4A50 00 -  -  -  .db 0
 4542 D2:4A51 88 9F -  -  .db 136,159
 4543 D2:4A53 8A 9F -  -  .db 138,159
 4544 D2:4A55 8A 9C -  -  .db 138,156
 4545 D2:4A57 10 13 00 70 
              14 00 60 14 
              00 -  -  -  .f 305,327,326
 4546 D2:4A60 00 -  -  -  .db 0
 4547 D2:4A61 9A 2C -  -  .db 154,44
 4548 D2:4A63 8C 2C -  -  .db 140,44
 4549 D2:4A65 8C 3E -  -  .db 140,62
 4550 D2:4A67 F0 12 00 F0 
              13 00 80 14 
              00 -  -  -  .f 303,319,328
 4551 D2:4A70 00 -  -  -  .db 0
 4552 D2:4A71 9A 2C -  -  .db 154,44
 4553 D2:4A73 8C 2C -  -  .db 140,44
 4554 D2:4A75 8C 3E -  -  .db 140,62
 4555 D2:4A77 80 13 00 A0 
              14 00 F0 13 
              00 -  -  -  .f 312,330,319
 4556 D2:4A80 00 -  -  -  .db 0
 4557 D2:4A81 9A 2C -  -  .db 154,44
 4558 D2:4A83 8C 2C -  -  .db 140,44
 4559 D2:4A85 8C 3E -  -  .db 140,62
 4560 D2:4A87 30 14 00 20 
              14 00 90 13 
              00 -  -  -  .f 323,322,313
 4561 D2:4A90 00 -  -  -  .db 0
 4562 D2:4A91 A6 4C -  -  .db 166,76
 4563 D2:4A93 A6 5A -  -  .db 166,90
 4564 D2:4A95 94 5A -  -  .db 148,90
 4565 D2:4A97 10 14 00 20 
              14 00 F0 14 
              00 -  -  -  .f 321,322,335
 4566 D2:4AA0 00 -  -  -  .db 0
 4567 D2:4AA1 80 5A -  -  .db 128,90
 4568 D2:4AA3 80 4C -  -  .db 128,76
 4569 D2:4AA5 92 4C -  -  .db 146,76
 4570 D2:4AA7 B0 15 00 F0 
              15 00 80 15 
              00 -  -  -  .f 347,351,344
 4571 D2:4AB0 00 -  -  -  .db 0
 4572 D2:4AB1 B8 5A -  -  .db 184,90
 4573 D2:4AB3 C7 5A -  -  .db 199,90
 4574 D2:4AB5 C7 4C -  -  .db 199,76
 4575 D2:4AB7 90 15 00 F0 
              14 00 30 14 
              00 -  -  -  .f 345,335,323
 4576 D2:4AC0 00 -  -  -  .db 0
 4577 D2:4AC1 AE 90 -  -  .db 174,144
 4578 D2:4AC3 A8 90 -  -  .db 168,144
 4579 D2:4AC5 A8 97 -  -  .db 168,151
 4580 D2:4AC7 90 12 00 E0 
              12 00 00 13 
              00 -  -  -  .f 297,302,304
 4581 D2:4AD0 00 -  -  -  .db 0
 4582 D2:4AD1 FF 2C -  -  .db 255,44
 4583 D2:4AD3 FC 2C -  -  .db 252,44
 4584 D2:4AD5 FC 36 -  -  .db 252,54
 4585 D2:4AD7 60 12 00 10 
              13 00 D0 12 
              00 -  -  -  .f 294,305,301
 4586 D2:4AE0 00 -  -  -  .db 0
 4587 D2:4AE1 9A 2C -  -  .db 154,44
 4588 D2:4AE3 8C 2C -  -  .db 140,44
 4589 D2:4AE5 8C 3E -  -  .db 140,62
 4590 D2:4AE7 E0 15 00 C0 
              15 00 30 14 
              00 -  -  -  .f 350,348,323
 4591 D2:4AF0 00 -  -  -  .db 0
 4592 D2:4AF1 D7 6C -  -  .db 215,108
 4593 D2:4AF3 D7 73 -  -  .db 215,115
 4594 D2:4AF5 BC 73 -  -  .db 188,115
 4595 D2:4AF7 B0 12 00 40 
              14 00 30 14 
              00 -  -  -  .f 299,324,323
 4596 D2:4B00 00 -  -  -  .db 0
 4597 D2:4B01 D7 6C -  -  .db 215,108
 4598 D2:4B03 BC 6C -  -  .db 188,108
 4599 D2:4B05 BC 73 -  -  .db 188,115
 4600 D2:4B07 E0 12 00 90 
              12 00 30 14 
              00 -  -  -  .f 302,297,323
 4601 D2:4B10 00 -  -  -  .db 0
 4602 D2:4B11 D3 7F -  -  .db 211,127
 4603 D2:4B13 D3 78 -  -  .db 211,120
 4604 D2:4B15 B8 78 -  -  .db 184,120
 4605 D2:4B17 90 15 00 C0 
              15 00 70 15 
              00 -  -  -  .f 345,348,343
 4606 D2:4B20 00 -  -  -  .db 0
 4607 D2:4B21 FF 2C -  -  .db 255,44
 4608 D2:4B23 FC 2C -  -  .db 252,44
 4609 D2:4B25 FC 36 -  -  .db 252,54
 4610 D2:4B27 70 15 00 D0 
              14 00 90 15 
              00 -  -  -  .f 343,333,345
 4611 D2:4B30 00 -  -  -  .db 0
 4612 D2:4B31 80 77 -  -  .db 128,119
 4613 D2:4B33 8A 77 -  -  .db 138,119
 4614 D2:4B35 8A 6C -  -  .db 138,108
 4615 D2:4B37 D0 14 00 A0 
              13 00 00 14 
              00 -  -  -  .f 333,314,320
 4616 D2:4B40 00 -  -  -  .db 0
 4617 D2:4B41 88 9F -  -  .db 136,159
 4618 D2:4B43 8A 9F -  -  .db 138,159
 4619 D2:4B45 8A 9C -  -  .db 138,156
 4620 D2:4B47 B0 13 00 A0 
              13 00 00 13 
              00 -  -  -  .f 315,314,304
 4621 D2:4B50 00 -  -  -  .db 0
 4622 D2:4B51 88 9F -  -  .db 136,159
 4623 D2:4B53 8A 9F -  -  .db 138,159
 4624 D2:4B55 8A 9C -  -  .db 138,156
 4625 D2:4B57 B0 13 00 90 
              13 00 10 14 
              00 -  -  -  .f 315,313,321
 4626 D2:4B60 00 -  -  -  .db 0
 4627 D2:4B61 94 77 -  -  .db 148,119
 4628 D2:4B63 94 6C -  -  .db 148,108
 4629 D2:4B65 9A 6C -  -  .db 154,108
 4630 D2:4B67 90 13 00 20 
              14 00 10 14 
              00 -  -  -  .f 313,322,321
 4631 D2:4B70 00 -  -  -  .db 0
 4632 D2:4B71 92 4C -  -  .db 146,76
 4633 D2:4B73 80 4C -  -  .db 128,76
 4634 D2:4B75 80 5A -  -  .db 128,90
 4635 D2:4B77 E0 12 00 90 
              13 00 B0 13 
              00 -  -  -  .f 302,313,315
 4636 D2:4B80 00 -  -  -  .db 0
 4637 D2:4B81 AE 90 -  -  .db 174,144
 4638 D2:4B83 A8 90 -  -  .db 168,144
 4639 D2:4B85 A8 97 -  -  .db 168,151
 4640 D2:4B87 F0 14 00 20 
              14 00 30 14 
              00 -  -  -  .f 335,322,323
 4641 D2:4B90 00 -  -  -  .db 0
 4642 D2:4B91 94 5A -  -  .db 148,90
 4643 D2:4B93 A6 5A -  -  .db 166,90
 4644 D2:4B95 A6 4C -  -  .db 166,76
 4645 D2:4B97 10 14 00 F0 
              14 00 D0 14 
              00 -  -  -  .f 321,335,333
 4646 D2:4BA0 00 -  -  -  .db 0
 4647 D2:4BA1 9A 6C -  -  .db 154,108
 4648 D2:4BA3 94 6C -  -  .db 148,108
 4649 D2:4BA5 94 77 -  -  .db 148,119
 4650 D2:4BA7 40 14 00 B0 
              12 00 C0 12 
              00 -  -  -  .f 324,299,300
 4651 D2:4BB0 00 -  -  -  .db 0
 4652 D2:4BB1 80 7F -  -  .db 128,127
 4653 D2:4BB3 9A 7F -  -  .db 154,127
 4654 D2:4BB5 9A 78 -  -  .db 154,120
 4655 D2:4BB7 D0 12 00 B0 
              12 00 90 12 
              00 -  -  -  .f 301,299,297
 4656 D2:4BC0 00 -  -  -  .db 0
 4657 D2:4BC1 F7 8F -  -  .db 247,143
 4658 D2:4BC3 F0 8F -  -  .db 240,143
 4659 D2:4BC5 F0 88 -  -  .db 240,136
 4660 D2:4BC7 10 16 00 00 
              16 00 A0 15 
              00 -  -  -  .f 353,352,346
 4661 D2:4BD0 00 -  -  -  .db 0
 4662 D2:4BD1 8C 3E -  -  .db 140,62
 4663 D2:4BD3 9A 3E -  -  .db 154,62
 4664 D2:4BD5 9A 2C -  -  .db 154,44
 4665 D2:4BD7 40 14 00 50 
              14 00 F0 15 
              00 -  -  -  .f 324,325,351
 4666 D2:4BE0 00 -  -  -  .db 0
 4667 D2:4BE1 80 7F -  -  .db 128,127
 4668 D2:4BE3 80 78 -  -  .db 128,120
 4669 D2:4BE5 9A 78 -  -  .db 154,120
 4670 D2:4BE7 F0 15 00 50 
              14 00 60 14 
              00 -  -  -  .f 351,325,326
 4671 D2:4BF0 00 -  -  -  .db 0
 4672 D2:4BF1 E7 67 -  -  .db 231,103
 4673 D2:4BF3 DC 67 -  -  .db 220,103
 4674 D2:4BF5 DC 5C -  -  .db 220,92
 4675 D2:4BF7 60 14 00 50 
              14 00 C0 12 
              00 -  -  -  .f 326,325,300
 4676 D2:4C00 00 -  -  -  .db 0
 4677 D2:4C01 DC 5C -  -  .db 220,92
 4678 D2:4C03 DC 67 -  -  .db 220,103
 4679 D2:4C05 E7 67 -  -  .db 231,103
 4680 D2:4C07 C0 15 00 B0 
              15 00 70 15 
              00 -  -  -  .f 348,347,343
 4681 D2:4C10 00 -  -  -  .db 0
 4682 D2:4C11 8A 6C -  -  .db 138,108
 4683 D2:4C13 80 6C -  -  .db 128,108
 4684 D2:4C15 80 77 -  -  .db 128,119
 4685 D2:4C17 A0 15 00 A0 
              14 00 10 15 
              00 -  -  -  .f 346,330,337
 4686 D2:4C20 00 -  -  -  .db 0
 4687 D2:4C21 9A 2C -  -  .db 154,44
 4688 D2:4C23 8C 2C -  -  .db 140,44
 4689 D2:4C25 8C 3E -  -  .db 140,62
 4690 D2:4C27 00 15 00 D0 
              15 00 30 15 
              00 -  -  -  .f 336,349,339
 4691 D2:4C30 00 -  -  -  .db 0
 4692 D2:4C31 9A 2C -  -  .db 154,44
 4693 D2:4C33 8C 2C -  -  .db 140,44
 4694 D2:4C35 8C 3E -  -  .db 140,62
 4695 D2:4C37 80 14 00 70 
              13 00 F0 12 
              00 -  -  -  .f 328,311,303
 4696 D2:4C40 00 -  -  -  .db 0
 4697 D2:4C41 9A 3E -  -  .db 154,62
 4698 D2:4C43 8C 3E -  -  .db 140,62
 4699 D2:4C45 8C 2C -  -  .db 140,44
 4700 D2:4C47 10 13 00 C0 
              12 00 D0 12 
              00 -  -  -  .f 305,300,301
 4701 D2:4C50 00 -  -  -  .db 0
 4702 D2:4C51 C7 4C -  -  .db 199,76
 4703 D2:4C53 C7 5A -  -  .db 199,90
 4704 D2:4C55 B8 5A -  -  .db 184,90
 4705 D2:4C57 D0 12 00 00 
              13 00 50 13 
              00 -  -  -  .f 301,304,309
 4706 D2:4C60 00 -  -  -  .db 0
 4707 D2:4C61 B7 4C -  -  .db 183,76
 4708 D2:4C63 B7 5A -  -  .db 183,90
 4709 D2:4C65 A8 5A -  -  .db 168,90
 4710 D2:4C67 00 13 00 D0 
              12 00 90 12 
              00 -  -  -  .f 304,301,297
 4711 D2:4C70 00 -  -  -  .db 0
 4712 D2:4C71 80 77 -  -  .db 128,119
 4713 D2:4C73 80 6C -  -  .db 128,108
 4714 D2:4C75 8A 6C -  -  .db 138,108
 4715 D2:4C77 00 15 00 70 
              15 00 B0 15 
              00 -  -  -  .f 336,343,347
 4716 D2:4C80 00 -  -  -  .db 0
 4717 D2:4C81 A8 5A -  -  .db 168,90
 4718 D2:4C83 B7 5A -  -  .db 183,90
 4719 D2:4C85 B7 4C -  -  .db 183,76
 4720 D2:4C87 E0 15 00 F0 
              15 00 B0 15 
              00 -  -  -  .f 350,351,347
 4721 D2:4C90 00 -  -  -  .db 0
 4722 D2:4C91 F0 88 -  -  .db 240,136
 4723 D2:4C93 F0 8F -  -  .db 240,143
 4724 D2:4C95 F7 8F -  -  .db 247,143
 4725 D2:4C97 80 14 00 A0 
              15 00 60 15 
              00 -  -  -  .f 328,346,342
 4726 D2:4CA0 00 -  -  -  .db 0
 4727 D2:4CA1 8C 3E -  -  .db 140,62
 4728 D2:4CA3 9A 3E -  -  .db 154,62
 4729 D2:4CA5 9A 2C -  -  .db 154,44
 4730 D2:4CA7 F0 12 00 70 
              13 00 80 12 
              00 -  -  -  .f 303,311,296
 4731 D2:4CB0 00 -  -  -  .db 0
 4732 D2:4CB1 8C 2C -  -  .db 140,44
 4733 D2:4CB3 8C 3E -  -  .db 140,62
 4734 D2:4CB5 9A 3E -  -  .db 154,62
 4735 D2:4CB7 70 13 00 80 
              14 00 70 14 
              00 -  -  -  .f 311,328,327
 4736 D2:4CC0 00 -  -  -  .db 0
 4737 D2:4CC1 8C 3E -  -  .db 140,62
 4738 D2:4CC3 9A 3E -  -  .db 154,62
 4739 D2:4CC5 9A 2C -  -  .db 154,44
 4740 D2:4CC7 00 16 00 60 
              15 00 A0 15 
              00 -  -  -  .f 352,342,346
 4741 D2:4CD0 00 -  -  -  .db 0
 4742 D2:4CD1 9A 3E -  -  .db 154,62
 4743 D2:4CD3 8C 3E -  -  .db 140,62
 4744 D2:4CD5 8C 2C -  -  .db 140,44
 4745 D2:4CD7 F0 12 00 80 
              12 00 70 12 
              00 -  -  -  .f 303,296,295
 4746 D2:4CE0 00 -  -  -  .db 0
 4747 D2:4CE1 8C 3E -  -  .db 140,62
 4748 D2:4CE3 9A 3E -  -  .db 154,62
 4749 D2:4CE5 9A 2C -  -  .db 154,44
 4750 D2:4CE7 50 13 00 A0 
              12 00 D0 12 
              00 -  -  -  .f 309,298,301
 4751 D2:4CF0 00 -  -  -  .db 0
 4752 D2:4CF1 A8 5A -  -  .db 168,90
 4753 D2:4CF3 A8 4C -  -  .db 168,76
 4754 D2:4CF5 B7 4C -  -  .db 183,76
 4755 D2:4CF7 30 14 00 C0 
              15 00 90 15 
              00 -  -  -  .f 323,348,345
 4756 D2:4D00 00 -  -  -  .db 0
 4757 D2:4D01 B8 78 -  -  .db 184,120
 4758 D2:4D03 D3 78 -  -  .db 211,120
 4759 D2:4D05 D3 7F -  -  .db 211,127
 4760 D2:4D07 90 15 00 D0 
              14 00 F0 14 
              00 -  -  -  .f 345,333,335
 4761 D2:4D10 00 -  -  -  .db 0
 4762 D2:4D11 AE 90 -  -  .db 174,144
 4763 D2:4D13 A8 90 -  -  .db 168,144
 4764 D2:4D15 A8 97 -  -  .db 168,151
 4765 D2:4D17 30 14 00 40 
              14 00 E0 15 
              00 -  -  -  .f 323,324,350
 4766 D2:4D20 00 -  -  -  .db 0
 4767 D2:4D21 BC 73 -  -  .db 188,115
 4768 D2:4D23 BC 6C -  -  .db 188,108
 4769 D2:4D25 D7 6C -  -  .db 215,108
 4770 D2:4D27 C0 15 00 E0 
              15 00 B0 15 
              00 -  -  -  .f 348,350,347
 4771 D2:4D30 00 -  -  -  .db 0
 4772 D2:4D31 F0 88 -  -  .db 240,136
 4773 D2:4D33 F0 8F -  -  .db 240,143
 4774 D2:4D35 F7 8F -  -  .db 247,143
 4775 D2:4D37 30 14 00 90 
              12 00 B0 12 
              00 -  -  -  .f 323,297,299
 4776 D2:4D40 00 -  -  -  .db 0
 4777 D2:4D41 BC 73 -  -  .db 188,115
 4778 D2:4D43 D7 73 -  -  .db 215,115
 4779 D2:4D45 D7 6C -  -  .db 215,108
 4780 D2:4D47 D0 12 00 C0 
              12 00 B0 12 
              00 -  -  -  .f 301,300,299
 4781 D2:4D50 00 -  -  -  .db 0
 4782 D2:4D51 F7 8F -  -  .db 247,143
 4783 D2:4D53 F0 8F -  -  .db 240,143
 4784 D2:4D55 F0 88 -  -  .db 240,136
 4785 D2:4D57 E0 12 00 30 
              14 00 90 13 
              00 -  -  -  .f 302,323,313
 4786 D2:4D60 00 -  -  -  .db 0
 4787 D2:4D61 AE 90 -  -  .db 174,144
 4788 D2:4D63 A8 90 -  -  .db 168,144
 4789 D2:4D65 A8 97 -  -  .db 168,151
 4790 D2:4D67 E0 12 00 B0 
              13 00 00 13 
              00 -  -  -  .f 302,315,304
 4791 D2:4D70 00 -  -  -  .db 0
 4792 D2:4D71 8A 6C -  -  .db 138,108
 4793 D2:4D73 8A 77 -  -  .db 138,119
 4794 D2:4D75 80 77 -  -  .db 128,119
 4795 D2:4D77 60 15 00 70 
              14 00 80 14 
              00 -  -  -  .f 342,327,328
 4796 D2:4D80 00 -  -  -  .db 0
 4797 D2:4D81 8C 3E -  -  .db 140,62
 4798 D2:4D83 9A 3E -  -  .db 154,62
 4799 D2:4D85 9A 2C -  -  .db 154,44
 4800 D2:4D87 80 15 00 60 
              14 00 70 14 
              00 -  -  -  .f 344,326,327
 4801 D2:4D90 00 -  -  -  .db 0
 4802 D2:4D91 9A 2C -  -  .db 154,44
 4803 D2:4D93 8C 2C -  -  .db 140,44
 4804 D2:4D95 8C 3E -  -  .db 140,62
 4805 D2:4D97 80 12 00 70 
              13 00 10 13 
              00 -  -  -  .f 296,311,305
 4806 D2:4DA0 00 -  -  -  .db 0
 4807 D2:4DA1 9A 2C -  -  .db 154,44
 4808 D2:4DA3 8C 2C -  -  .db 140,44
 4809 D2:4DA5 8C 3E -  -  .db 140,62
 4810 D2:4DA7 80 15 00 70 
              14 00 60 15 
              00 -  -  -  .f 344,327,342
 4811 D2:4DB0 00 -  -  -  .db 0
 4812 D2:4DB1 9A 2C -  -  .db 154,44
 4813 D2:4DB3 8C 2C -  -  .db 140,44
 4814 D2:4DB5 8C 3E -  -  .db 140,62
 4815 D2:4DB7 20 16 00 B0 
              15 00 80 15 
              00 -  -  -  .f 354,347,344
 4816 D2:4DC0 00 -  -  -  .db 0
 4817 D2:4DC1 9A 2C -  -  .db 154,44
 4818 D2:4DC3 8C 2C -  -  .db 140,44
 4819 D2:4DC5 8C 3E -  -  .db 140,62
 4820 D2:4DC7 A0 13 00 50 
              13 00 00 13 
              00 -  -  -  .f 314,309,304
 4821 D2:4DD0 00 -  -  -  .db 0
 4822 D2:4DD1 88 9F -  -  .db 136,159
 4823 D2:4DD3 8A 9F -  -  .db 138,159
 4824 D2:4DD5 8A 9C -  -  .db 138,156
 4825 D2:4DD7 70 15 00 00 
              15 00 E0 14 
              00 -  -  -  .f 343,336,334
 4826 D2:4DE0 00 -  -  -  .db 0
 4827 D2:4DE1 88 9F -  -  .db 136,159
 4828 D2:4DE3 8A 9F -  -  .db 138,159
 4829 D2:4DE5 8A 9C -  -  .db 138,156
 4830 D2:4DE7 00 15 00 50 
              13 00 A0 13 
              00 -  -  -  .f 336,309,314
 4831 D2:4DF0 00 -  -  -  .db 0
 4832 D2:4DF1 D7 88 -  -  .db 215,136
 4833 D2:4DF3 D0 88 -  -  .db 208,136
 4834 D2:4DF5 D0 8F -  -  .db 208,143
 4835 D2:4DF7 70 15 00 E0 
              14 00 D0 14 
              00 -  -  -  .f 343,334,333
 4836 D2:4E00 00 -  -  -  .db 0
 4837 D2:4E01 88 9F -  -  .db 136,159
 4838 D2:4E03 8A 9F -  -  .db 138,159
 4839 D2:4E05 8A 9C -  -  .db 138,156
 4840 D2:4E07 A0 13 00 E0 
              14 00 00 15 
              00 -  -  -  .f 314,334,336
 4841 D2:4E10 00 -  -  -  .db 0
 4842 D2:4E11 D0 8F -  -  .db 208,143
 4843 D2:4E13 D7 8F -  -  .db 215,143
 4844 D2:4E15 D7 88 -  -  .db 215,136
 4845 D2:4E17 50 13 00 00 
              15 00 30 13 
              00 -  -  -  .f 309,336,307
 4846 D2:4E20 00 -  -  -  .db 0
 4847 D2:4E21 9A 2C -  -  .db 154,44
 4848 D2:4E23 8C 2C -  -  .db 140,44
 4849 D2:4E25 8C 3E -  -  .db 140,62
 4850 D2:4E27 80 13 00 10 
              15 00 A0 14 
              00 -  -  -  .f 312,337,330
 4851 D2:4E30 00 -  -  -  .db 0
 4852 D2:4E31 9A 2C -  -  .db 154,44
 4853 D2:4E33 8C 2C -  -  .db 140,44
 4854 D2:4E35 8C 3E -  -  .db 140,62
 4855 D2:4E37 A0 15 00 80 
              14 00 A0 14 
              00 -  -  -  .f 346,328,330
 4856 D2:4E40 00 -  -  -  .db 0
 4857 D2:4E41 8C 3E -  -  .db 140,62
 4858 D2:4E43 9A 3E -  -  .db 154,62
 4859 D2:4E45 9A 2C -  -  .db 154,44
 4860 D2:4E47 F0 12 00 80 
              13 00 F0 13 
              00 -  -  -  .f 303,312,319
 4861 D2:4E50 00 -  -  -  .db 0
 4862 D2:4E51 8C 2C -  -  .db 140,44
 4863 D2:4E53 9A 2C -  -  .db 154,44
 4864 D2:4E55 9A 3E -  -  .db 154,62
 4865 D2:4E57 A0 14 00 80 
              14 00 F0 13 
              00 -  -  -  .f 330,328,319
 4866 D2:4E60 00 -  -  -  .db 0
 4867 D2:4E61 9A 2C -  -  .db 154,44
 4868 D2:4E63 8C 2C -  -  .db 140,44
 4869 D2:4E65 8C 3E -  -  .db 140,62
 4870 D2:4E67 C0 12 00 50 
              14 00 40 14 
              00 -  -  -  .f 300,325,324
 4871 D2:4E70 00 -  -  -  .db 0
 4872 D2:4E71 9A 78 -  -  .db 154,120
 4873 D2:4E73 80 78 -  -  .db 128,120
 4874 D2:4E75 80 7F -  -  .db 128,127
 4875 D2:4E77 F0 15 00 E0 
              15 00 40 14 
              00 -  -  -  .f 351,350,324
 4876 D2:4E80 00 -  -  -  .db 0
 4877 D2:4E81 9A 78 -  -  .db 154,120
 4878 D2:4E83 9A 7F -  -  .db 154,127
 4879 D2:4E85 80 7F -  -  .db 128,127
 4880 D2:4E87 00 15 00 30 
              15 00 30 13 
              00 -  -  -  .f 336,339,307
 4881 D2:4E90 00 -  -  -  .db 0
 4882 D2:4E91 9A 2C -  -  .db 154,44
 4883 D2:4E93 8C 2C -  -  .db 140,44
 4884 D2:4E95 8C 3E -  -  .db 140,62
 4885 D2:4E97 A0 12 00 30 
              13 00 70 12 
              00 -  -  -  .f 298,307,295
 4886 D2:4EA0 00 -  -  -  .db 0
 4887 D2:4EA1 8C 2C -  -  .db 140,44
 4888 D2:4EA3 8C 3E -  -  .db 140,62
 4889 D2:4EA5 9A 3E -  -  .db 154,62
 4890 D2:4EA7 10 15 00 40 
              15 00 A0 15 
              00 -  -  -  .f 337,340,346
 4891 D2:4EB0 00 -  -  -  .db 0
 4892 D2:4EB1 8C 3E -  -  .db 140,62
 4893 D2:4EB3 8C 2C -  -  .db 140,44
 4894 D2:4EB5 9A 2C -  -  .db 154,44
 4895 D2:4EB7 80 13 00 40 
              13 00 40 15 
              00 -  -  -  .f 312,308,340
 4896 D2:4EC0 00 -  -  -  .db 0
 4897 D2:4EC1 9A 2C -  -  .db 154,44
 4898 D2:4EC3 9A 3E -  -  .db 154,62
 4899 D2:4EC5 8C 3E -  -  .db 140,62
 4900 D2:4EC7 40 15 00 10 
              15 00 80 13 
              00 -  -  -  .f 340,337,312
 4901 D2:4ED0 00 -  -  -  .db 0
 4902 D2:4ED1 8C 3E -  -  .db 140,62
 4903 D2:4ED3 8C 2C -  -  .db 140,44
 4904 D2:4ED5 9A 2C -  -  .db 154,44
 4905 D2:4ED7 A0 15 00 40 
              15 00 10 16 
              00 -  -  -  .f 346,340,353
 4906 D2:4EE0 00 -  -  -  .db 0
 4907 D2:4EE1 9A 2C -  -  .db 154,44
 4908 D2:4EE3 9A 3E -  -  .db 154,62
 4909 D2:4EE5 8C 3E -  -  .db 140,62
 4910 D2:4EE7 30 15 00 10 
              16 00 40 15 
              00 -  -  -  .f 339,353,340
 4911 D2:4EF0 00 -  -  -  .db 0
 4912 D2:4EF1 9A 2C -  -  .db 154,44
 4913 D2:4EF3 9A 3E -  -  .db 154,62
 4914 D2:4EF5 8C 3E -  -  .db 140,62
 4915 D2:4EF7 70 12 00 30 
              13 00 40 13 
              00 -  -  -  .f 295,307,308
 4916 D2:4F00 00 -  -  -  .db 0
 4917 D2:4F01 8C 2C -  -  .db 140,44
 4918 D2:4F03 8C 3E -  -  .db 140,62
 4919 D2:4F05 9A 3E -  -  .db 154,62
 4920 D2:4F07 70 12 00 40 
              13 00 F0 12 
              00 -  -  -  .f 295,308,303
 4921 D2:4F10 00 -  -  -  .db 0
 4922 D2:4F11 8C 2C -  -  .db 140,44
 4923 D2:4F13 9A 2C -  -  .db 154,44
 4924 D2:4F15 9A 3E -  -  .db 154,62
 4925 D2:4F17 20 13 00 40 
              13 00 30 13 
              00 -  -  -  .f 306,308,307
 4926 D2:4F20 00 -  -  -  .db 0
 4927 D2:4F21 A0 97 -  -  .db 160,151
 4928 D2:4F23 A0 90 -  -  .db 160,144
 4929 D2:4F25 A6 90 -  -  .db 166,144
 4930 D2:4F27 20 13 00 E0 
              13 00 40 13 
              00 -  -  -  .f 306,318,308
 4931 D2:4F30 00 -  -  -  .db 0
 4932 D2:4F31 A0 90 -  -  .db 160,144
 4933 D2:4F33 A6 90 -  -  .db 166,144
 4934 D2:4F35 A6 97 -  -  .db 166,151
 4935 D2:4F37 60 13 00 30 
              13 00 30 15 
              00 -  -  -  .f 310,307,339
 4936 D2:4F40 00 -  -  -  .db 0
 4937 D2:4F41 A0 97 -  -  .db 160,151
 4938 D2:4F43 A0 90 -  -  .db 160,144
 4939 D2:4F45 A6 90 -  -  .db 166,144
 4940 D2:4F47 30 15 00 20 
              15 00 60 13 
              00 -  -  -  .f 339,338,310
 4941 D2:4F50 00 -  -  -  .db 0
 4942 D2:4F51 A6 90 -  -  .db 166,144
 4943 D2:4F53 A6 97 -  -  .db 166,151
 4944 D2:4F55 A0 97 -  -  .db 160,151
 4945 D2:4F57 50 15 00 30 
              15 00 40 15 
              00 -  -  -  .f 341,339,340
 4946 D2:4F60 00 -  -  -  .db 0
 4947 D2:4F61 A0 97 -  -  .db 160,151
 4948 D2:4F63 A0 90 -  -  .db 160,144
 4949 D2:4F65 A6 90 -  -  .db 166,144
 4950 D2:4F67 50 15 00 20 
              15 00 30 15 
              00 -  -  -  .f 341,338,339
 4951 D2:4F70 00 -  -  -  .db 0
 4952 D2:4F71 A6 97 -  -  .db 166,151
 4953 D2:4F73 A0 97 -  -  .db 160,151
 4954 D2:4F75 A0 90 -  -  .db 160,144
 4955 D2:4F77 90 14 00 40 
              15 00 40 13 
              00 -  -  -  .f 329,340,308
 4956 D2:4F80 00 -  -  -  .db 0
 4957 D2:4F81 A0 97 -  -  .db 160,151
 4958 D2:4F83 A0 90 -  -  .db 160,144
 4959 D2:4F85 A6 90 -  -  .db 166,144
 4960 D2:4F87 40 13 00 E0 
              13 00 90 14 
              00 -  -  -  .f 308,318,329
 4961 D2:4F90 00 -  -  -  .db 0
 4962 D2:4F91 A6 90 -  -  .db 166,144
 4963 D2:4F93 A6 97 -  -  .db 166,151
 4964 D2:4F95 A0 97 -  -  .db 160,151
 4965 D2:4F97 40 15 00 90 
              14 00 50 15 
              00 -  -  -  .f 340,329,341
 4966 D2:4FA0 00 -  -  -  .db 0
 4967 D2:4FA1 A6 90 -  -  .db 166,144
 4968 D2:4FA3 A6 97 -  -  .db 166,151
 4969 D2:4FA5 A0 97 -  -  .db 160,151
 4970 D2:4FA7 30 13 00 60 
              13 00 20 13 
              00 -  -  -  .f 307,310,306
 4971 D2:4FB0 00 -  -  -  .db 0
 4972 D2:4FB1 A6 90 -  -  .db 166,144
 4973 D2:4FB3 A6 97 -  -  .db 166,151
 4974 D2:4FB5 A0 97 -  -  .db 160,151
 4975 D2:4FB7 90 14 00 C0 
              14 00 50 15 
              00 -  -  -  .f 329,332,341
 4976 D2:4FC0 00 -  -  -  .db 0
 4977 D2:4FC1 9A 2C -  -  .db 154,44
 4978 D2:4FC3 8C 2C -  -  .db 140,44
 4979 D2:4FC5 8C 3E -  -  .db 140,62
 4980 D2:4FC7 B0 14 00 20 
              15 00 50 15 
              00 -  -  -  .f 331,338,341
 4981 D2:4FD0 00 -  -  -  .db 0
 4982 D2:4FD1 9A 2C -  -  .db 154,44
 4983 D2:4FD3 8C 2C -  -  .db 140,44
 4984 D2:4FD5 8C 3E -  -  .db 140,62
 4985 D2:4FD7 C0 14 00 B0 
              14 00 50 15 
              00 -  -  -  .f 332,331,341
 4986 D2:4FE0 00 -  -  -  .db 0
 4987 D2:4FE1 9A 2C -  -  .db 154,44
 4988 D2:4FE3 8C 2C -  -  .db 140,44
 4989 D2:4FE5 8C 3E -  -  .db 140,62
 4990 D2:4FE7 E0 13 00 D0 
              13 00 C0 14 
              00 -  -  -  .f 318,317,332
 4991 D2:4FF0 00 -  -  -  .db 0
 4992 D2:4FF1 9A 2C -  -  .db 154,44
 4993 D2:4FF3 8C 2C -  -  .db 140,44
 4994 D2:4FF5 8C 3E -  -  .db 140,62
 4995 D2:4FF7 90 14 00 E0 
              13 00 C0 14 
              00 -  -  -  .f 329,318,332
 4996 D2:5000 00 -  -  -  .db 0
 4997 D2:5001 9A 2C -  -  .db 154,44
 4998 D2:5003 8C 2C -  -  .db 140,44
 4999 D2:5005 8C 3E -  -  .db 140,62
 5000 D2:5007 C0 13 00 60 
              13 00 20 15 
              00 -  -  -  .f 316,310,338
 5001 D2:5010 00 -  -  -  .db 0
 5002 D2:5011 9A 2C -  -  .db 154,44
 5003 D2:5013 8C 2C -  -  .db 140,44
 5004 D2:5015 8C 3E -  -  .db 140,62
 5005 D2:5017 B0 14 00 C0 
              13 00 20 15 
              00 -  -  -  .f 331,316,338
 5006 D2:5020 00 -  -  -  .db 0
 5007 D2:5021 9A 2C -  -  .db 154,44
 5008 D2:5023 8C 2C -  -  .db 140,44
 5009 D2:5025 8C 3E -  -  .db 140,62
 5010 D2:5027 D0 13 00 C0 
              13 00 B0 14 
              00 -  -  -  .f 317,316,331
 5011 D2:5030 00 -  -  -  .db 0
 5012 D2:5031 9A 2C -  -  .db 154,44
 5013 D2:5033 8C 2C -  -  .db 140,44
 5014 D2:5035 8C 3E -  -  .db 140,62
 5015 D2:5037 C0 14 00 D0 
              13 00 B0 14 
              00 -  -  -  .f 332,317,331
 5016 D2:5040 00 -  -  -  .db 0
 5017 D2:5041 9A 2C -  -  .db 154,44
 5018 D2:5043 8C 2C -  -  .db 140,44
 5019 D2:5045 8C 3E -  -  .db 140,62
 5020 D2:5047 60 13 00 C0 
              13 00 20 13 
              00 -  -  -  .f 310,316,306
 5021 D2:5050 00 -  -  -  .db 0
 5022 D2:5051 9A 2C -  -  .db 154,44
 5023 D2:5053 8C 2C -  -  .db 140,44
 5024 D2:5055 8C 3E -  -  .db 140,62
 5025 D2:5057 D0 13 00 E0 
              13 00 20 13 
              00 -  -  -  .f 317,318,306
 5026 D2:5060 00 -  -  -  .db 0
 5027 D2:5061 9A 2C -  -  .db 154,44
 5028 D2:5063 8C 2C -  -  .db 140,44
 5029 D2:5065 8C 3E -  -  .db 140,62
 5030 D2:5067 C0 13 00 D0 
              13 00 20 13 
              00 -  -  -  .f 316,317,306
 5031 D2:5070 00 -  -  -  .db 0
 5032 D2:5071 9A 2C -  -  .db 154,44
 5033 D2:5073 8C 2C -  -  .db 140,44
 5034 D2:5075 8C 3E -  -  .db 140,62
 5035 D2:5077 B0 15 00 D0 
              15 00 00 15 
              00 -  -  -  .f 347,349,336
 5036 D2:5080 00 -  -  -  .db 0
 5037 D2:5081 B7 4C -  -  .db 183,76
 5038 D2:5083 A8 4C -  -  .db 168,76
 5039 D2:5085 A8 5A -  -  .db 168,90
 5040 D2:5087 50 13 00 30 
              13 00 A0 12 
              00 -  -  -  .f 309,307,298
 5041 D2:5090 00 -  -  -  .db 0
 5042 D2:5091 9A 2C -  -  .db 154,44
 5043 D2:5093 8C 2C -  -  .db 140,44
 5044 D2:5095 8C 3E -  -  .db 140,62
 5045 D2:5097 20 16 00 D0 
              15 00 B0 15 
              00 -  -  -  .f 354,349,347
 5046 D2:50A0 00 -  -  -  .db 0
 5047 D2:50A1 9A 2C -  -  .db 154,44
 5048 D2:50A3 8C 2C -  -  .db 140,44
 5049 D2:50A5 8C 3E -  -  .db 140,62
 5050 D2:50A7 00 16 00 10 
              16 00 20 16 
              00 -  -  -  .f 352,353,354
 5051 D2:50B0 00 -  -  -  .db 0
 5052 D2:50B1 9A 3E -  -  .db 154,62
 5053 D2:50B3 8C 3E -  -  .db 140,62
 5054 D2:50B5 8C 2C -  -  .db 140,44
 5055 D2:50B7 70 12 00 80 
              12 00 60 12 
              00 -  -  -  .f 295,296,294
 5056 D2:50C0 00 -  -  -  .db 0
 5057 D2:50C1 8C 2C -  -  .db 140,44
 5058 D2:50C3 8C 3E -  -  .db 140,62
 5059 D2:50C5 9A 3E -  -  .db 154,62
 5060 D2:50C7 60 12 00 A0 
              12 00 70 12 
              00 -  -  -  .f 294,298,295
 5061 D2:50D0 00 -  -  -  .db 0
 5062 D2:50D1 8C 2C -  -  .db 140,44
 5063 D2:50D3 8C 3E -  -  .db 140,62
 5064 D2:50D5 9A 3E -  -  .db 154,62
 5065 D2:50D7 10 13 00 70 
              13 00 70 14 
              00 -  -  -  .f 305,311,327
 5066 D2:50E0 00 -  -  -  .db 0
 5067 D2:50E1 9A 2C -  -  .db 154,44
 5068 D2:50E3 8C 2C -  -  .db 140,44
 5069 D2:50E5 8C 3E -  -  .db 140,62
 5070 D2:50E7 20 16 00 80 
              15 00 00 16 
              00 -  -  -  .f 354,344,352
 5071 D2:50F0 00 -  -  -  .db 0
 5072 D2:50F1 9A 2C -  -  .db 154,44
 5073 D2:50F3 8C 2C -  -  .db 140,44
 5074 D2:50F5 8C 3E -  -  .db 140,62
 5075 D2:50F7 60 12 00 80 
              12 00 10 13 
              00 -  -  -  .f 294,296,305
 5076 D2:5100 00 -  -  -  .db 0
 5077 D2:5101 9A 2C -  -  .db 154,44
 5078 D2:5103 8C 2C -  -  .db 140,44
 5079 D2:5105 8C 3E -  -  .db 140,62
 5080 D2:5107 00 16 00 80 
              15 00 60 15 
              00 -  -  -  .f 352,344,342
 5081 D2:5110 00 -  -  -  .db 0
 5082 D2:5111 9A 2C -  -  .db 154,44
 5083 D2:5113 8C 2C -  -  .db 140,44
 5084 D2:5115 8C 3E -  -  .db 140,62
 5085 D2:5117 D0 15 00 20 
              16 00 10 16 
              00 -  -  -  .f 349,354,353
 5086 D2:5120 00 -  -  -  .db 0
 5087 D2:5121 8C 3E -  -  .db 140,62
 5088 D2:5123 9A 3E -  -  .db 154,62
 5089 D2:5125 9A 2C -  -  .db 154,44
 5090 D2:5127 D0 12 00 A0 
              12 00 60 12 
              00 -  -  -  .f 301,298,294
 5091 D2:5130 00 -  -  -  .db 0
 5092 D2:5131 9A 2C -  -  .db 154,44
 5093 D2:5133 8C 2C -  -  .db 140,44
 5094 D2:5135 8C 3E -  -  .db 140,62
Listing for file "example.ez80"
